
app-cython:     формат файла elf64-x86-64


Дизассемблирование раздела .init:

0000000000004000 <_init>:
    4000:	f3 0f 1e fa          	endbr64
    4004:	48 83 ec 08          	sub    $0x8,%rsp
    4008:	48 8b 05 91 1f 01 00 	mov    0x11f91(%rip),%rax        # 15fa0 <__gmon_start__@Base>
    400f:	48 85 c0             	test   %rax,%rax
    4012:	74 02                	je     4016 <_init+0x16>
    4014:	ff d0                	call   *%rax
    4016:	48 83 c4 08          	add    $0x8,%rsp
    401a:	c3                   	ret

Дизассемблирование раздела .plt:

0000000000004020 <PyOS_string_to_double@plt-0x10>:
    4020:	ff 35 ca 1f 01 00    	push   0x11fca(%rip)        # 15ff0 <_GLOBAL_OFFSET_TABLE_+0x8>
    4026:	ff 25 cc 1f 01 00    	jmp    *0x11fcc(%rip)        # 15ff8 <_GLOBAL_OFFSET_TABLE_+0x10>
    402c:	0f 1f 40 00          	nopl   0x0(%rax)

0000000000004030 <PyOS_string_to_double@plt>:
    4030:	ff 25 ca 1f 01 00    	jmp    *0x11fca(%rip)        # 16000 <PyOS_string_to_double@Base>
    4036:	68 00 00 00 00       	push   $0x0
    403b:	e9 e0 ff ff ff       	jmp    4020 <_init+0x20>

0000000000004040 <PyInterpreterState_GetID@plt>:
    4040:	ff 25 c2 1f 01 00    	jmp    *0x11fc2(%rip)        # 16008 <PyInterpreterState_GetID@Base>
    4046:	68 01 00 00 00       	push   $0x1
    404b:	e9 d0 ff ff ff       	jmp    4020 <_init+0x20>

0000000000004050 <PyDict_SetItemString@plt>:
    4050:	ff 25 ba 1f 01 00    	jmp    *0x11fba(%rip)        # 16010 <PyDict_SetItemString@Base>
    4056:	68 02 00 00 00       	push   $0x2
    405b:	e9 c0 ff ff ff       	jmp    4020 <_init+0x20>

0000000000004060 <PyUnicode_Compare@plt>:
    4060:	ff 25 b2 1f 01 00    	jmp    *0x11fb2(%rip)        # 16018 <PyUnicode_Compare@Base>
    4066:	68 03 00 00 00       	push   $0x3
    406b:	e9 b0 ff ff ff       	jmp    4020 <_init+0x20>

0000000000004070 <PyFrame_New@plt>:
    4070:	ff 25 aa 1f 01 00    	jmp    *0x11faa(%rip)        # 16020 <PyFrame_New@Base>
    4076:	68 04 00 00 00       	push   $0x4
    407b:	e9 a0 ff ff ff       	jmp    4020 <_init+0x20>

0000000000004080 <_PyUnicode_FastCopyCharacters@plt>:
    4080:	ff 25 a2 1f 01 00    	jmp    *0x11fa2(%rip)        # 16028 <_PyUnicode_FastCopyCharacters@Base>
    4086:	68 05 00 00 00       	push   $0x5
    408b:	e9 90 ff ff ff       	jmp    4020 <_init+0x20>

0000000000004090 <PyModule_NewObject@plt>:
    4090:	ff 25 9a 1f 01 00    	jmp    *0x11f9a(%rip)        # 16030 <PyModule_NewObject@Base>
    4096:	68 06 00 00 00       	push   $0x6
    409b:	e9 80 ff ff ff       	jmp    4020 <_init+0x20>

00000000000040a0 <PyUnicode_AsEncodedString@plt>:
    40a0:	ff 25 92 1f 01 00    	jmp    *0x11f92(%rip)        # 16038 <PyUnicode_AsEncodedString@Base>
    40a6:	68 07 00 00 00       	push   $0x7
    40ab:	e9 70 ff ff ff       	jmp    4020 <_init+0x20>

00000000000040b0 <_PyObject_GenericGetAttrWithDict@plt>:
    40b0:	ff 25 8a 1f 01 00    	jmp    *0x11f8a(%rip)        # 16040 <_PyObject_GenericGetAttrWithDict@Base>
    40b6:	68 08 00 00 00       	push   $0x8
    40bb:	e9 60 ff ff ff       	jmp    4020 <_init+0x20>

00000000000040c0 <PyType_Ready@plt>:
    40c0:	ff 25 82 1f 01 00    	jmp    *0x11f82(%rip)        # 16048 <PyType_Ready@Base>
    40c6:	68 09 00 00 00       	push   $0x9
    40cb:	e9 50 ff ff ff       	jmp    4020 <_init+0x20>

00000000000040d0 <PyConfig_SetArgv@plt>:
    40d0:	ff 25 7a 1f 01 00    	jmp    *0x11f7a(%rip)        # 16050 <PyConfig_SetArgv@Base>
    40d6:	68 0a 00 00 00       	push   $0xa
    40db:	e9 40 ff ff ff       	jmp    4020 <_init+0x20>

00000000000040e0 <PyConfig_SetString@plt>:
    40e0:	ff 25 72 1f 01 00    	jmp    *0x11f72(%rip)        # 16058 <PyConfig_SetString@Base>
    40e6:	68 0b 00 00 00       	push   $0xb
    40eb:	e9 30 ff ff ff       	jmp    4020 <_init+0x20>

00000000000040f0 <PyMem_Free@plt>:
    40f0:	ff 25 6a 1f 01 00    	jmp    *0x11f6a(%rip)        # 16060 <PyMem_Free@Base>
    40f6:	68 0c 00 00 00       	push   $0xc
    40fb:	e9 20 ff ff ff       	jmp    4020 <_init+0x20>

0000000000004100 <Py_InitializeFromConfig@plt>:
    4100:	ff 25 62 1f 01 00    	jmp    *0x11f62(%rip)        # 16068 <Py_InitializeFromConfig@Base>
    4106:	68 0d 00 00 00       	push   $0xd
    410b:	e9 10 ff ff ff       	jmp    4020 <_init+0x20>

0000000000004110 <PyUnicode_Join@plt>:
    4110:	ff 25 5a 1f 01 00    	jmp    *0x11f5a(%rip)        # 16070 <PyUnicode_Join@Base>
    4116:	68 0e 00 00 00       	push   $0xe
    411b:	e9 00 ff ff ff       	jmp    4020 <_init+0x20>

0000000000004120 <__assert_fail@plt>:
    4120:	ff 25 52 1f 01 00    	jmp    *0x11f52(%rip)        # 16078 <__assert_fail@GLIBC_2.2.5>
    4126:	68 0f 00 00 00       	push   $0xf
    412b:	e9 f0 fe ff ff       	jmp    4020 <_init+0x20>

0000000000004130 <PyObject_VectorcallDict@plt>:
    4130:	ff 25 4a 1f 01 00    	jmp    *0x11f4a(%rip)        # 16080 <PyObject_VectorcallDict@Base>
    4136:	68 10 00 00 00       	push   $0x10
    413b:	e9 e0 fe ff ff       	jmp    4020 <_init+0x20>

0000000000004140 <PyUnicode_FromString@plt>:
    4140:	ff 25 42 1f 01 00    	jmp    *0x11f42(%rip)        # 16088 <PyUnicode_FromString@Base>
    4146:	68 11 00 00 00       	push   $0x11
    414b:	e9 d0 fe ff ff       	jmp    4020 <_init+0x20>

0000000000004150 <PyObject_GC_Del@plt>:
    4150:	ff 25 3a 1f 01 00    	jmp    *0x11f3a(%rip)        # 16090 <PyObject_GC_Del@Base>
    4156:	68 12 00 00 00       	push   $0x12
    415b:	e9 c0 fe ff ff       	jmp    4020 <_init+0x20>

0000000000004160 <PyErr_NoMemory@plt>:
    4160:	ff 25 32 1f 01 00    	jmp    *0x11f32(%rip)        # 16098 <PyErr_NoMemory@Base>
    4166:	68 13 00 00 00       	push   $0x13
    416b:	e9 b0 fe ff ff       	jmp    4020 <_init+0x20>

0000000000004170 <PyObject_GC_UnTrack@plt>:
    4170:	ff 25 2a 1f 01 00    	jmp    *0x11f2a(%rip)        # 160a0 <PyObject_GC_UnTrack@Base>
    4176:	68 14 00 00 00       	push   $0x14
    417b:	e9 a0 fe ff ff       	jmp    4020 <_init+0x20>

0000000000004180 <_PyObject_GetDictPtr@plt>:
    4180:	ff 25 22 1f 01 00    	jmp    *0x11f22(%rip)        # 160a8 <_PyObject_GetDictPtr@Base>
    4186:	68 15 00 00 00       	push   $0x15
    418b:	e9 90 fe ff ff       	jmp    4020 <_init+0x20>

0000000000004190 <PyObject_IsTrue@plt>:
    4190:	ff 25 1a 1f 01 00    	jmp    *0x11f1a(%rip)        # 160b0 <PyObject_IsTrue@Base>
    4196:	68 16 00 00 00       	push   $0x16
    419b:	e9 80 fe ff ff       	jmp    4020 <_init+0x20>

00000000000041a0 <malloc@plt>:
    41a0:	ff 25 12 1f 01 00    	jmp    *0x11f12(%rip)        # 160b8 <malloc@GLIBC_2.2.5>
    41a6:	68 17 00 00 00       	push   $0x17
    41ab:	e9 70 fe ff ff       	jmp    4020 <_init+0x20>

00000000000041b0 <PyFloat_FromString@plt>:
    41b0:	ff 25 0a 1f 01 00    	jmp    *0x11f0a(%rip)        # 160c0 <PyFloat_FromString@Base>
    41b6:	68 18 00 00 00       	push   $0x18
    41bb:	e9 60 fe ff ff       	jmp    4020 <_init+0x20>

00000000000041c0 <PyMem_Realloc@plt>:
    41c0:	ff 25 02 1f 01 00    	jmp    *0x11f02(%rip)        # 160c8 <PyMem_Realloc@Base>
    41c6:	68 19 00 00 00       	push   $0x19
    41cb:	e9 50 fe ff ff       	jmp    4020 <_init+0x20>

00000000000041d0 <PyObject_Not@plt>:
    41d0:	ff 25 fa 1e 01 00    	jmp    *0x11efa(%rip)        # 160d0 <PyObject_Not@Base>
    41d6:	68 1a 00 00 00       	push   $0x1a
    41db:	e9 40 fe ff ff       	jmp    4020 <_init+0x20>

00000000000041e0 <PyErr_GivenExceptionMatches@plt>:
    41e0:	ff 25 f2 1e 01 00    	jmp    *0x11ef2(%rip)        # 160d8 <PyErr_GivenExceptionMatches@Base>
    41e6:	68 1b 00 00 00       	push   $0x1b
    41eb:	e9 30 fe ff ff       	jmp    4020 <_init+0x20>

00000000000041f0 <PyDict_GetItemWithError@plt>:
    41f0:	ff 25 ea 1e 01 00    	jmp    *0x11eea(%rip)        # 160e0 <PyDict_GetItemWithError@Base>
    41f6:	68 1c 00 00 00       	push   $0x1c
    41fb:	e9 20 fe ff ff       	jmp    4020 <_init+0x20>

0000000000004200 <PyUnstable_Code_NewWithPosOnlyArgs@plt>:
    4200:	ff 25 e2 1e 01 00    	jmp    *0x11ee2(%rip)        # 160e8 <PyUnstable_Code_NewWithPosOnlyArgs@Base>
    4206:	68 1d 00 00 00       	push   $0x1d
    420b:	e9 10 fe ff ff       	jmp    4020 <_init+0x20>

0000000000004210 <PyOS_snprintf@plt>:
    4210:	ff 25 da 1e 01 00    	jmp    *0x11eda(%rip)        # 160f0 <PyOS_snprintf@Base>
    4216:	68 1e 00 00 00       	push   $0x1e
    421b:	e9 00 fe ff ff       	jmp    4020 <_init+0x20>

0000000000004220 <PyUnicode_AsUTF8AndSize@plt>:
    4220:	ff 25 d2 1e 01 00    	jmp    *0x11ed2(%rip)        # 160f8 <PyUnicode_AsUTF8AndSize@Base>
    4226:	68 1f 00 00 00       	push   $0x1f
    422b:	e9 f0 fd ff ff       	jmp    4020 <_init+0x20>

0000000000004230 <PyObject_GetItem@plt>:
    4230:	ff 25 ca 1e 01 00    	jmp    *0x11eca(%rip)        # 16100 <PyObject_GetItem@Base>
    4236:	68 20 00 00 00       	push   $0x20
    423b:	e9 e0 fd ff ff       	jmp    4020 <_init+0x20>

0000000000004240 <PyUnicode_FromFormat@plt>:
    4240:	ff 25 c2 1e 01 00    	jmp    *0x11ec2(%rip)        # 16108 <PyUnicode_FromFormat@Base>
    4246:	68 21 00 00 00       	push   $0x21
    424b:	e9 d0 fd ff ff       	jmp    4020 <_init+0x20>

0000000000004250 <PyDict_Next@plt>:
    4250:	ff 25 ba 1e 01 00    	jmp    *0x11eba(%rip)        # 16110 <PyDict_Next@Base>
    4256:	68 22 00 00 00       	push   $0x22
    425b:	e9 c0 fd ff ff       	jmp    4020 <_init+0x20>

0000000000004260 <PyImport_AddModule@plt>:
    4260:	ff 25 b2 1e 01 00    	jmp    *0x11eb2(%rip)        # 16118 <PyImport_AddModule@Base>
    4266:	68 23 00 00 00       	push   $0x23
    426b:	e9 b0 fd ff ff       	jmp    4020 <_init+0x20>

0000000000004270 <Py_EnterRecursiveCall@plt>:
    4270:	ff 25 aa 1e 01 00    	jmp    *0x11eaa(%rip)        # 16120 <Py_EnterRecursiveCall@Base>
    4276:	68 24 00 00 00       	push   $0x24
    427b:	e9 a0 fd ff ff       	jmp    4020 <_init+0x20>

0000000000004280 <PyStatus_Exception@plt>:
    4280:	ff 25 a2 1e 01 00    	jmp    *0x11ea2(%rip)        # 16128 <PyStatus_Exception@Base>
    4286:	68 25 00 00 00       	push   $0x25
    428b:	e9 90 fd ff ff       	jmp    4020 <_init+0x20>

0000000000004290 <PyErr_Format@plt>:
    4290:	ff 25 9a 1e 01 00    	jmp    *0x11e9a(%rip)        # 16130 <PyErr_Format@Base>
    4296:	68 26 00 00 00       	push   $0x26
    429b:	e9 80 fd ff ff       	jmp    4020 <_init+0x20>

00000000000042a0 <PyFloat_FromDouble@plt>:
    42a0:	ff 25 92 1e 01 00    	jmp    *0x11e92(%rip)        # 16138 <PyFloat_FromDouble@Base>
    42a6:	68 27 00 00 00       	push   $0x27
    42ab:	e9 70 fd ff ff       	jmp    4020 <_init+0x20>

00000000000042b0 <PyNumber_Long@plt>:
    42b0:	ff 25 8a 1e 01 00    	jmp    *0x11e8a(%rip)        # 16140 <PyNumber_Long@Base>
    42b6:	68 28 00 00 00       	push   $0x28
    42bb:	e9 60 fd ff ff       	jmp    4020 <_init+0x20>

00000000000042c0 <PyNumber_InPlaceAdd@plt>:
    42c0:	ff 25 82 1e 01 00    	jmp    *0x11e82(%rip)        # 16148 <PyNumber_InPlaceAdd@Base>
    42c6:	68 29 00 00 00       	push   $0x29
    42cb:	e9 50 fd ff ff       	jmp    4020 <_init+0x20>

00000000000042d0 <PyObject_GetAttr@plt>:
    42d0:	ff 25 7a 1e 01 00    	jmp    *0x11e7a(%rip)        # 16150 <PyObject_GetAttr@Base>
    42d6:	68 2a 00 00 00       	push   $0x2a
    42db:	e9 40 fd ff ff       	jmp    4020 <_init+0x20>

00000000000042e0 <PyErr_ExceptionMatches@plt>:
    42e0:	ff 25 72 1e 01 00    	jmp    *0x11e72(%rip)        # 16158 <PyErr_ExceptionMatches@Base>
    42e6:	68 2b 00 00 00       	push   $0x2b
    42eb:	e9 30 fd ff ff       	jmp    4020 <_init+0x20>

00000000000042f0 <PyErr_Occurred@plt>:
    42f0:	ff 25 6a 1e 01 00    	jmp    *0x11e6a(%rip)        # 16160 <PyErr_Occurred@Base>
    42f6:	68 2c 00 00 00       	push   $0x2c
    42fb:	e9 20 fd ff ff       	jmp    4020 <_init+0x20>

0000000000004300 <Py_DecodeLocale@plt>:
    4300:	ff 25 62 1e 01 00    	jmp    *0x11e62(%rip)        # 16168 <Py_DecodeLocale@Base>
    4306:	68 2d 00 00 00       	push   $0x2d
    430b:	e9 10 fd ff ff       	jmp    4020 <_init+0x20>

0000000000004310 <PyTuple_GetSlice@plt>:
    4310:	ff 25 5a 1e 01 00    	jmp    *0x11e5a(%rip)        # 16170 <PyTuple_GetSlice@Base>
    4316:	68 2e 00 00 00       	push   $0x2e
    431b:	e9 00 fd ff ff       	jmp    4020 <_init+0x20>

0000000000004320 <free@plt>:
    4320:	ff 25 52 1e 01 00    	jmp    *0x11e52(%rip)        # 16178 <free@GLIBC_2.2.5>
    4326:	68 2f 00 00 00       	push   $0x2f
    432b:	e9 f0 fc ff ff       	jmp    4020 <_init+0x20>

0000000000004330 <PyLong_AsDouble@plt>:
    4330:	ff 25 4a 1e 01 00    	jmp    *0x11e4a(%rip)        # 16180 <PyLong_AsDouble@Base>
    4336:	68 30 00 00 00       	push   $0x30
    433b:	e9 e0 fc ff ff       	jmp    4020 <_init+0x20>

0000000000004340 <Py_FinalizeEx@plt>:
    4340:	ff 25 42 1e 01 00    	jmp    *0x11e42(%rip)        # 16188 <Py_FinalizeEx@Base>
    4346:	68 31 00 00 00       	push   $0x31
    434b:	e9 d0 fc ff ff       	jmp    4020 <_init+0x20>

0000000000004350 <PyErr_SetObject@plt>:
    4350:	ff 25 3a 1e 01 00    	jmp    *0x11e3a(%rip)        # 16190 <PyErr_SetObject@Base>
    4356:	68 32 00 00 00       	push   $0x32
    435b:	e9 c0 fc ff ff       	jmp    4020 <_init+0x20>

0000000000004360 <PyNumber_Multiply@plt>:
    4360:	ff 25 32 1e 01 00    	jmp    *0x11e32(%rip)        # 16198 <PyNumber_Multiply@Base>
    4366:	68 33 00 00 00       	push   $0x33
    436b:	e9 b0 fc ff ff       	jmp    4020 <_init+0x20>

0000000000004370 <PyUnicode_InternFromString@plt>:
    4370:	ff 25 2a 1e 01 00    	jmp    *0x11e2a(%rip)        # 161a0 <PyUnicode_InternFromString@Base>
    4376:	68 34 00 00 00       	push   $0x34
    437b:	e9 a0 fc ff ff       	jmp    4020 <_init+0x20>

0000000000004380 <PyUnicode_Concat@plt>:
    4380:	ff 25 22 1e 01 00    	jmp    *0x11e22(%rip)        # 161a8 <PyUnicode_Concat@Base>
    4386:	68 35 00 00 00       	push   $0x35
    438b:	e9 90 fc ff ff       	jmp    4020 <_init+0x20>

0000000000004390 <strrchr@plt>:
    4390:	ff 25 1a 1e 01 00    	jmp    *0x11e1a(%rip)        # 161b0 <strrchr@GLIBC_2.2.5>
    4396:	68 36 00 00 00       	push   $0x36
    439b:	e9 80 fc ff ff       	jmp    4020 <_init+0x20>

00000000000043a0 <_PyObject_GC_New@plt>:
    43a0:	ff 25 12 1e 01 00    	jmp    *0x11e12(%rip)        # 161b8 <_PyObject_GC_New@Base>
    43a6:	68 37 00 00 00       	push   $0x37
    43ab:	e9 70 fc ff ff       	jmp    4020 <_init+0x20>

00000000000043b0 <PyTuple_Pack@plt>:
    43b0:	ff 25 0a 1e 01 00    	jmp    *0x11e0a(%rip)        # 161c0 <PyTuple_Pack@Base>
    43b6:	68 38 00 00 00       	push   $0x38
    43bb:	e9 60 fc ff ff       	jmp    4020 <_init+0x20>

00000000000043c0 <PyThreadState_Get@plt>:
    43c0:	ff 25 02 1e 01 00    	jmp    *0x11e02(%rip)        # 161c8 <PyThreadState_Get@Base>
    43c6:	68 39 00 00 00       	push   $0x39
    43cb:	e9 50 fc ff ff       	jmp    4020 <_init+0x20>

00000000000043d0 <_PyUnicode_IsWhitespace@plt>:
    43d0:	ff 25 fa 1d 01 00    	jmp    *0x11dfa(%rip)        # 161d0 <_PyUnicode_IsWhitespace@Base>
    43d6:	68 3a 00 00 00       	push   $0x3a
    43db:	e9 40 fc ff ff       	jmp    4020 <_init+0x20>

00000000000043e0 <PyMem_RawFree@plt>:
    43e0:	ff 25 f2 1d 01 00    	jmp    *0x11df2(%rip)        # 161d8 <PyMem_RawFree@Base>
    43e6:	68 3b 00 00 00       	push   $0x3b
    43eb:	e9 30 fc ff ff       	jmp    4020 <_init+0x20>

00000000000043f0 <PyDict_Size@plt>:
    43f0:	ff 25 ea 1d 01 00    	jmp    *0x11dea(%rip)        # 161e0 <PyDict_Size@Base>
    43f6:	68 3c 00 00 00       	push   $0x3c
    43fb:	e9 20 fc ff ff       	jmp    4020 <_init+0x20>

0000000000004400 <PyModule_GetDict@plt>:
    4400:	ff 25 e2 1d 01 00    	jmp    *0x11de2(%rip)        # 161e8 <PyModule_GetDict@Base>
    4406:	68 3d 00 00 00       	push   $0x3d
    440b:	e9 10 fc ff ff       	jmp    4020 <_init+0x20>

0000000000004410 <PyCode_NewEmpty@plt>:
    4410:	ff 25 da 1d 01 00    	jmp    *0x11dda(%rip)        # 161f0 <PyCode_NewEmpty@Base>
    4416:	68 3e 00 00 00       	push   $0x3e
    441b:	e9 00 fc ff ff       	jmp    4020 <_init+0x20>

0000000000004420 <PyImport_ImportModuleLevelObject@plt>:
    4420:	ff 25 d2 1d 01 00    	jmp    *0x11dd2(%rip)        # 161f8 <PyImport_ImportModuleLevelObject@Base>
    4426:	68 3f 00 00 00       	push   $0x3f
    442b:	e9 f0 fb ff ff       	jmp    4020 <_init+0x20>

0000000000004430 <PyObject_SetItem@plt>:
    4430:	ff 25 ca 1d 01 00    	jmp    *0x11dca(%rip)        # 16200 <PyObject_SetItem@Base>
    4436:	68 40 00 00 00       	push   $0x40
    443b:	e9 e0 fb ff ff       	jmp    4020 <_init+0x20>

0000000000004440 <PyObject_RichCompare@plt>:
    4440:	ff 25 c2 1d 01 00    	jmp    *0x11dc2(%rip)        # 16208 <PyObject_RichCompare@Base>
    4446:	68 41 00 00 00       	push   $0x41
    444b:	e9 d0 fb ff ff       	jmp    4020 <_init+0x20>

0000000000004450 <PyObject_GetIter@plt>:
    4450:	ff 25 ba 1d 01 00    	jmp    *0x11dba(%rip)        # 16210 <PyObject_GetIter@Base>
    4456:	68 42 00 00 00       	push   $0x42
    445b:	e9 c0 fb ff ff       	jmp    4020 <_init+0x20>

0000000000004460 <PyType_IsSubtype@plt>:
    4460:	ff 25 b2 1d 01 00    	jmp    *0x11db2(%rip)        # 16218 <PyType_IsSubtype@Base>
    4466:	68 43 00 00 00       	push   $0x43
    446b:	e9 b0 fb ff ff       	jmp    4020 <_init+0x20>

0000000000004470 <fputs@plt>:
    4470:	ff 25 aa 1d 01 00    	jmp    *0x11daa(%rip)        # 16220 <fputs@GLIBC_2.2.5>
    4476:	68 44 00 00 00       	push   $0x44
    447b:	e9 a0 fb ff ff       	jmp    4020 <_init+0x20>

0000000000004480 <Py_LeaveRecursiveCall@plt>:
    4480:	ff 25 a2 1d 01 00    	jmp    *0x11da2(%rip)        # 16228 <Py_LeaveRecursiveCall@Base>
    4486:	68 45 00 00 00       	push   $0x45
    448b:	e9 90 fb ff ff       	jmp    4020 <_init+0x20>

0000000000004490 <PyUnicode_Decode@plt>:
    4490:	ff 25 9a 1d 01 00    	jmp    *0x11d9a(%rip)        # 16230 <PyUnicode_Decode@Base>
    4496:	68 46 00 00 00       	push   $0x46
    449b:	e9 80 fb ff ff       	jmp    4020 <_init+0x20>

00000000000044a0 <PyNumber_Add@plt>:
    44a0:	ff 25 92 1d 01 00    	jmp    *0x11d92(%rip)        # 16238 <PyNumber_Add@Base>
    44a6:	68 47 00 00 00       	push   $0x47
    44ab:	e9 70 fb ff ff       	jmp    4020 <_init+0x20>

00000000000044b0 <PyErr_WarnEx@plt>:
    44b0:	ff 25 8a 1d 01 00    	jmp    *0x11d8a(%rip)        # 16240 <PyErr_WarnEx@Base>
    44b6:	68 48 00 00 00       	push   $0x48
    44bb:	e9 60 fb ff ff       	jmp    4020 <_init+0x20>

00000000000044c0 <PyErr_NormalizeException@plt>:
    44c0:	ff 25 82 1d 01 00    	jmp    *0x11d82(%rip)        # 16248 <PyErr_NormalizeException@Base>
    44c6:	68 49 00 00 00       	push   $0x49
    44cb:	e9 50 fb ff ff       	jmp    4020 <_init+0x20>

00000000000044d0 <PyObject_Format@plt>:
    44d0:	ff 25 7a 1d 01 00    	jmp    *0x11d7a(%rip)        # 16250 <PyObject_Format@Base>
    44d6:	68 4a 00 00 00       	push   $0x4a
    44db:	e9 40 fb ff ff       	jmp    4020 <_init+0x20>

00000000000044e0 <PyObject_Hash@plt>:
    44e0:	ff 25 72 1d 01 00    	jmp    *0x11d72(%rip)        # 16258 <PyObject_Hash@Base>
    44e6:	68 4b 00 00 00       	push   $0x4b
    44eb:	e9 30 fb ff ff       	jmp    4020 <_init+0x20>

00000000000044f0 <PyObject_ClearWeakRefs@plt>:
    44f0:	ff 25 6a 1d 01 00    	jmp    *0x11d6a(%rip)        # 16260 <PyObject_ClearWeakRefs@Base>
    44f6:	68 4c 00 00 00       	push   $0x4c
    44fb:	e9 20 fb ff ff       	jmp    4020 <_init+0x20>

0000000000004500 <PyNumber_Subtract@plt>:
    4500:	ff 25 62 1d 01 00    	jmp    *0x11d62(%rip)        # 16268 <PyNumber_Subtract@Base>
    4506:	68 4d 00 00 00       	push   $0x4d
    450b:	e9 10 fb ff ff       	jmp    4020 <_init+0x20>

0000000000004510 <PyObject_GetAttrString@plt>:
    4510:	ff 25 5a 1d 01 00    	jmp    *0x11d5a(%rip)        # 16270 <PyObject_GetAttrString@Base>
    4516:	68 4e 00 00 00       	push   $0x4e
    451b:	e9 00 fb ff ff       	jmp    4020 <_init+0x20>

0000000000004520 <strdup@plt>:
    4520:	ff 25 52 1d 01 00    	jmp    *0x11d52(%rip)        # 16278 <strdup@GLIBC_2.2.5>
    4526:	68 4f 00 00 00       	push   $0x4f
    452b:	e9 f0 fa ff ff       	jmp    4020 <_init+0x20>

0000000000004530 <__stack_chk_fail@plt>:
    4530:	ff 25 4a 1d 01 00    	jmp    *0x11d4a(%rip)        # 16280 <__stack_chk_fail@GLIBC_2.4>
    4536:	68 50 00 00 00       	push   $0x50
    453b:	e9 e0 fa ff ff       	jmp    4020 <_init+0x20>

0000000000004540 <PyObject_SetAttrString@plt>:
    4540:	ff 25 42 1d 01 00    	jmp    *0x11d42(%rip)        # 16288 <PyObject_SetAttrString@Base>
    4546:	68 51 00 00 00       	push   $0x51
    454b:	e9 d0 fa ff ff       	jmp    4020 <_init+0x20>

0000000000004550 <PyList_Append@plt>:
    4550:	ff 25 3a 1d 01 00    	jmp    *0x11d3a(%rip)        # 16290 <PyList_Append@Base>
    4556:	68 52 00 00 00       	push   $0x52
    455b:	e9 c0 fa ff ff       	jmp    4020 <_init+0x20>

0000000000004560 <PyObject_SetAttr@plt>:
    4560:	ff 25 32 1d 01 00    	jmp    *0x11d32(%rip)        # 16298 <PyObject_SetAttr@Base>
    4566:	68 53 00 00 00       	push   $0x53
    456b:	e9 b0 fa ff ff       	jmp    4020 <_init+0x20>

0000000000004570 <PyConfig_Clear@plt>:
    4570:	ff 25 2a 1d 01 00    	jmp    *0x11d2a(%rip)        # 162a0 <PyConfig_Clear@Base>
    4576:	68 54 00 00 00       	push   $0x54
    457b:	e9 a0 fa ff ff       	jmp    4020 <_init+0x20>

0000000000004580 <PyImport_GetModule@plt>:
    4580:	ff 25 22 1d 01 00    	jmp    *0x11d22(%rip)        # 162a8 <PyImport_GetModule@Base>
    4586:	68 55 00 00 00       	push   $0x55
    458b:	e9 90 fa ff ff       	jmp    4020 <_init+0x20>

0000000000004590 <PyVectorcall_Function@plt>:
    4590:	ff 25 1a 1d 01 00    	jmp    *0x11d1a(%rip)        # 162b0 <PyVectorcall_Function@Base>
    4596:	68 56 00 00 00       	push   $0x56
    459b:	e9 80 fa ff ff       	jmp    4020 <_init+0x20>

00000000000045a0 <PyBytes_FromStringAndSize@plt>:
    45a0:	ff 25 12 1d 01 00    	jmp    *0x11d12(%rip)        # 162b8 <PyBytes_FromStringAndSize@Base>
    45a6:	68 57 00 00 00       	push   $0x57
    45ab:	e9 70 fa ff ff       	jmp    4020 <_init+0x20>

00000000000045b0 <PyDict_GetItemString@plt>:
    45b0:	ff 25 0a 1d 01 00    	jmp    *0x11d0a(%rip)        # 162c0 <PyDict_GetItemString@Base>
    45b6:	68 58 00 00 00       	push   $0x58
    45bb:	e9 60 fa ff ff       	jmp    4020 <_init+0x20>

00000000000045c0 <PyObject_Call@plt>:
    45c0:	ff 25 02 1d 01 00    	jmp    *0x11d02(%rip)        # 162c8 <PyObject_Call@Base>
    45c6:	68 59 00 00 00       	push   $0x59
    45cb:	e9 50 fa ff ff       	jmp    4020 <_init+0x20>

00000000000045d0 <PyErr_Print@plt>:
    45d0:	ff 25 fa 1c 01 00    	jmp    *0x11cfa(%rip)        # 162d0 <PyErr_Print@Base>
    45d6:	68 5a 00 00 00       	push   $0x5a
    45db:	e9 40 fa ff ff       	jmp    4020 <_init+0x20>

00000000000045e0 <_PyDict_GetItem_KnownHash@plt>:
    45e0:	ff 25 f2 1c 01 00    	jmp    *0x11cf2(%rip)        # 162d8 <_PyDict_GetItem_KnownHash@Base>
    45e6:	68 5b 00 00 00       	push   $0x5b
    45eb:	e9 30 fa ff ff       	jmp    4020 <_init+0x20>

00000000000045f0 <PyLong_FromLong@plt>:
    45f0:	ff 25 ea 1c 01 00    	jmp    *0x11cea(%rip)        # 162e0 <PyLong_FromLong@Base>
    45f6:	68 5c 00 00 00       	push   $0x5c
    45fb:	e9 20 fa ff ff       	jmp    4020 <_init+0x20>

0000000000004600 <PyTraceBack_Here@plt>:
    4600:	ff 25 e2 1c 01 00    	jmp    *0x11ce2(%rip)        # 162e8 <PyTraceBack_Here@Base>
    4606:	68 5d 00 00 00       	push   $0x5d
    460b:	e9 10 fa ff ff       	jmp    4020 <_init+0x20>

0000000000004610 <PyLong_FromLongLong@plt>:
    4610:	ff 25 da 1c 01 00    	jmp    *0x11cda(%rip)        # 162f0 <PyLong_FromLongLong@Base>
    4616:	68 5e 00 00 00       	push   $0x5e
    461b:	e9 00 fa ff ff       	jmp    4020 <_init+0x20>

0000000000004620 <PyMethod_New@plt>:
    4620:	ff 25 d2 1c 01 00    	jmp    *0x11cd2(%rip)        # 162f8 <PyMethod_New@Base>
    4626:	68 5f 00 00 00       	push   $0x5f
    462b:	e9 f0 f9 ff ff       	jmp    4020 <_init+0x20>

0000000000004630 <memcmp@plt>:
    4630:	ff 25 ca 1c 01 00    	jmp    *0x11cca(%rip)        # 16300 <memcmp@GLIBC_2.2.5>
    4636:	68 60 00 00 00       	push   $0x60
    463b:	e9 e0 f9 ff ff       	jmp    4020 <_init+0x20>

0000000000004640 <PyException_SetTraceback@plt>:
    4640:	ff 25 c2 1c 01 00    	jmp    *0x11cc2(%rip)        # 16308 <PyException_SetTraceback@Base>
    4646:	68 61 00 00 00       	push   $0x61
    464b:	e9 d0 f9 ff ff       	jmp    4020 <_init+0x20>

0000000000004650 <_Py_Dealloc@plt>:
    4650:	ff 25 ba 1c 01 00    	jmp    *0x11cba(%rip)        # 16310 <_Py_Dealloc@Base>
    4656:	68 62 00 00 00       	push   $0x62
    465b:	e9 c0 f9 ff ff       	jmp    4020 <_init+0x20>

0000000000004660 <PyObject_Free@plt>:
    4660:	ff 25 b2 1c 01 00    	jmp    *0x11cb2(%rip)        # 16318 <PyObject_Free@Base>
    4666:	68 63 00 00 00       	push   $0x63
    466b:	e9 b0 f9 ff ff       	jmp    4020 <_init+0x20>

0000000000004670 <PySequence_GetSlice@plt>:
    4670:	ff 25 aa 1c 01 00    	jmp    *0x11caa(%rip)        # 16320 <PySequence_GetSlice@Base>
    4676:	68 64 00 00 00       	push   $0x64
    467b:	e9 a0 f9 ff ff       	jmp    4020 <_init+0x20>

0000000000004680 <PyImport_ImportModule@plt>:
    4680:	ff 25 a2 1c 01 00    	jmp    *0x11ca2(%rip)        # 16328 <PyImport_ImportModule@Base>
    4686:	68 65 00 00 00       	push   $0x65
    468b:	e9 90 f9 ff ff       	jmp    4020 <_init+0x20>

0000000000004690 <PyErr_Clear@plt>:
    4690:	ff 25 9a 1c 01 00    	jmp    *0x11c9a(%rip)        # 16330 <PyErr_Clear@Base>
    4696:	68 66 00 00 00       	push   $0x66
    469b:	e9 80 f9 ff ff       	jmp    4020 <_init+0x20>

00000000000046a0 <PyTuple_New@plt>:
    46a0:	ff 25 92 1c 01 00    	jmp    *0x11c92(%rip)        # 16338 <PyTuple_New@Base>
    46a6:	68 67 00 00 00       	push   $0x67
    46ab:	e9 70 f9 ff ff       	jmp    4020 <_init+0x20>

00000000000046b0 <PyUnicode_New@plt>:
    46b0:	ff 25 8a 1c 01 00    	jmp    *0x11c8a(%rip)        # 16340 <PyUnicode_New@Base>
    46b6:	68 68 00 00 00       	push   $0x68
    46bb:	e9 60 f9 ff ff       	jmp    4020 <_init+0x20>

00000000000046c0 <PyImport_GetModuleDict@plt>:
    46c0:	ff 25 82 1c 01 00    	jmp    *0x11c82(%rip)        # 16348 <PyImport_GetModuleDict@Base>
    46c6:	68 69 00 00 00       	push   $0x69
    46cb:	e9 50 f9 ff ff       	jmp    4020 <_init+0x20>

00000000000046d0 <PyImport_AppendInittab@plt>:
    46d0:	ff 25 7a 1c 01 00    	jmp    *0x11c7a(%rip)        # 16350 <PyImport_AppendInittab@Base>
    46d6:	68 6a 00 00 00       	push   $0x6a
    46db:	e9 40 f9 ff ff       	jmp    4020 <_init+0x20>

00000000000046e0 <PyTuple_GetItem@plt>:
    46e0:	ff 25 72 1c 01 00    	jmp    *0x11c72(%rip)        # 16358 <PyTuple_GetItem@Base>
    46e6:	68 6b 00 00 00       	push   $0x6b
    46eb:	e9 30 f9 ff ff       	jmp    4020 <_init+0x20>

00000000000046f0 <PyLong_FromSsize_t@plt>:
    46f0:	ff 25 6a 1c 01 00    	jmp    *0x11c6a(%rip)        # 16360 <PyLong_FromSsize_t@Base>
    46f6:	68 6c 00 00 00       	push   $0x6c
    46fb:	e9 20 f9 ff ff       	jmp    4020 <_init+0x20>

0000000000004700 <PyErr_SetString@plt>:
    4700:	ff 25 62 1c 01 00    	jmp    *0x11c62(%rip)        # 16368 <PyErr_SetString@Base>
    4706:	68 6d 00 00 00       	push   $0x6d
    470b:	e9 10 f9 ff ff       	jmp    4020 <_init+0x20>

0000000000004710 <PyNumber_TrueDivide@plt>:
    4710:	ff 25 5a 1c 01 00    	jmp    *0x11c5a(%rip)        # 16370 <PyNumber_TrueDivide@Base>
    4716:	68 6e 00 00 00       	push   $0x6e
    471b:	e9 00 f9 ff ff       	jmp    4020 <_init+0x20>

0000000000004720 <PyModuleDef_Init@plt>:
    4720:	ff 25 52 1c 01 00    	jmp    *0x11c52(%rip)        # 16378 <PyModuleDef_Init@Base>
    4726:	68 6f 00 00 00       	push   $0x6f
    472b:	e9 f0 f8 ff ff       	jmp    4020 <_init+0x20>

0000000000004730 <_PyThreadState_UncheckedGet@plt>:
    4730:	ff 25 4a 1c 01 00    	jmp    *0x11c4a(%rip)        # 16380 <_PyThreadState_UncheckedGet@Base>
    4736:	68 70 00 00 00       	push   $0x70
    473b:	e9 e0 f8 ff ff       	jmp    4020 <_init+0x20>

0000000000004740 <PyUnicode_FromStringAndSize@plt>:
    4740:	ff 25 42 1c 01 00    	jmp    *0x11c42(%rip)        # 16388 <PyUnicode_FromStringAndSize@Base>
    4746:	68 71 00 00 00       	push   $0x71
    474b:	e9 d0 f8 ff ff       	jmp    4020 <_init+0x20>

0000000000004750 <setlocale@plt>:
    4750:	ff 25 3a 1c 01 00    	jmp    *0x11c3a(%rip)        # 16390 <setlocale@GLIBC_2.2.5>
    4756:	68 72 00 00 00       	push   $0x72
    475b:	e9 c0 f8 ff ff       	jmp    4020 <_init+0x20>

0000000000004760 <_PyType_Lookup@plt>:
    4760:	ff 25 32 1c 01 00    	jmp    *0x11c32(%rip)        # 16398 <_PyType_Lookup@Base>
    4766:	68 73 00 00 00       	push   $0x73
    476b:	e9 b0 f8 ff ff       	jmp    4020 <_init+0x20>

0000000000004770 <PyList_New@plt>:
    4770:	ff 25 2a 1c 01 00    	jmp    *0x11c2a(%rip)        # 163a0 <PyList_New@Base>
    4776:	68 74 00 00 00       	push   $0x74
    477b:	e9 a0 f8 ff ff       	jmp    4020 <_init+0x20>

0000000000004780 <PyMem_Malloc@plt>:
    4780:	ff 25 22 1c 01 00    	jmp    *0x11c22(%rip)        # 163a8 <PyMem_Malloc@Base>
    4786:	68 75 00 00 00       	push   $0x75
    478b:	e9 90 f8 ff ff       	jmp    4020 <_init+0x20>

0000000000004790 <PyUnicode_AsUTF8@plt>:
    4790:	ff 25 1a 1c 01 00    	jmp    *0x11c1a(%rip)        # 163b0 <PyUnicode_AsUTF8@Base>
    4796:	68 76 00 00 00       	push   $0x76
    479b:	e9 80 f8 ff ff       	jmp    4020 <_init+0x20>

00000000000047a0 <PyObject_GC_Track@plt>:
    47a0:	ff 25 12 1c 01 00    	jmp    *0x11c12(%rip)        # 163b8 <PyObject_GC_Track@Base>
    47a6:	68 77 00 00 00       	push   $0x77
    47ab:	e9 70 f8 ff ff       	jmp    4020 <_init+0x20>

00000000000047b0 <PyDict_SetItem@plt>:
    47b0:	ff 25 0a 1c 01 00    	jmp    *0x11c0a(%rip)        # 163c0 <PyDict_SetItem@Base>
    47b6:	68 78 00 00 00       	push   $0x78
    47bb:	e9 60 f8 ff ff       	jmp    4020 <_init+0x20>

00000000000047c0 <PyConfig_InitPythonConfig@plt>:
    47c0:	ff 25 02 1c 01 00    	jmp    *0x11c02(%rip)        # 163c8 <PyConfig_InitPythonConfig@Base>
    47c6:	68 79 00 00 00       	push   $0x79
    47cb:	e9 50 f8 ff ff       	jmp    4020 <_init+0x20>

00000000000047d0 <PyDict_New@plt>:
    47d0:	ff 25 fa 1b 01 00    	jmp    *0x11bfa(%rip)        # 163d0 <PyDict_New@Base>
    47d6:	68 7a 00 00 00       	push   $0x7a
    47db:	e9 40 f8 ff ff       	jmp    4020 <_init+0x20>

00000000000047e0 <PyException_GetTraceback@plt>:
    47e0:	ff 25 f2 1b 01 00    	jmp    *0x11bf2(%rip)        # 163d8 <PyException_GetTraceback@Base>
    47e6:	68 7b 00 00 00       	push   $0x7b
    47eb:	e9 30 f8 ff ff       	jmp    4020 <_init+0x20>

Дизассемблирование раздела .text:

00000000000047f0 <PyInit_main>:
    47f0:	48 8d 3d 49 21 01 00 	lea    0x12149(%rip),%rdi        # 16940 <__pyx_moduledef>
    47f7:	e9 24 ff ff ff       	jmp    4720 <PyModuleDef_Init@plt>

00000000000047fc <__Pyx__PyBytes_AsDouble_Copy>:
    47fc:	48 89 f0             	mov    %rsi,%rax
    47ff:	41 ba 01 00 00 00    	mov    $0x1,%r10d
    4805:	31 f6                	xor    %esi,%esi
    4807:	49 bb fe ff 7f ff ff 	movabs $0xff7dffffff7ffffe,%r11
    480e:	ff 7d ff 
    4811:	44 8a 04 37          	mov    (%rdi,%rsi,1),%r8b
    4815:	b1 01                	mov    $0x1,%cl
    4817:	45 8d 48 d2          	lea    -0x2e(%r8),%r9d
    481b:	41 80 f9 37          	cmp    $0x37,%r9b
    481f:	77 07                	ja     4828 <__Pyx__PyBytes_AsDouble_Copy+0x2c>
    4821:	4d 0f a3 cb          	bt     %r9,%r11
    4825:	0f 92 c1             	setb   %cl
    4828:	83 f1 01             	xor    $0x1,%ecx
    482b:	41 80 f8 5f          	cmp    $0x5f,%r8b
    482f:	44 88 00             	mov    %r8b,(%rax)
    4832:	41 0f 95 c0          	setne  %r8b
    4836:	44 0f b6 c9          	movzbl %cl,%r9d
    483a:	45 0f b6 c0          	movzbl %r8b,%r8d
    483e:	4c 01 c0             	add    %r8,%rax
    4841:	45 85 d1             	test   %r10d,%r9d
    4844:	75 15                	jne    485b <__Pyx__PyBytes_AsDouble_Copy+0x5f>
    4846:	48 ff c6             	inc    %rsi
    4849:	48 39 f2             	cmp    %rsi,%rdx
    484c:	74 05                	je     4853 <__Pyx__PyBytes_AsDouble_Copy+0x57>
    484e:	45 89 ca             	mov    %r9d,%r10d
    4851:	eb be                	jmp    4811 <__Pyx__PyBytes_AsDouble_Copy+0x15>
    4853:	84 c9                	test   %cl,%cl
    4855:	75 04                	jne    485b <__Pyx__PyBytes_AsDouble_Copy+0x5f>
    4857:	c6 00 00             	movb   $0x0,(%rax)
    485a:	c3                   	ret
    485b:	31 c0                	xor    %eax,%eax
    485d:	c3                   	ret

000000000000485e <__Pyx_copy_spec_to_module>:
    485e:	41 56                	push   %r14
    4860:	45 89 c6             	mov    %r8d,%r14d
    4863:	41 55                	push   %r13
    4865:	49 89 cd             	mov    %rcx,%r13
    4868:	41 54                	push   %r12
    486a:	49 89 f4             	mov    %rsi,%r12
    486d:	48 89 d6             	mov    %rdx,%rsi
    4870:	55                   	push   %rbp
    4871:	53                   	push   %rbx
    4872:	e8 99 fc ff ff       	call   4510 <PyObject_GetAttrString@plt>
    4877:	48 85 c0             	test   %rax,%rax
    487a:	74 40                	je     48bc <__Pyx_copy_spec_to_module+0x5e>
    487c:	48 89 c3             	mov    %rax,%rbx
    487f:	48 8d 05 9a 31 01 00 	lea    0x1319a(%rip),%rax        # 17a20 <_Py_NoneStruct@@Base>
    4886:	48 39 c3             	cmp    %rax,%rbx
    4889:	75 08                	jne    4893 <__Pyx_copy_spec_to_module+0x35>
    488b:	31 ed                	xor    %ebp,%ebp
    488d:	41 83 e6 01          	and    $0x1,%r14d
    4891:	74 10                	je     48a3 <__Pyx_copy_spec_to_module+0x45>
    4893:	48 89 da             	mov    %rbx,%rdx
    4896:	4c 89 ee             	mov    %r13,%rsi
    4899:	4c 89 e7             	mov    %r12,%rdi
    489c:	e8 af f7 ff ff       	call   4050 <PyDict_SetItemString@plt>
    48a1:	89 c5                	mov    %eax,%ebp
    48a3:	48 8b 03             	mov    (%rbx),%rax
    48a6:	85 c0                	test   %eax,%eax
    48a8:	78 2c                	js     48d6 <__Pyx_copy_spec_to_module+0x78>
    48aa:	48 ff c8             	dec    %rax
    48ad:	48 89 03             	mov    %rax,(%rbx)
    48b0:	75 24                	jne    48d6 <__Pyx_copy_spec_to_module+0x78>
    48b2:	48 89 df             	mov    %rbx,%rdi
    48b5:	e8 96 fd ff ff       	call   4650 <_Py_Dealloc@plt>
    48ba:	eb 1a                	jmp    48d6 <__Pyx_copy_spec_to_module+0x78>
    48bc:	48 8b 3d 75 31 01 00 	mov    0x13175(%rip),%rdi        # 17a38 <PyExc_AttributeError@@Base>
    48c3:	83 cd ff             	or     $0xffffffff,%ebp
    48c6:	e8 15 fa ff ff       	call   42e0 <PyErr_ExceptionMatches@plt>
    48cb:	85 c0                	test   %eax,%eax
    48cd:	74 07                	je     48d6 <__Pyx_copy_spec_to_module+0x78>
    48cf:	e8 bc fd ff ff       	call   4690 <PyErr_Clear@plt>
    48d4:	31 ed                	xor    %ebp,%ebp
    48d6:	5b                   	pop    %rbx
    48d7:	89 e8                	mov    %ebp,%eax
    48d9:	5d                   	pop    %rbp
    48da:	41 5c                	pop    %r12
    48dc:	41 5d                	pop    %r13
    48de:	41 5e                	pop    %r14
    48e0:	c3                   	ret

00000000000048e1 <__pyx_pymod_create>:
    48e1:	41 55                	push   %r13
    48e3:	41 54                	push   %r12
    48e5:	55                   	push   %rbp
    48e6:	48 89 fd             	mov    %rdi,%rbp
    48e9:	53                   	push   %rbx
    48ea:	51                   	push   %rcx
    48eb:	e8 d0 fa ff ff       	call   43c0 <PyThreadState_Get@plt>
    48f0:	48 8b 78 10          	mov    0x10(%rax),%rdi
    48f4:	e8 47 f7 ff ff       	call   4040 <PyInterpreterState_GetID@plt>
    48f9:	48 8b 15 f0 1a 01 00 	mov    0x11af0(%rip),%rdx        # 163f0 <main_interpreter_id.0>
    4900:	48 83 fa ff          	cmp    $0xffffffffffffffff,%rdx
    4904:	75 12                	jne    4918 <__pyx_pymod_create+0x37>
    4906:	48 89 05 e3 1a 01 00 	mov    %rax,0x11ae3(%rip)        # 163f0 <main_interpreter_id.0>
    490d:	48 ff c0             	inc    %rax
    4910:	0f 84 2f 01 00 00    	je     4a45 <__pyx_pymod_create+0x164>
    4916:	eb 1d                	jmp    4935 <__pyx_pymod_create+0x54>
    4918:	48 39 d0             	cmp    %rdx,%rax
    491b:	74 18                	je     4935 <__pyx_pymod_create+0x54>
    491d:	48 8b 3d 7c 21 01 00 	mov    0x1217c(%rip),%rdi        # 16aa0 <PyExc_ImportError@@Base>
    4924:	48 8d 35 c5 d8 00 00 	lea    0xd8c5(%rip),%rsi        # 121f0 <_IO_stdin_used+0x1f0>
    492b:	e8 d0 fd ff ff       	call   4700 <PyErr_SetString@plt>
    4930:	e9 10 01 00 00       	jmp    4a45 <__pyx_pymod_create+0x164>
    4935:	4c 8b 2d 64 37 01 00 	mov    0x13764(%rip),%r13        # 180a0 <__pyx_m>
    493c:	4d 85 ed             	test   %r13,%r13
    493f:	74 14                	je     4955 <__pyx_pymod_create+0x74>
    4941:	41 8b 45 00          	mov    0x0(%r13),%eax
    4945:	ff c0                	inc    %eax
    4947:	74 04                	je     494d <__pyx_pymod_create+0x6c>
    4949:	41 89 45 00          	mov    %eax,0x0(%r13)
    494d:	4c 89 eb             	mov    %r13,%rbx
    4950:	e9 f2 00 00 00       	jmp    4a47 <__pyx_pymod_create+0x166>
    4955:	48 8d 35 90 e2 00 00 	lea    0xe290(%rip),%rsi        # 12bec <_IO_stdin_used+0xbec>
    495c:	48 89 ef             	mov    %rbp,%rdi
    495f:	e8 ac fb ff ff       	call   4510 <PyObject_GetAttrString@plt>
    4964:	49 89 c4             	mov    %rax,%r12
    4967:	48 85 c0             	test   %rax,%rax
    496a:	0f 84 cd 00 00 00    	je     4a3d <__pyx_pymod_create+0x15c>
    4970:	48 89 c7             	mov    %rax,%rdi
    4973:	e8 18 f7 ff ff       	call   4090 <PyModule_NewObject@plt>
    4978:	48 89 c3             	mov    %rax,%rbx
    497b:	49 8b 04 24          	mov    (%r12),%rax
    497f:	85 c0                	test   %eax,%eax
    4981:	78 11                	js     4994 <__pyx_pymod_create+0xb3>
    4983:	48 ff c8             	dec    %rax
    4986:	49 89 04 24          	mov    %rax,(%r12)
    498a:	75 08                	jne    4994 <__pyx_pymod_create+0xb3>
    498c:	4c 89 e7             	mov    %r12,%rdi
    498f:	e8 bc fc ff ff       	call   4650 <_Py_Dealloc@plt>
    4994:	48 85 db             	test   %rbx,%rbx
    4997:	0f 84 a0 00 00 00    	je     4a3d <__pyx_pymod_create+0x15c>
    499d:	48 89 df             	mov    %rbx,%rdi
    49a0:	e8 5b fa ff ff       	call   4400 <PyModule_GetDict@plt>
    49a5:	49 89 c4             	mov    %rax,%r12
    49a8:	48 85 c0             	test   %rax,%rax
    49ab:	74 23                	je     49d0 <__pyx_pymod_create+0xef>
    49ad:	41 b8 01 00 00 00    	mov    $0x1,%r8d
    49b3:	48 8d 0d 95 d8 00 00 	lea    0xd895(%rip),%rcx        # 1224f <_IO_stdin_used+0x24f>
    49ba:	48 89 c6             	mov    %rax,%rsi
    49bd:	48 89 ef             	mov    %rbp,%rdi
    49c0:	48 8d 15 93 d8 00 00 	lea    0xd893(%rip),%rdx        # 1225a <_IO_stdin_used+0x25a>
    49c7:	e8 92 fe ff ff       	call   485e <__Pyx_copy_spec_to_module>
    49cc:	85 c0                	test   %eax,%eax
    49ce:	79 05                	jns    49d5 <__pyx_pymod_create+0xf4>
    49d0:	49 89 dd             	mov    %rbx,%r13
    49d3:	eb 68                	jmp    4a3d <__pyx_pymod_create+0x15c>
    49d5:	41 b8 01 00 00 00    	mov    $0x1,%r8d
    49db:	48 8d 0d 7f d8 00 00 	lea    0xd87f(%rip),%rcx        # 12261 <_IO_stdin_used+0x261>
    49e2:	4c 89 e6             	mov    %r12,%rsi
    49e5:	48 89 ef             	mov    %rbp,%rdi
    49e8:	48 8d 15 7b d8 00 00 	lea    0xd87b(%rip),%rdx        # 1226a <_IO_stdin_used+0x26a>
    49ef:	e8 6a fe ff ff       	call   485e <__Pyx_copy_spec_to_module>
    49f4:	85 c0                	test   %eax,%eax
    49f6:	78 d8                	js     49d0 <__pyx_pymod_create+0xef>
    49f8:	41 b8 01 00 00 00    	mov    $0x1,%r8d
    49fe:	48 8d 0d 6c d8 00 00 	lea    0xd86c(%rip),%rcx        # 12271 <_IO_stdin_used+0x271>
    4a05:	4c 89 e6             	mov    %r12,%rsi
    4a08:	48 89 ef             	mov    %rbp,%rdi
    4a0b:	48 8d 15 6b d8 00 00 	lea    0xd86b(%rip),%rdx        # 1227d <_IO_stdin_used+0x27d>
    4a12:	e8 47 fe ff ff       	call   485e <__Pyx_copy_spec_to_module>
    4a17:	85 c0                	test   %eax,%eax
    4a19:	78 b5                	js     49d0 <__pyx_pymod_create+0xef>
    4a1b:	45 31 c0             	xor    %r8d,%r8d
    4a1e:	48 8d 0d 5f d8 00 00 	lea    0xd85f(%rip),%rcx        # 12284 <_IO_stdin_used+0x284>
    4a25:	4c 89 e6             	mov    %r12,%rsi
    4a28:	48 89 ef             	mov    %rbp,%rdi
    4a2b:	48 8d 15 5b d8 00 00 	lea    0xd85b(%rip),%rdx        # 1228d <_IO_stdin_used+0x28d>
    4a32:	e8 27 fe ff ff       	call   485e <__Pyx_copy_spec_to_module>
    4a37:	85 c0                	test   %eax,%eax
    4a39:	78 95                	js     49d0 <__pyx_pymod_create+0xef>
    4a3b:	eb 0a                	jmp    4a47 <__pyx_pymod_create+0x166>
    4a3d:	4c 89 ef             	mov    %r13,%rdi
    4a40:	e8 59 6c 00 00       	call   b69e <Py_XDECREF>
    4a45:	31 db                	xor    %ebx,%ebx
    4a47:	5a                   	pop    %rdx
    4a48:	48 89 d8             	mov    %rbx,%rax
    4a4b:	5b                   	pop    %rbx
    4a4c:	5d                   	pop    %rbp
    4a4d:	41 5c                	pop    %r12
    4a4f:	41 5d                	pop    %r13
    4a51:	c3                   	ret

0000000000004a52 <__Pyx__PyUnicode_AsDouble_Copy>:
    4a52:	41 57                	push   %r15
    4a54:	4d 89 c7             	mov    %r8,%r15
    4a57:	41 56                	push   %r14
    4a59:	41 be 01 00 00 00    	mov    $0x1,%r14d
    4a5f:	41 55                	push   %r13
    4a61:	41 89 f5             	mov    %esi,%r13d
    4a64:	41 54                	push   %r12
    4a66:	49 89 fc             	mov    %rdi,%r12
    4a69:	55                   	push   %rbp
    4a6a:	48 89 cd             	mov    %rcx,%rbp
    4a6d:	53                   	push   %rbx
    4a6e:	48 89 d3             	mov    %rdx,%rbx
    4a71:	41 51                	push   %r9
    4a73:	4c 39 fd             	cmp    %r15,%rbp
    4a76:	7f 42                	jg     4aba <__Pyx__PyUnicode_AsDouble_Copy+0x68>
    4a78:	48 89 ea             	mov    %rbp,%rdx
    4a7b:	4c 89 e6             	mov    %r12,%rsi
    4a7e:	44 89 ef             	mov    %r13d,%edi
    4a81:	e8 bd 76 00 00       	call   c143 <PyUnicode_READ>
    4a86:	83 f8 5f             	cmp    $0x5f,%eax
    4a89:	88 03                	mov    %al,(%rbx)
    4a8b:	0f 94 c2             	sete   %dl
    4a8e:	83 f8 2e             	cmp    $0x2e,%eax
    4a91:	0f 94 c1             	sete   %cl
    4a94:	09 ca                	or     %ecx,%edx
    4a96:	31 c9                	xor    %ecx,%ecx
    4a98:	83 f8 5f             	cmp    $0x5f,%eax
    4a9b:	0f 95 c1             	setne  %cl
    4a9e:	0f b6 d2             	movzbl %dl,%edx
    4aa1:	48 01 cb             	add    %rcx,%rbx
    4aa4:	83 f8 7f             	cmp    $0x7f,%eax
    4aa7:	76 04                	jbe    4aad <__Pyx__PyUnicode_AsDouble_Copy+0x5b>
    4aa9:	31 db                	xor    %ebx,%ebx
    4aab:	eb 15                	jmp    4ac2 <__Pyx__PyUnicode_AsDouble_Copy+0x70>
    4aad:	41 85 d6             	test   %edx,%r14d
    4ab0:	75 f7                	jne    4aa9 <__Pyx__PyUnicode_AsDouble_Copy+0x57>
    4ab2:	48 ff c5             	inc    %rbp
    4ab5:	41 89 d6             	mov    %edx,%r14d
    4ab8:	eb b9                	jmp    4a73 <__Pyx__PyUnicode_AsDouble_Copy+0x21>
    4aba:	45 85 f6             	test   %r14d,%r14d
    4abd:	75 ea                	jne    4aa9 <__Pyx__PyUnicode_AsDouble_Copy+0x57>
    4abf:	c6 03 00             	movb   $0x0,(%rbx)
    4ac2:	5a                   	pop    %rdx
    4ac3:	48 89 d8             	mov    %rbx,%rax
    4ac6:	5b                   	pop    %rbx
    4ac7:	5d                   	pop    %rbp
    4ac8:	41 5c                	pop    %r12
    4aca:	41 5d                	pop    %r13
    4acc:	41 5e                	pop    %r14
    4ace:	41 5f                	pop    %r15
    4ad0:	c3                   	ret

0000000000004ad1 <__Pyx__PyObject_LookupSpecial.constprop.0>:
    4ad1:	41 55                	push   %r13
    4ad3:	41 54                	push   %r12
    4ad5:	49 89 fc             	mov    %rdi,%r12
    4ad8:	53                   	push   %rbx
    4ad9:	48 83 ec 10          	sub    $0x10,%rsp
    4add:	4c 8b 6f 08          	mov    0x8(%rdi),%r13
    4ae1:	48 89 74 24 08       	mov    %rsi,0x8(%rsp)
    4ae6:	4c 89 ef             	mov    %r13,%rdi
    4ae9:	e8 72 fc ff ff       	call   4760 <_PyType_Lookup@plt>
    4aee:	48 8b 74 24 08       	mov    0x8(%rsp),%rsi
    4af3:	48 85 c0             	test   %rax,%rax
    4af6:	48 89 c3             	mov    %rax,%rbx
    4af9:	74 2e                	je     4b29 <__Pyx__PyObject_LookupSpecial.constprop.0+0x58>
    4afb:	48 8b 40 08          	mov    0x8(%rax),%rax
    4aff:	48 8b 80 10 01 00 00 	mov    0x110(%rax),%rax
    4b06:	48 85 c0             	test   %rax,%rax
    4b09:	75 0a                	jne    4b15 <__Pyx__PyObject_LookupSpecial.constprop.0+0x44>
    4b0b:	8b 03                	mov    (%rbx),%eax
    4b0d:	ff c0                	inc    %eax
    4b0f:	74 24                	je     4b35 <__Pyx__PyObject_LookupSpecial.constprop.0+0x64>
    4b11:	89 03                	mov    %eax,(%rbx)
    4b13:	eb 20                	jmp    4b35 <__Pyx__PyObject_LookupSpecial.constprop.0+0x64>
    4b15:	48 83 c4 10          	add    $0x10,%rsp
    4b19:	4c 89 ea             	mov    %r13,%rdx
    4b1c:	4c 89 e6             	mov    %r12,%rsi
    4b1f:	48 89 df             	mov    %rbx,%rdi
    4b22:	5b                   	pop    %rbx
    4b23:	41 5c                	pop    %r12
    4b25:	41 5d                	pop    %r13
    4b27:	ff e0                	jmp    *%rax
    4b29:	48 8b 3d 08 2f 01 00 	mov    0x12f08(%rip),%rdi        # 17a38 <PyExc_AttributeError@@Base>
    4b30:	e8 1b f8 ff ff       	call   4350 <PyErr_SetObject@plt>
    4b35:	48 83 c4 10          	add    $0x10,%rsp
    4b39:	48 89 d8             	mov    %rbx,%rax
    4b3c:	5b                   	pop    %rbx
    4b3d:	41 5c                	pop    %r12
    4b3f:	41 5d                	pop    %r13
    4b41:	c3                   	ret

0000000000004b42 <__Pyx_PyCode_New.constprop.0>:
    4b42:	41 57                	push   %r15
    4b44:	41 56                	push   %r14
    4b46:	49 89 ce             	mov    %rcx,%r14
    4b49:	41 55                	push   %r13
    4b4b:	49 89 d5             	mov    %rdx,%r13
    4b4e:	41 54                	push   %r12
    4b50:	41 89 f4             	mov    %esi,%r12d
    4b53:	31 f6                	xor    %esi,%esi
    4b55:	55                   	push   %rbp
    4b56:	89 fd                	mov    %edi,%ebp
    4b58:	48 8d 3d 4e dc 00 00 	lea    0xdc4e(%rip),%rdi        # 127ad <_IO_stdin_used+0x7ad>
    4b5f:	53                   	push   %rbx
    4b60:	48 83 ec 18          	sub    $0x18,%rsp
    4b64:	4c 89 44 24 08       	mov    %r8,0x8(%rsp)
    4b69:	4c 8b 7c 24 68       	mov    0x68(%rsp),%r15
    4b6e:	4c 89 0c 24          	mov    %r9,(%rsp)
    4b72:	e8 29 fa ff ff       	call   45a0 <PyBytes_FromStringAndSize@plt>
    4b77:	48 89 c3             	mov    %rax,%rbx
    4b7a:	48 85 c0             	test   %rax,%rax
    4b7d:	74 77                	je     4bf6 <__Pyx_PyCode_New.constprop.0+0xb4>
    4b7f:	50                   	push   %rax
    4b80:	31 d2                	xor    %edx,%edx
    4b82:	89 ef                	mov    %ebp,%edi
    4b84:	44 89 e1             	mov    %r12d,%ecx
    4b87:	ff b4 24 80 00 00 00 	push   0x80(%rsp)
    4b8e:	8b 84 24 80 00 00 00 	mov    0x80(%rsp),%eax
    4b95:	31 f6                	xor    %esi,%esi
    4b97:	50                   	push   %rax
    4b98:	41 57                	push   %r15
    4b9a:	41 57                	push   %r15
    4b9c:	ff b4 24 88 00 00 00 	push   0x88(%rsp)
    4ba3:	ff b4 24 88 00 00 00 	push   0x88(%rsp)
    4baa:	ff b4 24 88 00 00 00 	push   0x88(%rsp)
    4bb1:	4c 8b 4c 24 40       	mov    0x40(%rsp),%r9
    4bb6:	41 51                	push   %r9
    4bb8:	4c 8b 44 24 50       	mov    0x50(%rsp),%r8
    4bbd:	41 b9 03 00 00 00    	mov    $0x3,%r9d
    4bc3:	41 50                	push   %r8
    4bc5:	45 31 c0             	xor    %r8d,%r8d
    4bc8:	41 56                	push   %r14
    4bca:	41 55                	push   %r13
    4bcc:	e8 2f f6 ff ff       	call   4200 <PyUnstable_Code_NewWithPosOnlyArgs@plt>
    4bd1:	48 8b 13             	mov    (%rbx),%rdx
    4bd4:	48 83 c4 60          	add    $0x60,%rsp
    4bd8:	48 89 c5             	mov    %rax,%rbp
    4bdb:	85 d2                	test   %edx,%edx
    4bdd:	78 08                	js     4be7 <__Pyx_PyCode_New.constprop.0+0xa5>
    4bdf:	48 ff ca             	dec    %rdx
    4be2:	48 89 13             	mov    %rdx,(%rbx)
    4be5:	74 05                	je     4bec <__Pyx_PyCode_New.constprop.0+0xaa>
    4be7:	48 89 eb             	mov    %rbp,%rbx
    4bea:	eb 0a                	jmp    4bf6 <__Pyx_PyCode_New.constprop.0+0xb4>
    4bec:	48 89 df             	mov    %rbx,%rdi
    4bef:	e8 5c fa ff ff       	call   4650 <_Py_Dealloc@plt>
    4bf4:	eb f1                	jmp    4be7 <__Pyx_PyCode_New.constprop.0+0xa5>
    4bf6:	48 83 c4 18          	add    $0x18,%rsp
    4bfa:	48 89 d8             	mov    %rbx,%rax
    4bfd:	5b                   	pop    %rbx
    4bfe:	5d                   	pop    %rbp
    4bff:	41 5c                	pop    %r12
    4c01:	41 5d                	pop    %r13
    4c03:	41 5e                	pop    %r14
    4c05:	41 5f                	pop    %r15
    4c07:	c3                   	ret

0000000000004c08 <__Pyx_SlowPyString_AsDouble>:
    4c08:	53                   	push   %rbx
    4c09:	48 83 ec 10          	sub    $0x10,%rsp
    4c0d:	e8 9e f5 ff ff       	call   41b0 <PyFloat_FromString@plt>
    4c12:	f2 0f 10 05 36 ea 00 	movsd  0xea36(%rip),%xmm0        # 13650 <__pyx_k_1+0x2>
    4c19:	00 
    4c1a:	48 85 c0             	test   %rax,%rax
    4c1d:	74 2e                	je     4c4d <__Pyx_SlowPyString_AsDouble+0x45>
    4c1f:	48 89 c3             	mov    %rax,%rbx
    4c22:	48 89 c7             	mov    %rax,%rdi
    4c25:	e8 b7 7a 00 00       	call   c6e1 <PyFloat_AS_DOUBLE>
    4c2a:	48 8b 03             	mov    (%rbx),%rax
    4c2d:	85 c0                	test   %eax,%eax
    4c2f:	78 1c                	js     4c4d <__Pyx_SlowPyString_AsDouble+0x45>
    4c31:	48 ff c8             	dec    %rax
    4c34:	48 89 03             	mov    %rax,(%rbx)
    4c37:	75 14                	jne    4c4d <__Pyx_SlowPyString_AsDouble+0x45>
    4c39:	48 89 df             	mov    %rbx,%rdi
    4c3c:	f2 0f 11 44 24 08    	movsd  %xmm0,0x8(%rsp)
    4c42:	e8 09 fa ff ff       	call   4650 <_Py_Dealloc@plt>
    4c47:	f2 0f 10 44 24 08    	movsd  0x8(%rsp),%xmm0
    4c4d:	48 83 c4 10          	add    $0x10,%rsp
    4c51:	5b                   	pop    %rbx
    4c52:	c3                   	ret

0000000000004c53 <__Pyx_PyFloat_TrueDivideObjC.constprop.0>:
    4c53:	53                   	push   %rbx
    4c54:	48 8d 15 45 25 01 00 	lea    0x12545(%rip),%rdx        # 171a0 <PyFloat_Type@@Base>
    4c5b:	48 83 ec 10          	sub    $0x10,%rsp
    4c5f:	48 8b 47 08          	mov    0x8(%rdi),%rax
    4c63:	48 39 d0             	cmp    %rdx,%rax
    4c66:	75 0a                	jne    4c72 <__Pyx_PyFloat_TrueDivideObjC.constprop.0+0x1f>
    4c68:	e8 74 7a 00 00       	call   c6e1 <PyFloat_AS_DOUBLE>
    4c6d:	e9 c7 00 00 00       	jmp    4d39 <__Pyx_PyFloat_TrueDivideObjC.constprop.0+0xe6>
    4c72:	48 8d 15 07 2c 01 00 	lea    0x12c07(%rip),%rdx        # 17880 <PyLong_Type@@Base>
    4c79:	48 39 d0             	cmp    %rdx,%rax
    4c7c:	0f 85 ad 00 00 00    	jne    4d2f <__Pyx_PyFloat_TrueDivideObjC.constprop.0+0xdc>
    4c82:	48 8b 5f 10          	mov    0x10(%rdi),%rbx
    4c86:	0f 57 c0             	xorps  %xmm0,%xmm0
    4c89:	f6 c3 01             	test   $0x1,%bl
    4c8c:	0f 85 a7 00 00 00    	jne    4d39 <__Pyx_PyFloat_TrueDivideObjC.constprop.0+0xe6>
    4c92:	48 89 7c 24 08       	mov    %rdi,0x8(%rsp)
    4c97:	e8 08 75 00 00       	call   c1a4 <_PyLong_IsCompact>
    4c9c:	48 8b 7c 24 08       	mov    0x8(%rsp),%rdi
    4ca1:	85 c0                	test   %eax,%eax
    4ca3:	74 0f                	je     4cb4 <__Pyx_PyFloat_TrueDivideObjC.constprop.0+0x61>
    4ca5:	e8 32 75 00 00       	call   c1dc <_PyLong_CompactValue>
    4caa:	f2 48 0f 2a c0       	cvtsi2sd %rax,%xmm0
    4caf:	e9 85 00 00 00       	jmp    4d39 <__Pyx_PyFloat_TrueDivideObjC.constprop.0+0xe6>
    4cb4:	48 89 da             	mov    %rbx,%rdx
    4cb7:	b8 01 00 00 00       	mov    $0x1,%eax
    4cbc:	48 c1 eb 03          	shr    $0x3,%rbx
    4cc0:	83 e2 03             	and    $0x3,%edx
    4cc3:	48 29 d0             	sub    %rdx,%rax
    4cc6:	48 0f af c3          	imul   %rbx,%rax
    4cca:	48 8d 50 02          	lea    0x2(%rax),%rdx
    4cce:	48 f7 c2 fb ff ff ff 	test   $0xfffffffffffffffb,%rdx
    4cd5:	75 2f                	jne    4d06 <__Pyx_PyFloat_TrueDivideObjC.constprop.0+0xb3>
    4cd7:	8b 57 1c             	mov    0x1c(%rdi),%edx
    4cda:	8b 4f 18             	mov    0x18(%rdi),%ecx
    4cdd:	f2 0f 10 0d 73 e9 00 	movsd  0xe973(%rip),%xmm1        # 13658 <__pyx_k_1+0xa>
    4ce4:	00 
    4ce5:	48 c1 e2 1e          	shl    $0x1e,%rdx
    4ce9:	48 09 ca             	or     %rcx,%rdx
    4cec:	f2 48 0f 2a c2       	cvtsi2sd %rdx,%xmm0
    4cf1:	66 0f 2f c8          	comisd %xmm0,%xmm1
    4cf5:	76 0f                	jbe    4d06 <__Pyx_PyFloat_TrueDivideObjC.constprop.0+0xb3>
    4cf7:	48 83 f8 fe          	cmp    $0xfffffffffffffffe,%rax
    4cfb:	75 3c                	jne    4d39 <__Pyx_PyFloat_TrueDivideObjC.constprop.0+0xe6>
    4cfd:	0f 57 05 8c e9 00 00 	xorps  0xe98c(%rip),%xmm0        # 13690 <__pyx_k_1+0x42>
    4d04:	eb 33                	jmp    4d39 <__Pyx_PyFloat_TrueDivideObjC.constprop.0+0xe6>
    4d06:	e8 25 f6 ff ff       	call   4330 <PyLong_AsDouble@plt>
    4d0b:	66 0f 2e 05 3d e9 00 	ucomisd 0xe93d(%rip),%xmm0        # 13650 <__pyx_k_1+0x2>
    4d12:	00 
    4d13:	7a 24                	jp     4d39 <__Pyx_PyFloat_TrueDivideObjC.constprop.0+0xe6>
    4d15:	75 22                	jne    4d39 <__Pyx_PyFloat_TrueDivideObjC.constprop.0+0xe6>
    4d17:	f2 0f 11 44 24 08    	movsd  %xmm0,0x8(%rsp)
    4d1d:	e8 ce f5 ff ff       	call   42f0 <PyErr_Occurred@plt>
    4d22:	f2 0f 10 44 24 08    	movsd  0x8(%rsp),%xmm0
    4d28:	48 85 c0             	test   %rax,%rax
    4d2b:	74 0c                	je     4d39 <__Pyx_PyFloat_TrueDivideObjC.constprop.0+0xe6>
    4d2d:	eb 1c                	jmp    4d4b <__Pyx_PyFloat_TrueDivideObjC.constprop.0+0xf8>
    4d2f:	48 83 c4 10          	add    $0x10,%rsp
    4d33:	5b                   	pop    %rbx
    4d34:	e9 d7 f9 ff ff       	jmp    4710 <PyNumber_TrueDivide@plt>
    4d39:	f2 0f 5e 05 1f e9 00 	divsd  0xe91f(%rip),%xmm0        # 13660 <__pyx_k_1+0x12>
    4d40:	00 
    4d41:	48 83 c4 10          	add    $0x10,%rsp
    4d45:	5b                   	pop    %rbx
    4d46:	e9 55 f5 ff ff       	jmp    42a0 <PyFloat_FromDouble@plt>
    4d4b:	48 83 c4 10          	add    $0x10,%rsp
    4d4f:	31 c0                	xor    %eax,%eax
    4d51:	5b                   	pop    %rbx
    4d52:	c3                   	ret

0000000000004d53 <__Pyx_CreateStringTabAndInitStrings.isra.0>:
    4d53:	55                   	push   %rbp
    4d54:	31 d2                	xor    %edx,%edx
    4d56:	31 c9                	xor    %ecx,%ecx
    4d58:	31 f6                	xor    %esi,%esi
    4d5a:	53                   	push   %rbx
    4d5b:	31 ff                	xor    %edi,%edi
    4d5d:	45 31 c0             	xor    %r8d,%r8d
    4d60:	45 31 c9             	xor    %r9d,%r9d
    4d63:	45 31 d2             	xor    %r10d,%r10d
    4d66:	45 31 db             	xor    %r11d,%r11d
    4d69:	31 db                	xor    %ebx,%ebx
    4d6b:	31 ed                	xor    %ebp,%ebp
    4d6d:	48 81 ec 08 10 00 00 	sub    $0x1008,%rsp
    4d74:	64 48 8b 04 25 28 00 	mov    %fs:0x28,%rax
    4d7b:	00 00 
    4d7d:	48 89 84 24 f8 0f 00 	mov    %rax,0xff8(%rsp)
    4d84:	00 
    4d85:	48 8d 05 0c 2f 01 00 	lea    0x12f0c(%rip),%rax        # 17c98 <__pyx_mstate_global_static+0x38>
    4d8c:	48 89 54 24 48       	mov    %rdx,0x48(%rsp)
    4d91:	31 d2                	xor    %edx,%edx
    4d93:	48 89 4c 24 70       	mov    %rcx,0x70(%rsp)
    4d98:	31 c9                	xor    %ecx,%ecx
    4d9a:	48 89 b4 24 98 00 00 	mov    %rsi,0x98(%rsp)
    4da1:	00 
    4da2:	31 f6                	xor    %esi,%esi
    4da4:	48 c7 44 24 18 02 00 	movq   $0x2,0x18(%rsp)
    4dab:	00 00 
    4dad:	66 c7 44 24 28 00 01 	movw   $0x100,0x28(%rsp)
    4db4:	c6 44 24 2a 00       	movb   $0x0,0x2a(%rsp)
    4db9:	48 89 44 24 08       	mov    %rax,0x8(%rsp)
    4dbe:	48 8d 05 89 e8 00 00 	lea    0xe889(%rip),%rax        # 1364e <__pyx_k_1>
    4dc5:	48 89 44 24 10       	mov    %rax,0x10(%rsp)
    4dca:	31 c0                	xor    %eax,%eax
    4dcc:	48 89 44 24 20       	mov    %rax,0x20(%rsp)
    4dd1:	48 8d 05 c8 2e 01 00 	lea    0x12ec8(%rip),%rax        # 17ca0 <__pyx_mstate_global_static+0x40>
    4dd8:	48 89 44 24 30       	mov    %rax,0x30(%rsp)
    4ddd:	48 8d 05 68 e8 00 00 	lea    0xe868(%rip),%rax        # 1364c <__pyx_k_2>
    4de4:	48 89 44 24 38       	mov    %rax,0x38(%rsp)
    4de9:	48 8d 05 b8 2e 01 00 	lea    0x12eb8(%rip),%rax        # 17ca8 <__pyx_mstate_global_static+0x48>
    4df0:	48 89 44 24 58       	mov    %rax,0x58(%rsp)
    4df5:	48 8d 05 e4 e5 00 00 	lea    0xe5e4(%rip),%rax        # 133e0 <__pyx_k_Connected_to>
    4dfc:	48 89 44 24 60       	mov    %rax,0x60(%rsp)
    4e01:	48 8d 05 a8 2e 01 00 	lea    0x12ea8(%rip),%rax        # 17cb0 <__pyx_mstate_global_static+0x50>
    4e08:	48 89 84 24 80 00 00 	mov    %rax,0x80(%rsp)
    4e0f:	00 
    4e10:	48 8d 05 19 e4 00 00 	lea    0xe419(%rip),%rax        # 13230 <__pyx_k_Failed_to_connect>
    4e17:	48 89 84 24 88 00 00 	mov    %rax,0x88(%rsp)
    4e1e:	00 
    4e1f:	48 8d 05 92 2e 01 00 	lea    0x12e92(%rip),%rax        # 17cb8 <__pyx_mstate_global_static+0x58>
    4e26:	48 c7 44 24 40 02 00 	movq   $0x2,0x40(%rsp)
    4e2d:	00 00 
    4e2f:	66 c7 44 24 50 00 01 	movw   $0x100,0x50(%rsp)
    4e36:	c6 44 24 52 00       	movb   $0x0,0x52(%rsp)
    4e3b:	48 c7 44 24 68 0e 00 	movq   $0xe,0x68(%rsp)
    4e42:	00 00 
    4e44:	66 c7 44 24 78 01 00 	movw   $0x1,0x78(%rsp)
    4e4b:	c6 44 24 7a 00       	movb   $0x0,0x7a(%rsp)
    4e50:	48 c7 84 24 90 00 00 	movq   $0x12,0x90(%rsp)
    4e57:	00 12 00 00 00 
    4e5c:	66 c7 84 24 a0 00 00 	movw   $0x100,0xa0(%rsp)
    4e63:	00 00 01 
    4e66:	c6 84 24 a2 00 00 00 	movb   $0x0,0xa2(%rsp)
    4e6d:	00 
    4e6e:	48 89 84 24 a8 00 00 	mov    %rax,0xa8(%rsp)
    4e75:	00 
    4e76:	48 8d 05 f4 e6 00 00 	lea    0xe6f4(%rip),%rax        # 13571 <__pyx_k_Serial>
    4e7d:	48 89 84 24 b0 00 00 	mov    %rax,0xb0(%rsp)
    4e84:	00 
    4e85:	48 8d 05 34 2e 01 00 	lea    0x12e34(%rip),%rax        # 17cc0 <__pyx_mstate_global_static+0x60>
    4e8c:	48 89 84 24 d0 00 00 	mov    %rax,0xd0(%rsp)
    4e93:	00 
    4e94:	48 8d 05 75 e4 00 00 	lea    0xe475(%rip),%rax        # 13310 <__pyx_k_SerialException>
    4e9b:	48 89 84 24 d8 00 00 	mov    %rax,0xd8(%rsp)
    4ea2:	00 
    4ea3:	48 8d 05 1e 2e 01 00 	lea    0x12e1e(%rip),%rax        # 17cc8 <__pyx_mstate_global_static+0x68>
    4eaa:	48 89 84 24 f8 00 00 	mov    %rax,0xf8(%rsp)
    4eb1:	00 
    4eb2:	48 8d 05 77 e5 00 00 	lea    0xe577(%rip),%rax        # 13430 <__pyx_k_Zamonarypad>
    4eb9:	48 89 84 24 00 01 00 	mov    %rax,0x100(%rsp)
    4ec0:	00 
    4ec1:	48 8d 05 08 2e 01 00 	lea    0x12e08(%rip),%rax        # 17cd0 <__pyx_mstate_global_static+0x70>
    4ec8:	48 89 84 24 20 01 00 	mov    %rax,0x120(%rsp)
    4ecf:	00 
    4ed0:	48 8d 05 6e e7 00 00 	lea    0xe76e(%rip),%rax        # 13645 <__pyx_k__21>
    4ed7:	48 89 84 24 28 01 00 	mov    %rax,0x128(%rsp)
    4ede:	00 
    4edf:	48 8d 05 f2 2d 01 00 	lea    0x12df2(%rip),%rax        # 17cd8 <__pyx_mstate_global_static+0x78>
    4ee6:	48 89 84 24 48 01 00 	mov    %rax,0x148(%rsp)
    4eed:	00 
    4eee:	48 8d 05 56 e7 00 00 	lea    0xe756(%rip),%rax        # 1364b <__pyx_k__3>
    4ef5:	48 89 84 24 50 01 00 	mov    %rax,0x150(%rsp)
    4efc:	00 
    4efd:	48 8d 05 dc 2d 01 00 	lea    0x12ddc(%rip),%rax        # 17ce0 <__pyx_mstate_global_static+0x80>
    4f04:	48 89 84 24 70 01 00 	mov    %rax,0x170(%rsp)
    4f0b:	00 
    4f0c:	48 8d 05 36 e7 00 00 	lea    0xe736(%rip),%rax        # 13649 <__pyx_k__4>
    4f13:	48 89 84 24 78 01 00 	mov    %rax,0x178(%rsp)
    4f1a:	00 
    4f1b:	48 8d 05 c6 2d 01 00 	lea    0x12dc6(%rip),%rax        # 17ce8 <__pyx_mstate_global_static+0x88>
    4f22:	48 89 bc 24 c0 00 00 	mov    %rdi,0xc0(%rsp)
    4f29:	00 
    4f2a:	31 ff                	xor    %edi,%edi
    4f2c:	4c 89 84 24 e8 00 00 	mov    %r8,0xe8(%rsp)
    4f33:	00 
    4f34:	45 31 c0             	xor    %r8d,%r8d
    4f37:	4c 89 8c 24 10 01 00 	mov    %r9,0x110(%rsp)
    4f3e:	00 
    4f3f:	45 31 c9             	xor    %r9d,%r9d
    4f42:	4c 89 94 24 38 01 00 	mov    %r10,0x138(%rsp)
    4f49:	00 
    4f4a:	45 31 d2             	xor    %r10d,%r10d
    4f4d:	4c 89 9c 24 60 01 00 	mov    %r11,0x160(%rsp)
    4f54:	00 
    4f55:	45 31 db             	xor    %r11d,%r11d
    4f58:	48 c7 84 24 b8 00 00 	movq   $0x7,0xb8(%rsp)
    4f5f:	00 07 00 00 00 
    4f64:	66 c7 84 24 c8 00 00 	movw   $0x100,0xc8(%rsp)
    4f6b:	00 00 01 
    4f6e:	c6 84 24 ca 00 00 00 	movb   $0x1,0xca(%rsp)
    4f75:	01 
    4f76:	48 c7 84 24 e0 00 00 	movq   $0x10,0xe0(%rsp)
    4f7d:	00 10 00 00 00 
    4f82:	66 c7 84 24 f0 00 00 	movw   $0x100,0xf0(%rsp)
    4f89:	00 00 01 
    4f8c:	c6 84 24 f2 00 00 00 	movb   $0x1,0xf2(%rsp)
    4f93:	01 
    4f94:	48 c7 84 24 08 01 00 	movq   $0xc,0x108(%rsp)
    4f9b:	00 0c 00 00 00 
    4fa0:	66 c7 84 24 18 01 00 	movw   $0x100,0x118(%rsp)
    4fa7:	00 00 01 
    4faa:	c6 84 24 1a 01 00 00 	movb   $0x1,0x11a(%rsp)
    4fb1:	01 
    4fb2:	48 c7 84 24 30 01 00 	movq   $0x2,0x130(%rsp)
    4fb9:	00 02 00 00 00 
    4fbe:	66 c7 84 24 40 01 00 	movw   $0x100,0x140(%rsp)
    4fc5:	00 00 01 
    4fc8:	c6 84 24 42 01 00 00 	movb   $0x1,0x142(%rsp)
    4fcf:	01 
    4fd0:	48 c7 84 24 58 01 00 	movq   $0x1,0x158(%rsp)
    4fd7:	00 01 00 00 00 
    4fdc:	66 c7 84 24 68 01 00 	movw   $0x100,0x168(%rsp)
    4fe3:	00 00 01 
    4fe6:	c6 84 24 6a 01 00 00 	movb   $0x0,0x16a(%rsp)
    4fed:	00 
    4fee:	48 c7 84 24 80 01 00 	movq   $0x2,0x180(%rsp)
    4ff5:	00 02 00 00 00 
    4ffa:	48 89 9c 24 88 01 00 	mov    %rbx,0x188(%rsp)
    5001:	00 
    5002:	31 db                	xor    %ebx,%ebx
    5004:	48 89 84 24 98 01 00 	mov    %rax,0x198(%rsp)
    500b:	00 
    500c:	48 8d 05 34 e6 00 00 	lea    0xe634(%rip),%rax        # 13647 <__pyx_k__6>
    5013:	48 89 84 24 a0 01 00 	mov    %rax,0x1a0(%rsp)
    501a:	00 
    501b:	48 8d 05 ce 2c 01 00 	lea    0x12cce(%rip),%rax        # 17cf0 <__pyx_mstate_global_static+0x90>
    5022:	48 89 84 24 c0 01 00 	mov    %rax,0x1c0(%rsp)
    5029:	00 
    502a:	48 8d 05 3f e4 00 00 	lea    0xe43f(%rip),%rax        # 13470 <__pyx_k_add_button>
    5031:	48 89 84 24 c8 01 00 	mov    %rax,0x1c8(%rsp)
    5038:	00 
    5039:	31 c0                	xor    %eax,%eax
    503b:	48 89 84 24 d8 01 00 	mov    %rax,0x1d8(%rsp)
    5042:	00 
    5043:	48 8d 05 ae 2c 01 00 	lea    0x12cae(%rip),%rax        # 17cf8 <__pyx_mstate_global_static+0x98>
    504a:	48 89 84 24 e8 01 00 	mov    %rax,0x1e8(%rsp)
    5051:	00 
    5052:	48 8d 05 57 e4 00 00 	lea    0xe457(%rip),%rax        # 134b0 <__pyx_k_add_combo>
    5059:	48 89 84 24 f0 01 00 	mov    %rax,0x1f0(%rsp)
    5060:	00 
    5061:	31 c0                	xor    %eax,%eax
    5063:	48 89 84 24 00 02 00 	mov    %rax,0x200(%rsp)
    506a:	00 
    506b:	48 8d 05 8e 2c 01 00 	lea    0x12c8e(%rip),%rax        # 17d00 <__pyx_mstate_global_static+0xa0>
    5072:	48 89 84 24 10 02 00 	mov    %rax,0x210(%rsp)
    5079:	00 
    507a:	48 8d 05 2f e2 00 00 	lea    0xe22f(%rip),%rax        # 132b0 <__pyx_k_add_progress_bar>
    5081:	48 89 84 24 18 02 00 	mov    %rax,0x218(%rsp)
    5088:	00 
    5089:	31 c0                	xor    %eax,%eax
    508b:	48 89 84 24 28 02 00 	mov    %rax,0x228(%rsp)
    5092:	00 
    5093:	48 8d 05 6e 2c 01 00 	lea    0x12c6e(%rip),%rax        # 17d08 <__pyx_mstate_global_static+0xa8>
    509a:	48 89 84 24 38 02 00 	mov    %rax,0x238(%rsp)
    50a1:	00 
    50a2:	48 8d 05 57 e4 00 00 	lea    0xe457(%rip),%rax        # 13500 <__pyx_k_add_text>
    50a9:	48 89 84 24 40 02 00 	mov    %rax,0x240(%rsp)
    50b0:	00 
    50b1:	31 c0                	xor    %eax,%eax
    50b3:	48 89 84 24 50 02 00 	mov    %rax,0x250(%rsp)
    50ba:	00 
    50bb:	48 8d 05 4e 2c 01 00 	lea    0x12c4e(%rip),%rax        # 17d10 <__pyx_mstate_global_static+0xb0>
    50c2:	48 89 ac 24 b0 01 00 	mov    %rbp,0x1b0(%rsp)
    50c9:	00 
    50ca:	31 ed                	xor    %ebp,%ebp
    50cc:	66 c7 84 24 90 01 00 	movw   $0x1,0x190(%rsp)
    50d3:	00 01 00 
    50d6:	c6 84 24 92 01 00 00 	movb   $0x0,0x192(%rsp)
    50dd:	00 
    50de:	48 c7 84 24 a8 01 00 	movq   $0x2,0x1a8(%rsp)
    50e5:	00 02 00 00 00 
    50ea:	66 c7 84 24 b8 01 00 	movw   $0x100,0x1b8(%rsp)
    50f1:	00 00 01 
    50f4:	c6 84 24 ba 01 00 00 	movb   $0x1,0x1ba(%rsp)
    50fb:	01 
    50fc:	48 c7 84 24 d0 01 00 	movq   $0xb,0x1d0(%rsp)
    5103:	00 0b 00 00 00 
    5108:	66 c7 84 24 e0 01 00 	movw   $0x100,0x1e0(%rsp)
    510f:	00 00 01 
    5112:	c6 84 24 e2 01 00 00 	movb   $0x1,0x1e2(%rsp)
    5119:	01 
    511a:	48 c7 84 24 f8 01 00 	movq   $0xa,0x1f8(%rsp)
    5121:	00 0a 00 00 00 
    5126:	66 c7 84 24 08 02 00 	movw   $0x100,0x208(%rsp)
    512d:	00 00 01 
    5130:	c6 84 24 0a 02 00 00 	movb   $0x1,0x20a(%rsp)
    5137:	01 
    5138:	48 c7 84 24 20 02 00 	movq   $0x11,0x220(%rsp)
    513f:	00 11 00 00 00 
    5144:	66 c7 84 24 30 02 00 	movw   $0x100,0x230(%rsp)
    514b:	00 00 01 
    514e:	c6 84 24 32 02 00 00 	movb   $0x1,0x232(%rsp)
    5155:	01 
    5156:	48 c7 84 24 48 02 00 	movq   $0x9,0x248(%rsp)
    515d:	00 09 00 00 00 
    5162:	66 c7 84 24 58 02 00 	movw   $0x100,0x258(%rsp)
    5169:	00 00 01 
    516c:	c6 84 24 5a 02 00 00 	movb   $0x1,0x25a(%rsp)
    5173:	01 
    5174:	48 89 84 24 60 02 00 	mov    %rax,0x260(%rsp)
    517b:	00 
    517c:	48 8d 05 4d e0 00 00 	lea    0xe04d(%rip),%rax        # 131d0 <__pyx_k_asyncio_coroutines>
    5183:	48 89 84 24 68 02 00 	mov    %rax,0x268(%rsp)
    518a:	00 
    518b:	31 c0                	xor    %eax,%eax
    518d:	48 89 84 24 78 02 00 	mov    %rax,0x278(%rsp)
    5194:	00 
    5195:	48 8d 05 7c 2b 01 00 	lea    0x12b7c(%rip),%rax        # 17d18 <__pyx_mstate_global_static+0xb8>
    519c:	48 89 84 24 88 02 00 	mov    %rax,0x288(%rsp)
    51a3:	00 
    51a4:	48 8d 05 75 e2 00 00 	lea    0xe275(%rip),%rax        # 13420 <__pyx_k_button1sens>
    51ab:	48 89 84 24 90 02 00 	mov    %rax,0x290(%rsp)
    51b2:	00 
    51b3:	48 8d 05 66 2b 01 00 	lea    0x12b66(%rip),%rax        # 17d20 <__pyx_mstate_global_static+0xc0>
    51ba:	48 89 84 24 b0 02 00 	mov    %rax,0x2b0(%rsp)
    51c1:	00 
    51c2:	48 8d 05 97 e2 00 00 	lea    0xe297(%rip),%rax        # 13460 <__pyx_k_button1val>
    51c9:	48 89 84 24 b8 02 00 	mov    %rax,0x2b8(%rsp)
    51d0:	00 
    51d1:	48 8d 05 50 2b 01 00 	lea    0x12b50(%rip),%rax        # 17d28 <__pyx_mstate_global_static+0xc8>
    51d8:	48 89 84 24 d8 02 00 	mov    %rax,0x2d8(%rsp)
    51df:	00 
    51e0:	48 8d 05 29 e2 00 00 	lea    0xe229(%rip),%rax        # 13410 <__pyx_k_button2sens>
    51e7:	48 89 84 24 e0 02 00 	mov    %rax,0x2e0(%rsp)
    51ee:	00 
    51ef:	48 8d 05 3a 2b 01 00 	lea    0x12b3a(%rip),%rax        # 17d30 <__pyx_mstate_global_static+0xd0>
    51f6:	48 89 84 24 00 03 00 	mov    %rax,0x300(%rsp)
    51fd:	00 
    51fe:	48 8d 05 4b e2 00 00 	lea    0xe24b(%rip),%rax        # 13450 <__pyx_k_button2val>
    5205:	48 89 84 24 08 03 00 	mov    %rax,0x308(%rsp)
    520c:	00 
    520d:	48 8d 05 24 2b 01 00 	lea    0x12b24(%rip),%rax        # 17d38 <__pyx_mstate_global_static+0xd8>
    5214:	48 89 84 24 28 03 00 	mov    %rax,0x328(%rsp)
    521b:	00 
    521c:	48 8d 05 dd e1 00 00 	lea    0xe1dd(%rip),%rax        # 13400 <__pyx_k_calibrate_1>
    5223:	48 89 84 24 30 03 00 	mov    %rax,0x330(%rsp)
    522a:	00 
    522b:	48 8d 05 0e 2b 01 00 	lea    0x12b0e(%rip),%rax        # 17d40 <__pyx_mstate_global_static+0xe0>
    5232:	48 89 94 24 a0 02 00 	mov    %rdx,0x2a0(%rsp)
    5239:	00 
    523a:	48 89 8c 24 c8 02 00 	mov    %rcx,0x2c8(%rsp)
    5241:	00 
    5242:	48 89 b4 24 f0 02 00 	mov    %rsi,0x2f0(%rsp)
    5249:	00 
    524a:	48 89 bc 24 18 03 00 	mov    %rdi,0x318(%rsp)
    5251:	00 
    5252:	48 c7 84 24 70 02 00 	movq   $0x13,0x270(%rsp)
    5259:	00 13 00 00 00 
    525e:	66 c7 84 24 80 02 00 	movw   $0x100,0x280(%rsp)
    5265:	00 00 01 
    5268:	c6 84 24 82 02 00 00 	movb   $0x1,0x282(%rsp)
    526f:	01 
    5270:	48 c7 84 24 98 02 00 	movq   $0xc,0x298(%rsp)
    5277:	00 0c 00 00 00 
    527c:	66 c7 84 24 a8 02 00 	movw   $0x100,0x2a8(%rsp)
    5283:	00 00 01 
    5286:	c6 84 24 aa 02 00 00 	movb   $0x1,0x2aa(%rsp)
    528d:	01 
    528e:	48 c7 84 24 c0 02 00 	movq   $0xb,0x2c0(%rsp)
    5295:	00 0b 00 00 00 
    529a:	66 c7 84 24 d0 02 00 	movw   $0x100,0x2d0(%rsp)
    52a1:	00 00 01 
    52a4:	c6 84 24 d2 02 00 00 	movb   $0x1,0x2d2(%rsp)
    52ab:	01 
    52ac:	48 c7 84 24 e8 02 00 	movq   $0xc,0x2e8(%rsp)
    52b3:	00 0c 00 00 00 
    52b8:	66 c7 84 24 f8 02 00 	movw   $0x100,0x2f8(%rsp)
    52bf:	00 00 01 
    52c2:	c6 84 24 fa 02 00 00 	movb   $0x1,0x2fa(%rsp)
    52c9:	01 
    52ca:	48 c7 84 24 10 03 00 	movq   $0xb,0x310(%rsp)
    52d1:	00 0b 00 00 00 
    52d6:	66 c7 84 24 20 03 00 	movw   $0x100,0x320(%rsp)
    52dd:	00 00 01 
    52e0:	c6 84 24 22 03 00 00 	movb   $0x1,0x322(%rsp)
    52e7:	01 
    52e8:	48 c7 84 24 38 03 00 	movq   $0xc,0x338(%rsp)
    52ef:	00 0c 00 00 00 
    52f4:	4c 89 84 24 40 03 00 	mov    %r8,0x340(%rsp)
    52fb:	00 
    52fc:	48 89 84 24 50 03 00 	mov    %rax,0x350(%rsp)
    5303:	00 
    5304:	48 8d 05 f5 df 00 00 	lea    0xdff5(%rip),%rax        # 13300 <__pyx_k_calibrate_btn_1>
    530b:	48 89 84 24 58 03 00 	mov    %rax,0x358(%rsp)
    5312:	00 
    5313:	48 8d 05 2e 2a 01 00 	lea    0x12a2e(%rip),%rax        # 17d48 <__pyx_mstate_global_static+0xe8>
    531a:	48 89 84 24 78 03 00 	mov    %rax,0x378(%rsp)
    5321:	00 
    5322:	48 8d 05 c7 e1 00 00 	lea    0xe1c7(%rip),%rax        # 134f0 <__pyx_k_callback>
    5329:	48 89 84 24 80 03 00 	mov    %rax,0x380(%rsp)
    5330:	00 
    5331:	48 8d 05 18 2a 01 00 	lea    0x12a18(%rip),%rax        # 17d50 <__pyx_mstate_global_static+0xf0>
    5338:	48 89 84 24 a0 03 00 	mov    %rax,0x3a0(%rsp)
    533f:	00 
    5340:	48 8d 05 69 de 00 00 	lea    0xde69(%rip),%rax        # 131b0 <__pyx_k_cline_in_traceback>
    5347:	48 89 84 24 a8 03 00 	mov    %rax,0x3a8(%rsp)
    534e:	00 
    534f:	48 8d 05 02 2a 01 00 	lea    0x12a02(%rip),%rax        # 17d58 <__pyx_mstate_global_static+0xf8>
    5356:	48 89 84 24 c8 03 00 	mov    %rax,0x3c8(%rsp)
    535d:	00 
    535e:	48 8d 05 7b e1 00 00 	lea    0xe17b(%rip),%rax        # 134e0 <__pyx_k_comports>
    5365:	48 89 84 24 d0 03 00 	mov    %rax,0x3d0(%rsp)
    536c:	00 
    536d:	48 8d 05 ec 29 01 00 	lea    0x129ec(%rip),%rax        # 17d60 <__pyx_mstate_global_static+0x100>
    5374:	48 89 84 24 f0 03 00 	mov    %rax,0x3f0(%rsp)
    537b:	00 
    537c:	48 8d 05 ed df 00 00 	lea    0xdfed(%rip),%rax        # 13370 <__pyx_k_configure_item>
    5383:	48 89 84 24 f8 03 00 	mov    %rax,0x3f8(%rsp)
    538a:	00 
    538b:	48 8d 05 d6 29 01 00 	lea    0x129d6(%rip),%rax        # 17d68 <__pyx_mstate_global_static+0x108>
    5392:	4c 89 8c 24 68 03 00 	mov    %r9,0x368(%rsp)
    5399:	00 
    539a:	4c 89 94 24 90 03 00 	mov    %r10,0x390(%rsp)
    53a1:	00 
    53a2:	4c 89 9c 24 b8 03 00 	mov    %r11,0x3b8(%rsp)
    53a9:	00 
    53aa:	48 89 9c 24 e0 03 00 	mov    %rbx,0x3e0(%rsp)
    53b1:	00 
    53b2:	48 89 ac 24 08 04 00 	mov    %rbp,0x408(%rsp)
    53b9:	00 
    53ba:	66 c7 84 24 48 03 00 	movw   $0x100,0x348(%rsp)
    53c1:	00 00 01 
    53c4:	c6 84 24 4a 03 00 00 	movb   $0x0,0x34a(%rsp)
    53cb:	00 
    53cc:	48 c7 84 24 60 03 00 	movq   $0x10,0x360(%rsp)
    53d3:	00 10 00 00 00 
    53d8:	66 c7 84 24 70 03 00 	movw   $0x100,0x370(%rsp)
    53df:	00 00 01 
    53e2:	c6 84 24 72 03 00 00 	movb   $0x1,0x372(%rsp)
    53e9:	01 
    53ea:	48 c7 84 24 88 03 00 	movq   $0x9,0x388(%rsp)
    53f1:	00 09 00 00 00 
    53f6:	66 c7 84 24 98 03 00 	movw   $0x100,0x398(%rsp)
    53fd:	00 00 01 
    5400:	c6 84 24 9a 03 00 00 	movb   $0x1,0x39a(%rsp)
    5407:	01 
    5408:	48 c7 84 24 b0 03 00 	movq   $0x13,0x3b0(%rsp)
    540f:	00 13 00 00 00 
    5414:	66 c7 84 24 c0 03 00 	movw   $0x100,0x3c0(%rsp)
    541b:	00 00 01 
    541e:	c6 84 24 c2 03 00 00 	movb   $0x1,0x3c2(%rsp)
    5425:	01 
    5426:	48 c7 84 24 d8 03 00 	movq   $0x9,0x3d8(%rsp)
    542d:	00 09 00 00 00 
    5432:	66 c7 84 24 e8 03 00 	movw   $0x100,0x3e8(%rsp)
    5439:	00 00 01 
    543c:	c6 84 24 ea 03 00 00 	movb   $0x1,0x3ea(%rsp)
    5443:	01 
    5444:	48 c7 84 24 00 04 00 	movq   $0xf,0x400(%rsp)
    544b:	00 0f 00 00 00 
    5450:	c6 84 24 10 04 00 00 	movb   $0x0,0x410(%rsp)
    5457:	00 
    5458:	66 c7 84 24 11 04 00 	movw   $0x101,0x411(%rsp)
    545f:	00 01 01 
    5462:	48 89 84 24 18 04 00 	mov    %rax,0x418(%rsp)
    5469:	00 
    546a:	48 8d 05 bf e0 00 00 	lea    0xe0bf(%rip),%rax        # 13530 <__pyx_k_connect>
    5471:	48 89 84 24 20 04 00 	mov    %rax,0x420(%rsp)
    5478:	00 
    5479:	31 c0                	xor    %eax,%eax
    547b:	48 89 84 24 30 04 00 	mov    %rax,0x430(%rsp)
    5482:	00 
    5483:	48 8d 05 e6 28 01 00 	lea    0x128e6(%rip),%rax        # 17d70 <__pyx_mstate_global_static+0x110>
    548a:	48 89 84 24 40 04 00 	mov    %rax,0x440(%rsp)
    5491:	00 
    5492:	48 8d 05 c7 de 00 00 	lea    0xdec7(%rip),%rax        # 13360 <__pyx_k_connect_serial>
    5499:	48 89 84 24 48 04 00 	mov    %rax,0x448(%rsp)
    54a0:	00 
    54a1:	31 c0                	xor    %eax,%eax
    54a3:	48 89 84 24 58 04 00 	mov    %rax,0x458(%rsp)
    54aa:	00 
    54ab:	48 8d 05 c6 28 01 00 	lea    0x128c6(%rip),%rax        # 17d78 <__pyx_mstate_global_static+0x118>
    54b2:	48 89 84 24 68 04 00 	mov    %rax,0x468(%rsp)
    54b9:	00 
    54ba:	48 8d 05 4f dd 00 00 	lea    0xdd4f(%rip),%rax        # 13210 <__pyx_k_connection_status>
    54c1:	48 89 84 24 70 04 00 	mov    %rax,0x470(%rsp)
    54c8:	00 
    54c9:	31 c0                	xor    %eax,%eax
    54cb:	48 89 84 24 80 04 00 	mov    %rax,0x480(%rsp)
    54d2:	00 
    54d3:	48 8d 05 a6 28 01 00 	lea    0x128a6(%rip),%rax        # 17d80 <__pyx_mstate_global_static+0x120>
    54da:	48 89 84 24 90 04 00 	mov    %rax,0x490(%rsp)
    54e1:	00 
    54e2:	48 8d 05 67 de 00 00 	lea    0xde67(%rip),%rax        # 13350 <__pyx_k_create_context>
    54e9:	48 89 84 24 98 04 00 	mov    %rax,0x498(%rsp)
    54f0:	00 
    54f1:	31 c0                	xor    %eax,%eax
    54f3:	48 89 84 24 a8 04 00 	mov    %rax,0x4a8(%rsp)
    54fa:	00 
    54fb:	48 8d 05 86 28 01 00 	lea    0x12886(%rip),%rax        # 17d88 <__pyx_mstate_global_static+0x128>
    5502:	48 89 84 24 b8 04 00 	mov    %rax,0x4b8(%rsp)
    5509:	00 
    550a:	48 8d 05 df dd 00 00 	lea    0xdddf(%rip),%rax        # 132f0 <__pyx_k_create_viewport>
    5511:	48 89 84 24 c0 04 00 	mov    %rax,0x4c0(%rsp)
    5518:	00 
    5519:	31 c0                	xor    %eax,%eax
    551b:	31 d2                	xor    %edx,%edx
    551d:	31 c9                	xor    %ecx,%ecx
    551f:	48 89 84 24 d0 04 00 	mov    %rax,0x4d0(%rsp)
    5526:	00 
    5527:	31 f6                	xor    %esi,%esi
    5529:	31 ff                	xor    %edi,%edi
    552b:	45 31 c0             	xor    %r8d,%r8d
    552e:	c6 84 24 3a 04 00 00 	movb   $0x1,0x43a(%rsp)
    5535:	01 
    5536:	45 31 c9             	xor    %r9d,%r9d
    5539:	45 31 d2             	xor    %r10d,%r10d
    553c:	31 db                	xor    %ebx,%ebx
    553e:	66 c7 84 24 38 04 00 	movw   $0x100,0x438(%rsp)
    5545:	00 00 01 
    5548:	45 31 db             	xor    %r11d,%r11d
    554b:	31 ed                	xor    %ebp,%ebp
    554d:	48 8d 05 3c 28 01 00 	lea    0x1283c(%rip),%rax        # 17d90 <__pyx_mstate_global_static+0x130>
    5554:	48 89 84 24 e0 04 00 	mov    %rax,0x4e0(%rsp)
    555b:	00 
    555c:	48 8d 05 8d db 00 00 	lea    0xdb8d(%rip),%rax        # 130f0 <__pyx_k_created_window_instance>
    5563:	48 89 84 24 e8 04 00 	mov    %rax,0x4e8(%rsp)
    556a:	00 
    556b:	48 8d 05 26 28 01 00 	lea    0x12826(%rip),%rax        # 17d98 <__pyx_mstate_global_static+0x138>
    5572:	48 c7 84 24 28 04 00 	movq   $0x8,0x428(%rsp)
    5579:	00 08 00 00 00 
    557e:	48 c7 84 24 50 04 00 	movq   $0xf,0x450(%rsp)
    5585:	00 0f 00 00 00 
    558a:	66 c7 84 24 60 04 00 	movw   $0x100,0x460(%rsp)
    5591:	00 00 01 
    5594:	c6 84 24 62 04 00 00 	movb   $0x1,0x462(%rsp)
    559b:	01 
    559c:	48 c7 84 24 78 04 00 	movq   $0x12,0x478(%rsp)
    55a3:	00 12 00 00 00 
    55a8:	66 c7 84 24 88 04 00 	movw   $0x100,0x488(%rsp)
    55af:	00 00 01 
    55b2:	c6 84 24 8a 04 00 00 	movb   $0x1,0x48a(%rsp)
    55b9:	01 
    55ba:	48 c7 84 24 a0 04 00 	movq   $0xf,0x4a0(%rsp)
    55c1:	00 0f 00 00 00 
    55c6:	66 c7 84 24 b0 04 00 	movw   $0x100,0x4b0(%rsp)
    55cd:	00 00 01 
    55d0:	c6 84 24 b2 04 00 00 	movb   $0x1,0x4b2(%rsp)
    55d7:	01 
    55d8:	48 c7 84 24 c8 04 00 	movq   $0x10,0x4c8(%rsp)
    55df:	00 10 00 00 00 
    55e4:	66 c7 84 24 d8 04 00 	movw   $0x100,0x4d8(%rsp)
    55eb:	00 00 01 
    55ee:	c6 84 24 da 04 00 00 	movb   $0x1,0x4da(%rsp)
    55f5:	01 
    55f6:	48 c7 84 24 f0 04 00 	movq   $0x18,0x4f0(%rsp)
    55fd:	00 18 00 00 00 
    5602:	48 89 94 24 f8 04 00 	mov    %rdx,0x4f8(%rsp)
    5609:	00 
    560a:	31 d2                	xor    %edx,%edx
    560c:	48 89 84 24 08 05 00 	mov    %rax,0x508(%rsp)
    5613:	00 
    5614:	48 8d 05 85 de 00 00 	lea    0xde85(%rip),%rax        # 134a0 <__pyx_k_dearpygui>
    561b:	48 89 84 24 10 05 00 	mov    %rax,0x510(%rsp)
    5622:	00 
    5623:	48 8d 05 76 27 01 00 	lea    0x12776(%rip),%rax        # 17da0 <__pyx_mstate_global_static+0x140>
    562a:	48 89 84 24 30 05 00 	mov    %rax,0x530(%rsp)
    5631:	00 
    5632:	48 8d 05 37 db 00 00 	lea    0xdb37(%rip),%rax        # 13170 <__pyx_k_dearpygui_dearpygui>
    5639:	48 89 84 24 38 05 00 	mov    %rax,0x538(%rsp)
    5640:	00 
    5641:	48 8d 05 60 27 01 00 	lea    0x12760(%rip),%rax        # 17da8 <__pyx_mstate_global_static+0x148>
    5648:	48 89 84 24 58 05 00 	mov    %rax,0x558(%rsp)
    564f:	00 
    5650:	48 8d 05 49 dd 00 00 	lea    0xdd49(%rip),%rax        # 133a0 <__pyx_k_default_value>
    5657:	48 89 84 24 60 05 00 	mov    %rax,0x560(%rsp)
    565e:	00 
    565f:	48 8d 05 4a 27 01 00 	lea    0x1274a(%rip),%rax        # 17db0 <__pyx_mstate_global_static+0x150>
    5666:	48 89 84 24 80 05 00 	mov    %rax,0x580(%rsp)
    566d:	00 
    566e:	48 8d 05 db da 00 00 	lea    0xdadb(%rip),%rax        # 13150 <__pyx_k_delay_between_reads>
    5675:	48 89 84 24 88 05 00 	mov    %rax,0x588(%rsp)
    567c:	00 
    567d:	48 8d 05 34 27 01 00 	lea    0x12734(%rip),%rax        # 17db8 <__pyx_mstate_global_static+0x158>
    5684:	48 89 84 24 a8 05 00 	mov    %rax,0x5a8(%rsp)
    568b:	00 
    568c:	48 8d 05 4d dc 00 00 	lea    0xdc4d(%rip),%rax        # 132e0 <__pyx_k_destroy_context>
    5693:	48 89 84 24 b0 05 00 	mov    %rax,0x5b0(%rsp)
    569a:	00 
    569b:	48 8d 05 1e 27 01 00 	lea    0x1271e(%rip),%rax        # 17dc0 <__pyx_mstate_global_static+0x160>
    56a2:	48 89 8c 24 20 05 00 	mov    %rcx,0x520(%rsp)
    56a9:	00 
    56aa:	31 c9                	xor    %ecx,%ecx
    56ac:	48 89 b4 24 48 05 00 	mov    %rsi,0x548(%rsp)
    56b3:	00 
    56b4:	31 f6                	xor    %esi,%esi
    56b6:	48 89 bc 24 70 05 00 	mov    %rdi,0x570(%rsp)
    56bd:	00 
    56be:	31 ff                	xor    %edi,%edi
    56c0:	4c 89 84 24 98 05 00 	mov    %r8,0x598(%rsp)
    56c7:	00 
    56c8:	45 31 c0             	xor    %r8d,%r8d
    56cb:	4c 89 8c 24 c0 05 00 	mov    %r9,0x5c0(%rsp)
    56d2:	00 
    56d3:	45 31 c9             	xor    %r9d,%r9d
    56d6:	66 c7 84 24 00 05 00 	movw   $0x100,0x500(%rsp)
    56dd:	00 00 01 
    56e0:	c6 84 24 02 05 00 00 	movb   $0x0,0x502(%rsp)
    56e7:	00 
    56e8:	48 c7 84 24 18 05 00 	movq   $0xa,0x518(%rsp)
    56ef:	00 0a 00 00 00 
    56f4:	66 c7 84 24 28 05 00 	movw   $0x100,0x528(%rsp)
    56fb:	00 00 01 
    56fe:	c6 84 24 2a 05 00 00 	movb   $0x1,0x52a(%rsp)
    5705:	01 
    5706:	48 c7 84 24 40 05 00 	movq   $0x14,0x540(%rsp)
    570d:	00 14 00 00 00 
    5712:	66 c7 84 24 50 05 00 	movw   $0x100,0x550(%rsp)
    5719:	00 00 01 
    571c:	c6 84 24 52 05 00 00 	movb   $0x1,0x552(%rsp)
    5723:	01 
    5724:	48 c7 84 24 68 05 00 	movq   $0xe,0x568(%rsp)
    572b:	00 0e 00 00 00 
    5730:	66 c7 84 24 78 05 00 	movw   $0x100,0x578(%rsp)
    5737:	00 00 01 
    573a:	c6 84 24 7a 05 00 00 	movb   $0x1,0x57a(%rsp)
    5741:	01 
    5742:	48 c7 84 24 90 05 00 	movq   $0x14,0x590(%rsp)
    5749:	00 14 00 00 00 
    574e:	66 c7 84 24 a0 05 00 	movw   $0x100,0x5a0(%rsp)
    5755:	00 00 01 
    5758:	c6 84 24 a2 05 00 00 	movb   $0x1,0x5a2(%rsp)
    575f:	01 
    5760:	48 c7 84 24 b8 05 00 	movq   $0x10,0x5b8(%rsp)
    5767:	00 10 00 00 00 
    576c:	66 c7 84 24 c8 05 00 	movw   $0x100,0x5c8(%rsp)
    5773:	00 00 01 
    5776:	c6 84 24 ca 05 00 00 	movb   $0x1,0x5ca(%rsp)
    577d:	01 
    577e:	48 89 84 24 d0 05 00 	mov    %rax,0x5d0(%rsp)
    5785:	00 
    5786:	48 8d 05 dd dd 00 00 	lea    0xdddd(%rip),%rax        # 1356a <__pyx_k_device>
    578d:	48 89 84 24 d8 05 00 	mov    %rax,0x5d8(%rsp)
    5794:	00 
    5795:	48 8d 05 2c 26 01 00 	lea    0x1262c(%rip),%rax        # 17dc8 <__pyx_mstate_global_static+0x168>
    579c:	48 89 84 24 f8 05 00 	mov    %rax,0x5f8(%rsp)
    57a3:	00 
    57a4:	48 8d 05 96 de 00 00 	lea    0xde96(%rip),%rax        # 13641 <__pyx_k_dpg>
    57ab:	48 89 84 24 00 06 00 	mov    %rax,0x600(%rsp)
    57b2:	00 
    57b3:	48 8d 05 16 26 01 00 	lea    0x12616(%rip),%rax        # 17dd0 <__pyx_mstate_global_static+0x170>
    57ba:	48 89 84 24 20 06 00 	mov    %rax,0x620(%rsp)
    57c1:	00 
    57c2:	48 8d 05 ef dd 00 00 	lea    0xddef(%rip),%rax        # 135b8 <__pyx_k_enter>
    57c9:	48 89 84 24 28 06 00 	mov    %rax,0x628(%rsp)
    57d0:	00 
    57d1:	48 8d 05 00 26 01 00 	lea    0x12600(%rip),%rax        # 17dd8 <__pyx_mstate_global_static+0x178>
    57d8:	48 89 84 24 48 06 00 	mov    %rax,0x648(%rsp)
    57df:	00 
    57e0:	48 8d 05 41 de 00 00 	lea    0xde41(%rip),%rax        # 13628 <__pyx_k_exit>
    57e7:	48 89 84 24 50 06 00 	mov    %rax,0x650(%rsp)
    57ee:	00 
    57ef:	48 8d 05 ea 25 01 00 	lea    0x125ea(%rip),%rax        # 17de0 <__pyx_mstate_global_static+0x180>
    57f6:	48 89 84 24 70 06 00 	mov    %rax,0x670(%rsp)
    57fd:	00 
    57fe:	48 8d 05 8b da 00 00 	lea    0xda8b(%rip),%rax        # 13290 <__pyx_k_get_serial_ports>
    5805:	48 89 84 24 78 06 00 	mov    %rax,0x678(%rsp)
    580c:	00 
    580d:	31 c0                	xor    %eax,%eax
    580f:	48 89 84 24 88 06 00 	mov    %rax,0x688(%rsp)
    5816:	00 
    5817:	48 8d 05 ca 25 01 00 	lea    0x125ca(%rip),%rax        # 17de8 <__pyx_mstate_global_static+0x188>
    581e:	48 89 84 24 98 06 00 	mov    %rax,0x698(%rsp)
    5825:	00 
    5826:	48 8d 05 63 dc 00 00 	lea    0xdc63(%rip),%rax        # 13490 <__pyx_k_get_value>
    582d:	48 89 84 24 a0 06 00 	mov    %rax,0x6a0(%rsp)
    5834:	00 
    5835:	31 c0                	xor    %eax,%eax
    5837:	4c 89 94 24 e8 05 00 	mov    %r10,0x5e8(%rsp)
    583e:	00 
    583f:	45 31 d2             	xor    %r10d,%r10d
    5842:	4c 89 9c 24 10 06 00 	mov    %r11,0x610(%rsp)
    5849:	00 
    584a:	45 31 db             	xor    %r11d,%r11d
    584d:	48 89 9c 24 38 06 00 	mov    %rbx,0x638(%rsp)
    5854:	00 
    5855:	31 db                	xor    %ebx,%ebx
    5857:	48 89 ac 24 60 06 00 	mov    %rbp,0x660(%rsp)
    585e:	00 
    585f:	31 ed                	xor    %ebp,%ebp
    5861:	48 c7 84 24 e0 05 00 	movq   $0x7,0x5e0(%rsp)
    5868:	00 07 00 00 00 
    586d:	66 c7 84 24 f0 05 00 	movw   $0x100,0x5f0(%rsp)
    5874:	00 00 01 
    5877:	c6 84 24 f2 05 00 00 	movb   $0x1,0x5f2(%rsp)
    587e:	01 
    587f:	48 c7 84 24 08 06 00 	movq   $0x4,0x608(%rsp)
    5886:	00 04 00 00 00 
    588b:	66 c7 84 24 18 06 00 	movw   $0x100,0x618(%rsp)
    5892:	00 00 01 
    5895:	c6 84 24 1a 06 00 00 	movb   $0x1,0x61a(%rsp)
    589c:	01 
    589d:	48 c7 84 24 30 06 00 	movq   $0xa,0x630(%rsp)
    58a4:	00 0a 00 00 00 
    58a9:	66 c7 84 24 40 06 00 	movw   $0x100,0x640(%rsp)
    58b0:	00 00 01 
    58b3:	c6 84 24 42 06 00 00 	movb   $0x1,0x642(%rsp)
    58ba:	01 
    58bb:	48 c7 84 24 58 06 00 	movq   $0x9,0x658(%rsp)
    58c2:	00 09 00 00 00 
    58c7:	66 c7 84 24 68 06 00 	movw   $0x100,0x668(%rsp)
    58ce:	00 00 01 
    58d1:	c6 84 24 6a 06 00 00 	movb   $0x1,0x66a(%rsp)
    58d8:	01 
    58d9:	48 c7 84 24 80 06 00 	movq   $0x11,0x680(%rsp)
    58e0:	00 11 00 00 00 
    58e5:	66 c7 84 24 90 06 00 	movw   $0x100,0x690(%rsp)
    58ec:	00 00 01 
    58ef:	c6 84 24 92 06 00 00 	movb   $0x1,0x692(%rsp)
    58f6:	01 
    58f7:	48 c7 84 24 a8 06 00 	movq   $0xa,0x6a8(%rsp)
    58fe:	00 0a 00 00 00 
    5903:	48 89 84 24 b0 06 00 	mov    %rax,0x6b0(%rsp)
    590a:	00 
    590b:	48 8d 05 de 24 01 00 	lea    0x124de(%rip),%rax        # 17df0 <__pyx_mstate_global_static+0x190>
    5912:	48 89 84 24 c0 06 00 	mov    %rax,0x6c0(%rsp)
    5919:	00 
    591a:	48 8d 05 42 dc 00 00 	lea    0xdc42(%rip),%rax        # 13563 <__pyx_k_height>
    5921:	48 89 84 24 c8 06 00 	mov    %rax,0x6c8(%rsp)
    5928:	00 
    5929:	31 c0                	xor    %eax,%eax
    592b:	48 89 84 24 d8 06 00 	mov    %rax,0x6d8(%rsp)
    5932:	00 
    5933:	48 8d 05 be 24 01 00 	lea    0x124be(%rip),%rax        # 17df8 <__pyx_mstate_global_static+0x198>
    593a:	48 89 84 24 e8 06 00 	mov    %rax,0x6e8(%rsp)
    5941:	00 
    5942:	48 8d 05 0f dc 00 00 	lea    0xdc0f(%rip),%rax        # 13558 <__pyx_k_import>
    5949:	48 89 84 24 f0 06 00 	mov    %rax,0x6f0(%rsp)
    5950:	00 
    5951:	31 c0                	xor    %eax,%eax
    5953:	48 89 84 24 00 07 00 	mov    %rax,0x700(%rsp)
    595a:	00 
    595b:	48 8d 05 9e 24 01 00 	lea    0x1249e(%rip),%rax        # 17e00 <__pyx_mstate_global_static+0x1a0>
    5962:	48 89 84 24 10 07 00 	mov    %rax,0x710(%rsp)
    5969:	00 
    596a:	48 8d 05 cc dc 00 00 	lea    0xdccc(%rip),%rax        # 1363d <__pyx_k_inf>
    5971:	48 89 84 24 18 07 00 	mov    %rax,0x718(%rsp)
    5978:	00 
    5979:	31 c0                	xor    %eax,%eax
    597b:	48 89 84 24 28 07 00 	mov    %rax,0x728(%rsp)
    5982:	00 
    5983:	48 8d 05 7e 24 01 00 	lea    0x1247e(%rip),%rax        # 17e08 <__pyx_mstate_global_static+0x1a8>
    598a:	48 89 84 24 38 07 00 	mov    %rax,0x738(%rsp)
    5991:	00 
    5992:	48 8d 05 15 dc 00 00 	lea    0xdc15(%rip),%rax        # 135ae <__pyx_k_inf_2>
    5999:	48 89 84 24 40 07 00 	mov    %rax,0x740(%rsp)
    59a0:	00 
    59a1:	48 8d 05 68 24 01 00 	lea    0x12468(%rip),%rax        # 17e10 <__pyx_mstate_global_static+0x1b0>
    59a8:	48 89 84 24 60 07 00 	mov    %rax,0x760(%rsp)
    59af:	00 
    59b0:	48 8d 05 19 da 00 00 	lea    0xda19(%rip),%rax        # 133d0 <__pyx_k_initializing>
    59b7:	48 89 84 24 68 07 00 	mov    %rax,0x768(%rsp)
    59be:	00 
    59bf:	48 8d 05 52 24 01 00 	lea    0x12452(%rip),%rax        # 17e18 <__pyx_mstate_global_static+0x1b8>
    59c6:	48 89 94 24 50 07 00 	mov    %rdx,0x750(%rsp)
    59cd:	00 
    59ce:	31 d2                	xor    %edx,%edx
    59d0:	48 89 8c 24 78 07 00 	mov    %rcx,0x778(%rsp)
    59d7:	00 
    59d8:	31 c9                	xor    %ecx,%ecx
    59da:	66 c7 84 24 b8 06 00 	movw   $0x100,0x6b8(%rsp)
    59e1:	00 00 01 
    59e4:	c6 84 24 ba 06 00 00 	movb   $0x1,0x6ba(%rsp)
    59eb:	01 
    59ec:	48 c7 84 24 d0 06 00 	movq   $0x7,0x6d0(%rsp)
    59f3:	00 07 00 00 00 
    59f8:	66 c7 84 24 e0 06 00 	movw   $0x100,0x6e0(%rsp)
    59ff:	00 00 01 
    5a02:	c6 84 24 e2 06 00 00 	movb   $0x1,0x6e2(%rsp)
    5a09:	01 
    5a0a:	48 c7 84 24 f8 06 00 	movq   $0xb,0x6f8(%rsp)
    5a11:	00 0b 00 00 00 
    5a16:	66 c7 84 24 08 07 00 	movw   $0x100,0x708(%rsp)
    5a1d:	00 00 01 
    5a20:	c6 84 24 0a 07 00 00 	movb   $0x1,0x70a(%rsp)
    5a27:	01 
    5a28:	48 c7 84 24 20 07 00 	movq   $0x4,0x720(%rsp)
    5a2f:	00 04 00 00 00 
    5a34:	66 c7 84 24 30 07 00 	movw   $0x100,0x730(%rsp)
    5a3b:	00 00 01 
    5a3e:	c6 84 24 32 07 00 00 	movb   $0x1,0x732(%rsp)
    5a45:	01 
    5a46:	48 c7 84 24 48 07 00 	movq   $0x5,0x748(%rsp)
    5a4d:	00 05 00 00 00 
    5a52:	66 c7 84 24 58 07 00 	movw   $0x100,0x758(%rsp)
    5a59:	00 00 01 
    5a5c:	c6 84 24 5a 07 00 00 	movb   $0x0,0x75a(%rsp)
    5a63:	00 
    5a64:	48 c7 84 24 70 07 00 	movq   $0xe,0x770(%rsp)
    5a6b:	00 0e 00 00 00 
    5a70:	66 c7 84 24 80 07 00 	movw   $0x100,0x780(%rsp)
    5a77:	00 00 01 
    5a7a:	c6 84 24 82 07 00 00 	movb   $0x1,0x782(%rsp)
    5a81:	01 
    5a82:	48 89 84 24 88 07 00 	mov    %rax,0x788(%rsp)
    5a89:	00 
    5a8a:	48 8d 05 2f d9 00 00 	lea    0xd92f(%rip),%rax        # 133c0 <__pyx_k_is_coroutine>
    5a91:	48 89 84 24 90 07 00 	mov    %rax,0x790(%rsp)
    5a98:	00 
    5a99:	48 8d 05 80 23 01 00 	lea    0x12380(%rip),%rax        # 17e20 <__pyx_mstate_global_static+0x1c0>
    5aa0:	48 89 84 24 b0 07 00 	mov    %rax,0x7b0(%rsp)
    5aa7:	00 
    5aa8:	48 8d 05 81 d6 00 00 	lea    0xd681(%rip),%rax        # 13130 <__pyx_k_is_dearpygui_running>
    5aaf:	48 89 84 24 b8 07 00 	mov    %rax,0x7b8(%rsp)
    5ab6:	00 
    5ab7:	48 8d 05 6a 23 01 00 	lea    0x1236a(%rip),%rax        # 17e28 <__pyx_mstate_global_static+0x1c8>
    5abe:	48 89 84 24 d8 07 00 	mov    %rax,0x7d8(%rsp)
    5ac5:	00 
    5ac6:	48 8d 05 db da 00 00 	lea    0xdadb(%rip),%rax        # 135a8 <__pyx_k_items>
    5acd:	48 89 84 24 e0 07 00 	mov    %rax,0x7e0(%rsp)
    5ad4:	00 
    5ad5:	48 8d 05 54 23 01 00 	lea    0x12354(%rip),%rax        # 17e30 <__pyx_mstate_global_static+0x1d0>
    5adc:	48 89 84 24 00 08 00 	mov    %rax,0x800(%rsp)
    5ae3:	00 
    5ae4:	48 8d 05 36 db 00 00 	lea    0xdb36(%rip),%rax        # 13621 <__pyx_k_json>
    5aeb:	48 89 84 24 08 08 00 	mov    %rax,0x808(%rsp)
    5af2:	00 
    5af3:	48 8d 05 3e 23 01 00 	lea    0x1233e(%rip),%rax        # 17e38 <__pyx_mstate_global_static+0x1d8>
    5afa:	48 89 84 24 28 08 00 	mov    %rax,0x828(%rsp)
    5b01:	00 
    5b02:	48 8d 05 87 d8 00 00 	lea    0xd887(%rip),%rax        # 13390 <__pyx_k_json_response>
    5b09:	48 89 84 24 30 08 00 	mov    %rax,0x830(%rsp)
    5b10:	00 
    5b11:	48 8d 05 28 23 01 00 	lea    0x12328(%rip),%rax        # 17e40 <__pyx_mstate_global_static+0x1e0>
    5b18:	48 89 84 24 50 08 00 	mov    %rax,0x850(%rsp)
    5b1f:	00 
    5b20:	48 8d 05 c9 d6 00 00 	lea    0xd6c9(%rip),%rax        # 131f0 <__pyx_k_json_response_raw>
    5b27:	48 89 84 24 58 08 00 	mov    %rax,0x858(%rsp)
    5b2e:	00 
    5b2f:	48 8d 05 12 23 01 00 	lea    0x12312(%rip),%rax        # 17e48 <__pyx_mstate_global_static+0x1e8>
    5b36:	48 89 b4 24 a0 07 00 	mov    %rsi,0x7a0(%rsp)
    5b3d:	00 
    5b3e:	48 89 bc 24 c8 07 00 	mov    %rdi,0x7c8(%rsp)
    5b45:	00 
    5b46:	4c 89 84 24 f0 07 00 	mov    %r8,0x7f0(%rsp)
    5b4d:	00 
    5b4e:	4c 89 8c 24 18 08 00 	mov    %r9,0x818(%rsp)
    5b55:	00 
    5b56:	4c 89 94 24 40 08 00 	mov    %r10,0x840(%rsp)
    5b5d:	00 
    5b5e:	48 c7 84 24 98 07 00 	movq   $0xe,0x798(%rsp)
    5b65:	00 0e 00 00 00 
    5b6a:	66 c7 84 24 a8 07 00 	movw   $0x100,0x7a8(%rsp)
    5b71:	00 00 01 
    5b74:	c6 84 24 aa 07 00 00 	movb   $0x1,0x7aa(%rsp)
    5b7b:	01 
    5b7c:	48 c7 84 24 c0 07 00 	movq   $0x15,0x7c0(%rsp)
    5b83:	00 15 00 00 00 
    5b88:	66 c7 84 24 d0 07 00 	movw   $0x100,0x7d0(%rsp)
    5b8f:	00 00 01 
    5b92:	c6 84 24 d2 07 00 00 	movb   $0x1,0x7d2(%rsp)
    5b99:	01 
    5b9a:	48 c7 84 24 e8 07 00 	movq   $0x6,0x7e8(%rsp)
    5ba1:	00 06 00 00 00 
    5ba6:	66 c7 84 24 f8 07 00 	movw   $0x100,0x7f8(%rsp)
    5bad:	00 00 01 
    5bb0:	c6 84 24 fa 07 00 00 	movb   $0x1,0x7fa(%rsp)
    5bb7:	01 
    5bb8:	48 c7 84 24 10 08 00 	movq   $0x5,0x810(%rsp)
    5bbf:	00 05 00 00 00 
    5bc4:	66 c7 84 24 20 08 00 	movw   $0x100,0x820(%rsp)
    5bcb:	00 00 01 
    5bce:	c6 84 24 22 08 00 00 	movb   $0x1,0x822(%rsp)
    5bd5:	01 
    5bd6:	48 c7 84 24 38 08 00 	movq   $0xe,0x838(%rsp)
    5bdd:	00 0e 00 00 00 
    5be2:	66 c7 84 24 48 08 00 	movw   $0x100,0x848(%rsp)
    5be9:	00 00 01 
    5bec:	c6 84 24 4a 08 00 00 	movb   $0x1,0x84a(%rsp)
    5bf3:	01 
    5bf4:	48 c7 84 24 60 08 00 	movq   $0x12,0x860(%rsp)
    5bfb:	00 12 00 00 00 
    5c00:	4c 89 9c 24 68 08 00 	mov    %r11,0x868(%rsp)
    5c07:	00 
    5c08:	48 89 84 24 78 08 00 	mov    %rax,0x878(%rsp)
    5c0f:	00 
    5c10:	48 8d 05 8b d9 00 00 	lea    0xd98b(%rip),%rax        # 135a2 <__pyx_k_label>
    5c17:	48 89 84 24 80 08 00 	mov    %rax,0x880(%rsp)
    5c1e:	00 
    5c1f:	48 8d 05 2a 22 01 00 	lea    0x1222a(%rip),%rax        # 17e50 <__pyx_mstate_global_static+0x1f0>
    5c26:	48 89 84 24 a0 08 00 	mov    %rax,0x8a0(%rsp)
    5c2d:	00 
    5c2e:	48 8d 05 9b d8 00 00 	lea    0xd89b(%rip),%rax        # 134d0 <__pyx_k_lasttime>
    5c35:	48 89 84 24 a8 08 00 	mov    %rax,0x8a8(%rsp)
    5c3c:	00 
    5c3d:	48 8d 05 14 22 01 00 	lea    0x12214(%rip),%rax        # 17e58 <__pyx_mstate_global_static+0x1f8>
    5c44:	48 89 84 24 c8 08 00 	mov    %rax,0x8c8(%rsp)
    5c4b:	00 
    5c4c:	48 8d 05 ed d7 00 00 	lea    0xd7ed(%rip),%rax        # 13440 <__pyx_k_list_ports>
    5c53:	48 89 84 24 d0 08 00 	mov    %rax,0x8d0(%rsp)
    5c5a:	00 
    5c5b:	31 c0                	xor    %eax,%eax
    5c5d:	48 89 84 24 e0 08 00 	mov    %rax,0x8e0(%rsp)
    5c64:	00 
    5c65:	48 8d 05 f4 21 01 00 	lea    0x121f4(%rip),%rax        # 17e60 <__pyx_mstate_global_static+0x200>
    5c6c:	48 89 84 24 f0 08 00 	mov    %rax,0x8f0(%rsp)
    5c73:	00 
    5c74:	48 8d 05 21 d9 00 00 	lea    0xd921(%rip),%rax        # 1359c <__pyx_k_loads>
    5c7b:	48 89 84 24 f8 08 00 	mov    %rax,0x8f8(%rsp)
    5c82:	00 
    5c83:	31 c0                	xor    %eax,%eax
    5c85:	48 89 84 24 08 09 00 	mov    %rax,0x908(%rsp)
    5c8c:	00 
    5c8d:	48 8d 05 d4 21 01 00 	lea    0x121d4(%rip),%rax        # 17e68 <__pyx_mstate_global_static+0x208>
    5c94:	48 89 84 24 18 09 00 	mov    %rax,0x918(%rsp)
    5c9b:	00 
    5c9c:	48 8d 05 75 d9 00 00 	lea    0xd975(%rip),%rax        # 13618 <__pyx_k_main>
    5ca3:	48 89 84 24 20 09 00 	mov    %rax,0x920(%rsp)
    5caa:	00 
    5cab:	31 c0                	xor    %eax,%eax
    5cad:	48 89 84 24 30 09 00 	mov    %rax,0x930(%rsp)
    5cb4:	00 
    5cb5:	48 8d 05 b4 21 01 00 	lea    0x121b4(%rip),%rax        # 17e70 <__pyx_mstate_global_static+0x210>
    5cbc:	48 89 9c 24 90 08 00 	mov    %rbx,0x890(%rsp)
    5cc3:	00 
    5cc4:	48 89 ac 24 b8 08 00 	mov    %rbp,0x8b8(%rsp)
    5ccb:	00 
    5ccc:	66 c7 84 24 70 08 00 	movw   $0x100,0x870(%rsp)
    5cd3:	00 00 01 
    5cd6:	c6 84 24 72 08 00 00 	movb   $0x1,0x872(%rsp)
    5cdd:	01 
    5cde:	48 c7 84 24 88 08 00 	movq   $0x6,0x888(%rsp)
    5ce5:	00 06 00 00 00 
    5cea:	66 c7 84 24 98 08 00 	movw   $0x100,0x898(%rsp)
    5cf1:	00 00 01 
    5cf4:	c6 84 24 9a 08 00 00 	movb   $0x1,0x89a(%rsp)
    5cfb:	01 
    5cfc:	48 c7 84 24 b0 08 00 	movq   $0x9,0x8b0(%rsp)
    5d03:	00 09 00 00 00 
    5d08:	66 c7 84 24 c0 08 00 	movw   $0x100,0x8c0(%rsp)
    5d0f:	00 00 01 
    5d12:	c6 84 24 c2 08 00 00 	movb   $0x1,0x8c2(%rsp)
    5d19:	01 
    5d1a:	48 c7 84 24 d8 08 00 	movq   $0xb,0x8d8(%rsp)
    5d21:	00 0b 00 00 00 
    5d26:	66 c7 84 24 e8 08 00 	movw   $0x100,0x8e8(%rsp)
    5d2d:	00 00 01 
    5d30:	c6 84 24 ea 08 00 00 	movb   $0x1,0x8ea(%rsp)
    5d37:	01 
    5d38:	48 c7 84 24 00 09 00 	movq   $0x6,0x900(%rsp)
    5d3f:	00 06 00 00 00 
    5d44:	66 c7 84 24 10 09 00 	movw   $0x100,0x910(%rsp)
    5d4b:	00 00 01 
    5d4e:	c6 84 24 12 09 00 00 	movb   $0x1,0x912(%rsp)
    5d55:	01 
    5d56:	48 c7 84 24 28 09 00 	movq   $0x9,0x928(%rsp)
    5d5d:	00 09 00 00 00 
    5d62:	66 c7 84 24 38 09 00 	movw   $0x100,0x938(%rsp)
    5d69:	00 00 01 
    5d6c:	c6 84 24 3a 09 00 00 	movb   $0x1,0x93a(%rsp)
    5d73:	01 
    5d74:	48 89 84 24 40 09 00 	mov    %rax,0x940(%rsp)
    5d7b:	00 
    5d7c:	48 8d 05 cb d7 00 00 	lea    0xd7cb(%rip),%rax        # 1354e <__pyx_k_main_2>
    5d83:	48 89 84 24 48 09 00 	mov    %rax,0x948(%rsp)
    5d8a:	00 
    5d8b:	31 c0                	xor    %eax,%eax
    5d8d:	48 89 84 24 58 09 00 	mov    %rax,0x958(%rsp)
    5d94:	00 
    5d95:	48 8d 05 dc 20 01 00 	lea    0x120dc(%rip),%rax        # 17e78 <__pyx_mstate_global_static+0x218>
    5d9c:	48 89 84 24 68 09 00 	mov    %rax,0x968(%rsp)
    5da3:	00 
    5da4:	48 8d 05 7d d7 00 00 	lea    0xd77d(%rip),%rax        # 13528 <__pyx_k_main_py>
    5dab:	48 89 84 24 70 09 00 	mov    %rax,0x970(%rsp)
    5db2:	00 
    5db3:	31 c0                	xor    %eax,%eax
    5db5:	31 f6                	xor    %esi,%esi
    5db7:	31 ff                	xor    %edi,%edi
    5db9:	48 89 84 24 80 09 00 	mov    %rax,0x980(%rsp)
    5dc0:	00 
    5dc1:	45 31 c0             	xor    %r8d,%r8d
    5dc4:	45 31 c9             	xor    %r9d,%r9d
    5dc7:	31 db                	xor    %ebx,%ebx
    5dc9:	48 89 94 24 a8 09 00 	mov    %rdx,0x9a8(%rsp)
    5dd0:	00 
    5dd1:	45 31 d2             	xor    %r10d,%r10d
    5dd4:	45 31 db             	xor    %r11d,%r11d
    5dd7:	31 ed                	xor    %ebp,%ebp
    5dd9:	48 8d 05 a0 20 01 00 	lea    0x120a0(%rip),%rax        # 17e80 <__pyx_mstate_global_static+0x220>
    5de0:	31 d2                	xor    %edx,%edx
    5de2:	48 89 8c 24 d0 09 00 	mov    %rcx,0x9d0(%rsp)
    5de9:	00 
    5dea:	31 c9                	xor    %ecx,%ecx
    5dec:	48 89 84 24 90 09 00 	mov    %rax,0x990(%rsp)
    5df3:	00 
    5df4:	48 8d 05 25 d7 00 00 	lea    0xd725(%rip),%rax        # 13520 <__pyx_k_mainwin>
    5dfb:	48 89 84 24 98 09 00 	mov    %rax,0x998(%rsp)
    5e02:	00 
    5e03:	48 8d 05 7e 20 01 00 	lea    0x1207e(%rip),%rax        # 17e88 <__pyx_mstate_global_static+0x228>
    5e0a:	48 89 84 24 b8 09 00 	mov    %rax,0x9b8(%rsp)
    5e11:	00 
    5e12:	48 8d 05 f4 d7 00 00 	lea    0xd7f4(%rip),%rax        # 1360d <__pyx_k_max1>
    5e19:	48 89 84 24 c0 09 00 	mov    %rax,0x9c0(%rsp)
    5e20:	00 
    5e21:	48 8d 05 68 20 01 00 	lea    0x12068(%rip),%rax        # 17e90 <__pyx_mstate_global_static+0x230>
    5e28:	48 89 84 24 e0 09 00 	mov    %rax,0x9e0(%rsp)
    5e2f:	00 
    5e30:	48 8d 05 d1 d7 00 00 	lea    0xd7d1(%rip),%rax        # 13608 <__pyx_k_max2>
    5e37:	48 89 84 24 e8 09 00 	mov    %rax,0x9e8(%rsp)
    5e3e:	00 
    5e3f:	48 8d 05 52 20 01 00 	lea    0x12052(%rip),%rax        # 17e98 <__pyx_mstate_global_static+0x238>
    5e46:	48 89 84 24 08 0a 00 	mov    %rax,0xa08(%rsp)
    5e4d:	00 
    5e4e:	48 8d 05 ae d7 00 00 	lea    0xd7ae(%rip),%rax        # 13603 <__pyx_k_min1>
    5e55:	48 89 84 24 10 0a 00 	mov    %rax,0xa10(%rsp)
    5e5c:	00 
    5e5d:	48 8d 05 3c 20 01 00 	lea    0x1203c(%rip),%rax        # 17ea0 <__pyx_mstate_global_static+0x240>
    5e64:	48 89 b4 24 f8 09 00 	mov    %rsi,0x9f8(%rsp)
    5e6b:	00 
    5e6c:	31 f6                	xor    %esi,%esi
    5e6e:	48 c7 84 24 50 09 00 	movq   $0x5,0x950(%rsp)
    5e75:	00 05 00 00 00 
    5e7a:	66 c7 84 24 60 09 00 	movw   $0x100,0x960(%rsp)
    5e81:	00 00 01 
    5e84:	c6 84 24 62 09 00 00 	movb   $0x1,0x962(%rsp)
    5e8b:	01 
    5e8c:	48 c7 84 24 78 09 00 	movq   $0x8,0x978(%rsp)
    5e93:	00 08 00 00 00 
    5e98:	66 c7 84 24 88 09 00 	movw   $0x100,0x988(%rsp)
    5e9f:	00 00 01 
    5ea2:	c6 84 24 8a 09 00 00 	movb   $0x0,0x98a(%rsp)
    5ea9:	00 
    5eaa:	48 c7 84 24 a0 09 00 	movq   $0x8,0x9a0(%rsp)
    5eb1:	00 08 00 00 00 
    5eb6:	66 c7 84 24 b0 09 00 	movw   $0x100,0x9b0(%rsp)
    5ebd:	00 00 01 
    5ec0:	c6 84 24 b2 09 00 00 	movb   $0x1,0x9b2(%rsp)
    5ec7:	01 
    5ec8:	48 c7 84 24 c8 09 00 	movq   $0x5,0x9c8(%rsp)
    5ecf:	00 05 00 00 00 
    5ed4:	66 c7 84 24 d8 09 00 	movw   $0x100,0x9d8(%rsp)
    5edb:	00 00 01 
    5ede:	c6 84 24 da 09 00 00 	movb   $0x1,0x9da(%rsp)
    5ee5:	01 
    5ee6:	48 c7 84 24 f0 09 00 	movq   $0x5,0x9f0(%rsp)
    5eed:	00 05 00 00 00 
    5ef2:	66 c7 84 24 00 0a 00 	movw   $0x100,0xa00(%rsp)
    5ef9:	00 00 01 
    5efc:	c6 84 24 02 0a 00 00 	movb   $0x1,0xa02(%rsp)
    5f03:	01 
    5f04:	48 c7 84 24 18 0a 00 	movq   $0x5,0xa18(%rsp)
    5f0b:	00 05 00 00 00 
    5f10:	48 89 bc 24 20 0a 00 	mov    %rdi,0xa20(%rsp)
    5f17:	00 
    5f18:	31 ff                	xor    %edi,%edi
    5f1a:	48 89 84 24 30 0a 00 	mov    %rax,0xa30(%rsp)
    5f21:	00 
    5f22:	48 8d 05 d5 d6 00 00 	lea    0xd6d5(%rip),%rax        # 135fe <__pyx_k_min2>
    5f29:	48 89 84 24 38 0a 00 	mov    %rax,0xa38(%rsp)
    5f30:	00 
    5f31:	48 8d 05 70 1f 01 00 	lea    0x11f70(%rip),%rax        # 17ea8 <__pyx_mstate_global_static+0x248>
    5f38:	48 89 84 24 58 0a 00 	mov    %rax,0xa58(%rsp)
    5f3f:	00 
    5f40:	48 8d 05 b2 d6 00 00 	lea    0xd6b2(%rip),%rax        # 135f9 <__pyx_k_mode>
    5f47:	48 89 84 24 60 0a 00 	mov    %rax,0xa60(%rsp)
    5f4e:	00 
    5f4f:	48 8d 05 5a 1f 01 00 	lea    0x11f5a(%rip),%rax        # 17eb0 <__pyx_mstate_global_static+0x250>
    5f56:	48 89 84 24 80 0a 00 	mov    %rax,0xa80(%rsp)
    5f5d:	00 
    5f5e:	48 8d 05 8b d6 00 00 	lea    0xd68b(%rip),%rax        # 135f0 <__pyx_k_name>
    5f65:	48 89 84 24 88 0a 00 	mov    %rax,0xa88(%rsp)
    5f6c:	00 
    5f6d:	48 8d 05 44 1f 01 00 	lea    0x11f44(%rip),%rax        # 17eb8 <__pyx_mstate_global_static+0x258>
    5f74:	48 89 84 24 a8 0a 00 	mov    %rax,0xaa8(%rsp)
    5f7b:	00 
    5f7c:	48 8d 05 64 d6 00 00 	lea    0xd664(%rip),%rax        # 135e7 <__pyx_k_port>
    5f83:	48 89 84 24 b0 0a 00 	mov    %rax,0xab0(%rsp)
    5f8a:	00 
    5f8b:	48 8d 05 2e 1f 01 00 	lea    0x11f2e(%rip),%rax        # 17ec0 <__pyx_mstate_global_static+0x260>
    5f92:	48 89 84 24 d0 0a 00 	mov    %rax,0xad0(%rsp)
    5f99:	00 
    5f9a:	48 8d 05 f5 d5 00 00 	lea    0xd5f5(%rip),%rax        # 13596 <__pyx_k_ports>
    5fa1:	48 89 84 24 d8 0a 00 	mov    %rax,0xad8(%rsp)
    5fa8:	00 
    5fa9:	48 8d 05 18 1f 01 00 	lea    0x11f18(%rip),%rax        # 17ec8 <__pyx_mstate_global_static+0x268>
    5fb0:	4c 89 84 24 48 0a 00 	mov    %r8,0xa48(%rsp)
    5fb7:	00 
    5fb8:	45 31 c0             	xor    %r8d,%r8d
    5fbb:	4c 89 8c 24 70 0a 00 	mov    %r9,0xa70(%rsp)
    5fc2:	00 
    5fc3:	45 31 c9             	xor    %r9d,%r9d
    5fc6:	4c 89 94 24 98 0a 00 	mov    %r10,0xa98(%rsp)
    5fcd:	00 
    5fce:	45 31 d2             	xor    %r10d,%r10d
    5fd1:	4c 89 9c 24 c0 0a 00 	mov    %r11,0xac0(%rsp)
    5fd8:	00 
    5fd9:	45 31 db             	xor    %r11d,%r11d
    5fdc:	48 89 9c 24 e8 0a 00 	mov    %rbx,0xae8(%rsp)
    5fe3:	00 
    5fe4:	31 db                	xor    %ebx,%ebx
    5fe6:	66 c7 84 24 28 0a 00 	movw   $0x100,0xa28(%rsp)
    5fed:	00 00 01 
    5ff0:	c6 84 24 2a 0a 00 00 	movb   $0x1,0xa2a(%rsp)
    5ff7:	01 
    5ff8:	48 c7 84 24 40 0a 00 	movq   $0x5,0xa40(%rsp)
    5fff:	00 05 00 00 00 
    6004:	66 c7 84 24 50 0a 00 	movw   $0x100,0xa50(%rsp)
    600b:	00 00 01 
    600e:	c6 84 24 52 0a 00 00 	movb   $0x1,0xa52(%rsp)
    6015:	01 
    6016:	48 c7 84 24 68 0a 00 	movq   $0x5,0xa68(%rsp)
    601d:	00 05 00 00 00 
    6022:	66 c7 84 24 78 0a 00 	movw   $0x100,0xa78(%rsp)
    6029:	00 00 01 
    602c:	c6 84 24 7a 0a 00 00 	movb   $0x1,0xa7a(%rsp)
    6033:	01 
    6034:	48 c7 84 24 90 0a 00 	movq   $0x9,0xa90(%rsp)
    603b:	00 09 00 00 00 
    6040:	66 c7 84 24 a0 0a 00 	movw   $0x100,0xaa0(%rsp)
    6047:	00 00 01 
    604a:	c6 84 24 a2 0a 00 00 	movb   $0x1,0xaa2(%rsp)
    6051:	01 
    6052:	48 c7 84 24 b8 0a 00 	movq   $0x5,0xab8(%rsp)
    6059:	00 05 00 00 00 
    605e:	66 c7 84 24 c8 0a 00 	movw   $0x100,0xac8(%rsp)
    6065:	00 00 01 
    6068:	c6 84 24 ca 0a 00 00 	movb   $0x1,0xaca(%rsp)
    606f:	01 
    6070:	48 c7 84 24 e0 0a 00 	movq   $0x6,0xae0(%rsp)
    6077:	00 06 00 00 00 
    607c:	66 c7 84 24 f0 0a 00 	movw   $0x100,0xaf0(%rsp)
    6083:	00 00 01 
    6086:	c6 84 24 f2 0a 00 00 	movb   $0x1,0xaf2(%rsp)
    608d:	01 
    608e:	48 89 84 24 f8 0a 00 	mov    %rax,0xaf8(%rsp)
    6095:	00 
    6096:	48 8d 05 f3 d4 00 00 	lea    0xd4f3(%rip),%rax        # 13590 <__pyx_k_print>
    609d:	48 89 84 24 00 0b 00 	mov    %rax,0xb00(%rsp)
    60a4:	00 
    60a5:	48 8d 05 24 1e 01 00 	lea    0x11e24(%rip),%rax        # 17ed0 <__pyx_mstate_global_static+0x270>
    60ac:	48 89 84 24 20 0b 00 	mov    %rax,0xb20(%rsp)
    60b3:	00 
    60b4:	48 8d 05 85 d2 00 00 	lea    0xd285(%rip),%rax        # 13340 <__pyx_k_progress_bar_1>
    60bb:	48 89 84 24 28 0b 00 	mov    %rax,0xb28(%rsp)
    60c2:	00 
    60c3:	31 c0                	xor    %eax,%eax
    60c5:	48 89 84 24 38 0b 00 	mov    %rax,0xb38(%rsp)
    60cc:	00 
    60cd:	48 8d 05 04 1e 01 00 	lea    0x11e04(%rip),%rax        # 17ed8 <__pyx_mstate_global_static+0x278>
    60d4:	48 89 84 24 48 0b 00 	mov    %rax,0xb48(%rsp)
    60db:	00 
    60dc:	48 8d 05 4d d2 00 00 	lea    0xd24d(%rip),%rax        # 13330 <__pyx_k_progress_bar_2>
    60e3:	48 89 84 24 50 0b 00 	mov    %rax,0xb50(%rsp)
    60ea:	00 
    60eb:	31 c0                	xor    %eax,%eax
    60ed:	48 89 84 24 60 0b 00 	mov    %rax,0xb60(%rsp)
    60f4:	00 
    60f5:	48 8d 05 e4 1d 01 00 	lea    0x11de4(%rip),%rax        # 17ee0 <__pyx_mstate_global_static+0x280>
    60fc:	48 89 84 24 70 0b 00 	mov    %rax,0xb70(%rsp)
    6103:	00 
    6104:	48 8d 05 2e d5 00 00 	lea    0xd52e(%rip),%rax        # 13639 <__pyx_k_raw>
    610b:	48 89 84 24 78 0b 00 	mov    %rax,0xb78(%rsp)
    6112:	00 
    6113:	31 c0                	xor    %eax,%eax
    6115:	48 89 84 24 88 0b 00 	mov    %rax,0xb88(%rsp)
    611c:	00 
    611d:	48 8d 05 c4 1d 01 00 	lea    0x11dc4(%rip),%rax        # 17ee8 <__pyx_mstate_global_static+0x288>
    6124:	48 89 84 24 98 0b 00 	mov    %rax,0xb98(%rsp)
    612b:	00 
    612c:	48 8d 05 ae d4 00 00 	lea    0xd4ae(%rip),%rax        # 135e1 <__pyx_k_read>
    6133:	48 89 84 24 a0 0b 00 	mov    %rax,0xba0(%rsp)
    613a:	00 
    613b:	31 c0                	xor    %eax,%eax
    613d:	48 89 84 24 b0 0b 00 	mov    %rax,0xbb0(%rsp)
    6144:	00 
    6145:	48 8d 05 a4 1d 01 00 	lea    0x11da4(%rip),%rax        # 17ef0 <__pyx_mstate_global_static+0x290>
    614c:	48 89 84 24 c0 0b 00 	mov    %rax,0xbc0(%rsp)
    6153:	00 
    6154:	48 8d 05 15 d1 00 00 	lea    0xd115(%rip),%rax        # 13270 <__pyx_k_readbuttonvalues>
    615b:	48 89 84 24 c8 0b 00 	mov    %rax,0xbc8(%rsp)
    6162:	00 
    6163:	31 c0                	xor    %eax,%eax
    6165:	48 89 ac 24 10 0b 00 	mov    %rbp,0xb10(%rsp)
    616c:	00 
    616d:	31 ed                	xor    %ebp,%ebp
    616f:	48 c7 84 24 08 0b 00 	movq   $0x6,0xb08(%rsp)
    6176:	00 06 00 00 00 
    617b:	66 c7 84 24 18 0b 00 	movw   $0x100,0xb18(%rsp)
    6182:	00 00 01 
    6185:	c6 84 24 1a 0b 00 00 	movb   $0x1,0xb1a(%rsp)
    618c:	01 
    618d:	48 c7 84 24 30 0b 00 	movq   $0xf,0xb30(%rsp)
    6194:	00 0f 00 00 00 
    6199:	66 c7 84 24 40 0b 00 	movw   $0x100,0xb40(%rsp)
    61a0:	00 00 01 
    61a3:	c6 84 24 42 0b 00 00 	movb   $0x1,0xb42(%rsp)
    61aa:	01 
    61ab:	48 c7 84 24 58 0b 00 	movq   $0xf,0xb58(%rsp)
    61b2:	00 0f 00 00 00 
    61b7:	66 c7 84 24 68 0b 00 	movw   $0x100,0xb68(%rsp)
    61be:	00 00 01 
    61c1:	c6 84 24 6a 0b 00 00 	movb   $0x1,0xb6a(%rsp)
    61c8:	01 
    61c9:	48 c7 84 24 80 0b 00 	movq   $0x4,0xb80(%rsp)
    61d0:	00 04 00 00 00 
    61d5:	66 c7 84 24 90 0b 00 	movw   $0x100,0xb90(%rsp)
    61dc:	00 00 01 
    61df:	c6 84 24 92 0b 00 00 	movb   $0x1,0xb92(%rsp)
    61e6:	01 
    61e7:	48 c7 84 24 a8 0b 00 	movq   $0x6,0xba8(%rsp)
    61ee:	00 06 00 00 00 
    61f3:	66 c7 84 24 b8 0b 00 	movw   $0x0,0xbb8(%rsp)
    61fa:	00 00 00 
    61fd:	c6 84 24 ba 0b 00 00 	movb   $0x1,0xbba(%rsp)
    6204:	01 
    6205:	48 c7 84 24 d0 0b 00 	movq   $0x11,0xbd0(%rsp)
    620c:	00 11 00 00 00 
    6211:	48 89 84 24 d8 0b 00 	mov    %rax,0xbd8(%rsp)
    6218:	00 
    6219:	48 8d 05 d8 1c 01 00 	lea    0x11cd8(%rip),%rax        # 17ef8 <__pyx_mstate_global_static+0x298>
    6220:	48 89 84 24 e8 0b 00 	mov    %rax,0xbe8(%rsp)
    6227:	00 
    6228:	48 8d 05 91 d2 00 00 	lea    0xd291(%rip),%rax        # 134c0 <__pyx_k_readline>
    622f:	48 89 84 24 f0 0b 00 	mov    %rax,0xbf0(%rsp)
    6236:	00 
    6237:	48 8d 05 c2 1c 01 00 	lea    0x11cc2(%rip),%rax        # 17f00 <__pyx_mstate_global_static+0x2a0>
    623e:	48 89 84 24 10 0c 00 	mov    %rax,0xc10(%rsp)
    6245:	00 
    6246:	48 8d 05 cb d2 00 00 	lea    0xd2cb(%rip),%rax        # 13518 <__pyx_k_refresh>
    624d:	48 89 84 24 18 0c 00 	mov    %rax,0xc18(%rsp)
    6254:	00 
    6255:	48 8d 05 ac 1c 01 00 	lea    0x11cac(%rip),%rax        # 17f08 <__pyx_mstate_global_static+0x2a8>
    625c:	48 89 84 24 38 0c 00 	mov    %rax,0xc38(%rsp)
    6263:	00 
    6264:	48 8d 05 b5 d0 00 00 	lea    0xd0b5(%rip),%rax        # 13320 <__pyx_k_refresh_serial>
    626b:	48 89 84 24 40 0c 00 	mov    %rax,0xc40(%rsp)
    6272:	00 
    6273:	48 8d 05 96 1c 01 00 	lea    0x11c96(%rip),%rax        # 17f10 <__pyx_mstate_global_static+0x2b0>
    627a:	48 89 84 24 60 0c 00 	mov    %rax,0xc60(%rsp)
    6281:	00 
    6282:	48 8d 05 87 ce 00 00 	lea    0xce87(%rip),%rax        # 13110 <__pyx_k_render_dearpygui_frame>
    6289:	48 89 84 24 68 0c 00 	mov    %rax,0xc68(%rsp)
    6290:	00 
    6291:	48 8d 05 80 1c 01 00 	lea    0x11c80(%rip),%rax        # 17f18 <__pyx_mstate_global_static+0x2b8>
    6298:	48 89 84 24 88 0c 00 	mov    %rax,0xc88(%rsp)
    629f:	00 
    62a0:	48 8d 05 8e d3 00 00 	lea    0xd38e(%rip),%rax        # 13635 <__pyx_k_ser>
    62a7:	48 89 84 24 90 0c 00 	mov    %rax,0xc90(%rsp)
    62ae:	00 
    62af:	48 8d 05 6a 1c 01 00 	lea    0x11c6a(%rip),%rax        # 17f20 <__pyx_mstate_global_static+0x2c0>
    62b6:	48 89 94 24 00 0c 00 	mov    %rdx,0xc00(%rsp)
    62bd:	00 
    62be:	31 d2                	xor    %edx,%edx
    62c0:	48 89 8c 24 28 0c 00 	mov    %rcx,0xc28(%rsp)
    62c7:	00 
    62c8:	31 c9                	xor    %ecx,%ecx
    62ca:	48 89 b4 24 50 0c 00 	mov    %rsi,0xc50(%rsp)
    62d1:	00 
    62d2:	31 f6                	xor    %esi,%esi
    62d4:	48 89 bc 24 78 0c 00 	mov    %rdi,0xc78(%rsp)
    62db:	00 
    62dc:	31 ff                	xor    %edi,%edi
    62de:	4c 89 84 24 a0 0c 00 	mov    %r8,0xca0(%rsp)
    62e5:	00 
    62e6:	66 c7 84 24 e0 0b 00 	movw   $0x100,0xbe0(%rsp)
    62ed:	00 00 01 
    62f0:	c6 84 24 e2 0b 00 00 	movb   $0x1,0xbe2(%rsp)
    62f7:	01 
    62f8:	48 c7 84 24 f8 0b 00 	movq   $0x9,0xbf8(%rsp)
    62ff:	00 09 00 00 00 
    6304:	66 c7 84 24 08 0c 00 	movw   $0x100,0xc08(%rsp)
    630b:	00 00 01 
    630e:	c6 84 24 0a 0c 00 00 	movb   $0x1,0xc0a(%rsp)
    6315:	01 
    6316:	48 c7 84 24 20 0c 00 	movq   $0x8,0xc20(%rsp)
    631d:	00 08 00 00 00 
    6322:	66 c7 84 24 30 0c 00 	movw   $0x100,0xc30(%rsp)
    6329:	00 00 01 
    632c:	c6 84 24 32 0c 00 00 	movb   $0x1,0xc32(%rsp)
    6333:	01 
    6334:	48 c7 84 24 48 0c 00 	movq   $0xf,0xc48(%rsp)
    633b:	00 0f 00 00 00 
    6340:	66 c7 84 24 58 0c 00 	movw   $0x100,0xc58(%rsp)
    6347:	00 00 01 
    634a:	c6 84 24 5a 0c 00 00 	movb   $0x1,0xc5a(%rsp)
    6351:	01 
    6352:	48 c7 84 24 70 0c 00 	movq   $0x17,0xc70(%rsp)
    6359:	00 17 00 00 00 
    635e:	66 c7 84 24 80 0c 00 	movw   $0x100,0xc80(%rsp)
    6365:	00 00 01 
    6368:	c6 84 24 82 0c 00 00 	movb   $0x1,0xc82(%rsp)
    636f:	01 
    6370:	48 c7 84 24 98 0c 00 	movq   $0x4,0xc98(%rsp)
    6377:	00 04 00 00 00 
    637c:	66 c7 84 24 a8 0c 00 	movw   $0x100,0xca8(%rsp)
    6383:	00 00 01 
    6386:	c6 84 24 aa 0c 00 00 	movb   $0x1,0xcaa(%rsp)
    638d:	01 
    638e:	48 89 84 24 b0 0c 00 	mov    %rax,0xcb0(%rsp)
    6395:	00 
    6396:	48 8d 05 aa d1 00 00 	lea    0xd1aa(%rip),%rax        # 13547 <__pyx_k_serial>
    639d:	48 89 84 24 b8 0c 00 	mov    %rax,0xcb8(%rsp)
    63a4:	00 
    63a5:	48 8d 05 7c 1b 01 00 	lea    0x11b7c(%rip),%rax        # 17f28 <__pyx_mstate_global_static+0x2c8>
    63ac:	48 89 84 24 d8 0c 00 	mov    %rax,0xcd8(%rsp)
    63b3:	00 
    63b4:	48 8d 05 35 d0 00 00 	lea    0xd035(%rip),%rax        # 133f0 <__pyx_k_serial_port>
    63bb:	48 89 84 24 e0 0c 00 	mov    %rax,0xce0(%rsp)
    63c2:	00 
    63c3:	48 8d 05 66 1b 01 00 	lea    0x11b66(%rip),%rax        # 17f30 <__pyx_mstate_global_static+0x2d0>
    63ca:	48 89 84 24 00 0d 00 	mov    %rax,0xd00(%rsp)
    63d1:	00 
    63d2:	48 8d 05 d7 cf 00 00 	lea    0xcfd7(%rip),%rax        # 133b0 <__pyx_k_serial_ports>
    63d9:	48 89 84 24 08 0d 00 	mov    %rax,0xd08(%rsp)
    63e0:	00 
    63e1:	48 8d 05 50 1b 01 00 	lea    0x11b50(%rip),%rax        # 17f38 <__pyx_mstate_global_static+0x2d8>
    63e8:	48 89 84 24 28 0d 00 	mov    %rax,0xd28(%rsp)
    63ef:	00 
    63f0:	48 8d 05 d9 cc 00 00 	lea    0xccd9(%rip),%rax        # 130d0 <__pyx_k_serial_tools_list_ports>
    63f7:	48 89 84 24 30 0d 00 	mov    %rax,0xd30(%rsp)
    63fe:	00 
    63ff:	48 8d 05 3a 1b 01 00 	lea    0x11b3a(%rip),%rax        # 17f40 <__pyx_mstate_global_static+0x2e0>
    6406:	48 89 84 24 50 0d 00 	mov    %rax,0xd50(%rsp)
    640d:	00 
    640e:	48 8d 05 7b cd 00 00 	lea    0xcd7b(%rip),%rax        # 13190 <__pyx_k_set_primary_window>
    6415:	48 89 84 24 58 0d 00 	mov    %rax,0xd58(%rsp)
    641c:	00 
    641d:	48 8d 05 24 1b 01 00 	lea    0x11b24(%rip),%rax        # 17f48 <__pyx_mstate_global_static+0x2e8>
    6424:	48 89 84 24 78 0d 00 	mov    %rax,0xd78(%rsp)
    642b:	00 
    642c:	48 8d 05 4d d0 00 00 	lea    0xd04d(%rip),%rax        # 13480 <__pyx_k_set_value>
    6433:	48 89 84 24 80 0d 00 	mov    %rax,0xd80(%rsp)
    643a:	00 
    643b:	31 c0                	xor    %eax,%eax
    643d:	4c 89 8c 24 c8 0c 00 	mov    %r9,0xcc8(%rsp)
    6444:	00 
    6445:	4c 89 94 24 f0 0c 00 	mov    %r10,0xcf0(%rsp)
    644c:	00 
    644d:	4c 89 9c 24 18 0d 00 	mov    %r11,0xd18(%rsp)
    6454:	00 
    6455:	48 89 9c 24 40 0d 00 	mov    %rbx,0xd40(%rsp)
    645c:	00 
    645d:	48 89 ac 24 68 0d 00 	mov    %rbp,0xd68(%rsp)
    6464:	00 
    6465:	48 c7 84 24 c0 0c 00 	movq   $0x7,0xcc0(%rsp)
    646c:	00 07 00 00 00 
    6471:	66 c7 84 24 d0 0c 00 	movw   $0x100,0xcd0(%rsp)
    6478:	00 00 01 
    647b:	c6 84 24 d2 0c 00 00 	movb   $0x1,0xcd2(%rsp)
    6482:	01 
    6483:	48 c7 84 24 e8 0c 00 	movq   $0xc,0xce8(%rsp)
    648a:	00 0c 00 00 00 
    648f:	66 c7 84 24 f8 0c 00 	movw   $0x100,0xcf8(%rsp)
    6496:	00 00 01 
    6499:	c6 84 24 fa 0c 00 00 	movb   $0x1,0xcfa(%rsp)
    64a0:	01 
    64a1:	48 c7 84 24 10 0d 00 	movq   $0xd,0xd10(%rsp)
    64a8:	00 0d 00 00 00 
    64ad:	66 c7 84 24 20 0d 00 	movw   $0x100,0xd20(%rsp)
    64b4:	00 00 01 
    64b7:	c6 84 24 22 0d 00 00 	movb   $0x1,0xd22(%rsp)
    64be:	01 
    64bf:	48 c7 84 24 38 0d 00 	movq   $0x18,0xd38(%rsp)
    64c6:	00 18 00 00 00 
    64cb:	66 c7 84 24 48 0d 00 	movw   $0x100,0xd48(%rsp)
    64d2:	00 00 01 
    64d5:	c6 84 24 4a 0d 00 00 	movb   $0x1,0xd4a(%rsp)
    64dc:	01 
    64dd:	48 c7 84 24 60 0d 00 	movq   $0x13,0xd60(%rsp)
    64e4:	00 13 00 00 00 
    64e9:	66 c7 84 24 70 0d 00 	movw   $0x100,0xd70(%rsp)
    64f0:	00 00 01 
    64f3:	c6 84 24 72 0d 00 00 	movb   $0x1,0xd72(%rsp)
    64fa:	01 
    64fb:	48 c7 84 24 88 0d 00 	movq   $0xa,0xd88(%rsp)
    6502:	00 0a 00 00 00 
    6507:	48 89 84 24 90 0d 00 	mov    %rax,0xd90(%rsp)
    650e:	00 
    650f:	48 8d 05 3a 1a 01 00 	lea    0x11a3a(%rip),%rax        # 17f50 <__pyx_mstate_global_static+0x2f0>
    6516:	48 89 84 24 a0 0d 00 	mov    %rax,0xda0(%rsp)
    651d:	00 
    651e:	48 8d 05 ab cd 00 00 	lea    0xcdab(%rip),%rax        # 132d0 <__pyx_k_setup_dearpygui>
    6525:	48 89 84 24 a8 0d 00 	mov    %rax,0xda8(%rsp)
    652c:	00 
    652d:	31 c0                	xor    %eax,%eax
    652f:	48 89 84 24 b8 0d 00 	mov    %rax,0xdb8(%rsp)
    6536:	00 
    6537:	48 8d 05 1a 1a 01 00 	lea    0x11a1a(%rip),%rax        # 17f58 <__pyx_mstate_global_static+0x2f8>
    653e:	48 89 84 24 c8 0d 00 	mov    %rax,0xdc8(%rsp)
    6545:	00 
    6546:	48 8d 05 33 ce 00 00 	lea    0xce33(%rip),%rax        # 13380 <__pyx_k_show_viewport>
    654d:	48 89 84 24 d0 0d 00 	mov    %rax,0xdd0(%rsp)
    6554:	00 
    6555:	31 c0                	xor    %eax,%eax
    6557:	48 89 84 24 e0 0d 00 	mov    %rax,0xde0(%rsp)
    655e:	00 
    655f:	48 8d 05 fa 19 01 00 	lea    0x119fa(%rip),%rax        # 17f60 <__pyx_mstate_global_static+0x300>
    6566:	48 89 84 24 f0 0d 00 	mov    %rax,0xdf0(%rsp)
    656d:	00 
    656e:	48 8d 05 63 d0 00 00 	lea    0xd063(%rip),%rax        # 135d8 <__pyx_k_spec>
    6575:	48 89 84 24 f8 0d 00 	mov    %rax,0xdf8(%rsp)
    657c:	00 
    657d:	31 c0                	xor    %eax,%eax
    657f:	48 89 84 24 08 0e 00 	mov    %rax,0xe08(%rsp)
    6586:	00 
    6587:	48 8d 05 da 19 01 00 	lea    0x119da(%rip),%rax        # 17f68 <__pyx_mstate_global_static+0x308>
    658e:	48 89 84 24 18 0e 00 	mov    %rax,0xe18(%rsp)
    6595:	00 
    6596:	48 8d 05 94 d0 00 00 	lea    0xd094(%rip),%rax        # 13631 <__pyx_k_tag>
    659d:	48 89 84 24 20 0e 00 	mov    %rax,0xe20(%rsp)
    65a4:	00 
    65a5:	31 c0                	xor    %eax,%eax
    65a7:	45 31 c0             	xor    %r8d,%r8d
    65aa:	31 db                	xor    %ebx,%ebx
    65ac:	48 89 84 24 30 0e 00 	mov    %rax,0xe30(%rsp)
    65b3:	00 
    65b4:	45 31 c9             	xor    %r9d,%r9d
    65b7:	45 31 d2             	xor    %r10d,%r10d
    65ba:	31 ed                	xor    %ebp,%ebp
    65bc:	48 8d 05 ad 19 01 00 	lea    0x119ad(%rip),%rax        # 17f70 <__pyx_mstate_global_static+0x310>
    65c3:	45 31 db             	xor    %r11d,%r11d
    65c6:	66 c7 84 24 98 0d 00 	movw   $0x100,0xd98(%rsp)
    65cd:	00 00 01 
    65d0:	48 89 84 24 40 0e 00 	mov    %rax,0xe40(%rsp)
    65d7:	00 
    65d8:	48 8d 05 e9 cf 00 00 	lea    0xcfe9(%rip),%rax        # 135c8 <__pyx_k_test>
    65df:	48 89 84 24 48 0e 00 	mov    %rax,0xe48(%rsp)
    65e6:	00 
    65e7:	48 8d 05 8a 19 01 00 	lea    0x1198a(%rip),%rax        # 17f78 <__pyx_mstate_global_static+0x318>
    65ee:	c6 84 24 9a 0d 00 00 	movb   $0x1,0xd9a(%rsp)
    65f5:	01 
    65f6:	48 c7 84 24 b0 0d 00 	movq   $0x10,0xdb0(%rsp)
    65fd:	00 10 00 00 00 
    6602:	66 c7 84 24 c0 0d 00 	movw   $0x100,0xdc0(%rsp)
    6609:	00 00 01 
    660c:	c6 84 24 c2 0d 00 00 	movb   $0x1,0xdc2(%rsp)
    6613:	01 
    6614:	48 c7 84 24 d8 0d 00 	movq   $0xe,0xdd8(%rsp)
    661b:	00 0e 00 00 00 
    6620:	66 c7 84 24 e8 0d 00 	movw   $0x100,0xde8(%rsp)
    6627:	00 00 01 
    662a:	c6 84 24 ea 0d 00 00 	movb   $0x1,0xdea(%rsp)
    6631:	01 
    6632:	48 c7 84 24 00 0e 00 	movq   $0x9,0xe00(%rsp)
    6639:	00 09 00 00 00 
    663e:	c6 84 24 10 0e 00 00 	movb   $0x0,0xe10(%rsp)
    6645:	00 
    6646:	66 c7 84 24 11 0e 00 	movw   $0x101,0xe11(%rsp)
    664d:	00 01 01 
    6650:	48 c7 84 24 28 0e 00 	movq   $0x4,0xe28(%rsp)
    6657:	00 04 00 00 00 
    665c:	66 c7 84 24 38 0e 00 	movw   $0x100,0xe38(%rsp)
    6663:	00 00 01 
    6666:	c6 84 24 3a 0e 00 00 	movb   $0x1,0xe3a(%rsp)
    666d:	01 
    666e:	48 c7 84 24 50 0e 00 	movq   $0x9,0xe50(%rsp)
    6675:	00 09 00 00 00 
    667a:	48 89 94 24 58 0e 00 	mov    %rdx,0xe58(%rsp)
    6681:	00 
    6682:	66 c7 84 24 60 0e 00 	movw   $0x100,0xe60(%rsp)
    6689:	00 00 01 
    668c:	c6 84 24 62 0e 00 00 	movb   $0x1,0xe62(%rsp)
    6693:	01 
    6694:	48 89 84 24 68 0e 00 	mov    %rax,0xe68(%rsp)
    669b:	00 
    669c:	48 8d 05 1f cf 00 00 	lea    0xcf1f(%rip),%rax        # 135c2 <__pyx_k_time>
    66a3:	48 89 84 24 70 0e 00 	mov    %rax,0xe70(%rsp)
    66aa:	00 
    66ab:	48 8d 05 ce 18 01 00 	lea    0x118ce(%rip),%rax        # 17f80 <__pyx_mstate_global_static+0x320>
    66b2:	48 89 84 24 90 0e 00 	mov    %rax,0xe90(%rsp)
    66b9:	00 
    66ba:	48 8d 05 4f ce 00 00 	lea    0xce4f(%rip),%rax        # 13510 <__pyx_k_timeout>
    66c1:	48 89 84 24 98 0e 00 	mov    %rax,0xe98(%rsp)
    66c8:	00 
    66c9:	48 8d 05 b8 18 01 00 	lea    0x118b8(%rip),%rax        # 17f88 <__pyx_mstate_global_static+0x328>
    66d0:	48 89 84 24 b8 0e 00 	mov    %rax,0xeb8(%rsp)
    66d7:	00 
    66d8:	48 8d 05 ab ce 00 00 	lea    0xceab(%rip),%rax        # 1358a <__pyx_k_title>
    66df:	48 89 84 24 c0 0e 00 	mov    %rax,0xec0(%rsp)
    66e6:	00 
    66e7:	48 8d 05 a2 18 01 00 	lea    0x118a2(%rip),%rax        # 17f90 <__pyx_mstate_global_static+0x330>
    66ee:	48 89 84 24 e0 0e 00 	mov    %rax,0xee0(%rsp)
    66f5:	00 
    66f6:	48 8d 05 87 ce 00 00 	lea    0xce87(%rip),%rax        # 13584 <__pyx_k_tools>
    66fd:	48 89 84 24 e8 0e 00 	mov    %rax,0xee8(%rsp)
    6704:	00 
    6705:	48 8d 05 8c 18 01 00 	lea    0x1188c(%rip),%rax        # 17f98 <__pyx_mstate_global_static+0x338>
    670c:	48 89 84 24 08 0f 00 	mov    %rax,0xf08(%rsp)
    6713:	00 
    6714:	48 8d 05 35 cb 00 00 	lea    0xcb35(%rip),%rax        # 13250 <__pyx_k_val_to_calibrate>
    671b:	48 89 84 24 10 0f 00 	mov    %rax,0xf10(%rsp)
    6722:	00 
    6723:	48 8d 05 76 18 01 00 	lea    0x11876(%rip),%rax        # 17fa0 <__pyx_mstate_global_static+0x340>
    672a:	48 89 84 24 30 0f 00 	mov    %rax,0xf30(%rsp)
    6731:	00 
    6732:	48 8d 05 45 ce 00 00 	lea    0xce45(%rip),%rax        # 1357e <__pyx_k_width>
    6739:	48 89 84 24 38 0f 00 	mov    %rax,0xf38(%rsp)
    6740:	00 
    6741:	48 8d 05 60 18 01 00 	lea    0x11860(%rip),%rax        # 17fa8 <__pyx_mstate_global_static+0x348>
    6748:	48 c7 84 24 78 0e 00 	movq   $0x5,0xe78(%rsp)
    674f:	00 05 00 00 00 
    6754:	48 89 8c 24 80 0e 00 	mov    %rcx,0xe80(%rsp)
    675b:	00 
    675c:	66 c7 84 24 88 0e 00 	movw   $0x100,0xe88(%rsp)
    6763:	00 00 01 
    6766:	c6 84 24 8a 0e 00 00 	movb   $0x1,0xe8a(%rsp)
    676d:	01 
    676e:	48 c7 84 24 a0 0e 00 	movq   $0x8,0xea0(%rsp)
    6775:	00 08 00 00 00 
    677a:	48 89 b4 24 a8 0e 00 	mov    %rsi,0xea8(%rsp)
    6781:	00 
    6782:	66 c7 84 24 b0 0e 00 	movw   $0x100,0xeb0(%rsp)
    6789:	00 00 01 
    678c:	c6 84 24 b2 0e 00 00 	movb   $0x1,0xeb2(%rsp)
    6793:	01 
    6794:	48 c7 84 24 c8 0e 00 	movq   $0x6,0xec8(%rsp)
    679b:	00 06 00 00 00 
    67a0:	48 89 bc 24 d0 0e 00 	mov    %rdi,0xed0(%rsp)
    67a7:	00 
    67a8:	66 c7 84 24 d8 0e 00 	movw   $0x100,0xed8(%rsp)
    67af:	00 00 01 
    67b2:	c6 84 24 da 0e 00 00 	movb   $0x1,0xeda(%rsp)
    67b9:	01 
    67ba:	48 c7 84 24 f0 0e 00 	movq   $0x6,0xef0(%rsp)
    67c1:	00 06 00 00 00 
    67c6:	4c 89 84 24 f8 0e 00 	mov    %r8,0xef8(%rsp)
    67cd:	00 
    67ce:	66 c7 84 24 00 0f 00 	movw   $0x100,0xf00(%rsp)
    67d5:	00 00 01 
    67d8:	c6 84 24 02 0f 00 00 	movb   $0x1,0xf02(%rsp)
    67df:	01 
    67e0:	48 c7 84 24 18 0f 00 	movq   $0x11,0xf18(%rsp)
    67e7:	00 11 00 00 00 
    67ec:	4c 89 8c 24 20 0f 00 	mov    %r9,0xf20(%rsp)
    67f3:	00 
    67f4:	66 c7 84 24 28 0f 00 	movw   $0x100,0xf28(%rsp)
    67fb:	00 00 01 
    67fe:	c6 84 24 2a 0f 00 00 	movb   $0x1,0xf2a(%rsp)
    6805:	01 
    6806:	48 c7 84 24 40 0f 00 	movq   $0x6,0xf40(%rsp)
    680d:	00 06 00 00 00 
    6812:	4c 89 94 24 48 0f 00 	mov    %r10,0xf48(%rsp)
    6819:	00 
    681a:	48 89 84 24 58 0f 00 	mov    %rax,0xf58(%rsp)
    6821:	00 
    6822:	48 8d 05 17 cd 00 00 	lea    0xcd17(%rip),%rax        # 13540 <__pyx_k_window>
    6829:	48 89 84 24 60 0f 00 	mov    %rax,0xf60(%rsp)
    6830:	00 
    6831:	48 8d 05 78 17 01 00 	lea    0x11778(%rip),%rax        # 17fb0 <__pyx_mstate_global_static+0x350>
    6838:	48 89 84 24 80 0f 00 	mov    %rax,0xf80(%rsp)
    683f:	00 
    6840:	48 8d 05 f1 cc 00 00 	lea    0xccf1(%rip),%rax        # 13538 <__pyx_k_wrbtn1>
    6847:	48 89 84 24 88 0f 00 	mov    %rax,0xf88(%rsp)
    684e:	00 
    684f:	48 8d 05 62 17 01 00 	lea    0x11762(%rip),%rax        # 17fb8 <__pyx_mstate_global_static+0x358>
    6856:	48 89 84 24 a8 0f 00 	mov    %rax,0xfa8(%rsp)
    685d:	00 
    685e:	48 8d 05 13 cd 00 00 	lea    0xcd13(%rip),%rax        # 13578 <__pyx_k_write>
    6865:	48 89 84 24 b0 0f 00 	mov    %rax,0xfb0(%rsp)
    686c:	00 
    686d:	31 c0                	xor    %eax,%eax
    686f:	66 c7 84 24 50 0f 00 	movw   $0x100,0xf50(%rsp)
    6876:	00 00 01 
    6879:	c6 84 24 52 0f 00 00 	movb   $0x1,0xf52(%rsp)
    6880:	01 
    6881:	48 c7 84 24 68 0f 00 	movq   $0x7,0xf68(%rsp)
    6888:	00 07 00 00 00 
    688d:	4c 89 9c 24 70 0f 00 	mov    %r11,0xf70(%rsp)
    6894:	00 
    6895:	66 c7 84 24 78 0f 00 	movw   $0x100,0xf78(%rsp)
    689c:	00 00 01 
    689f:	c6 84 24 7a 0f 00 00 	movb   $0x1,0xf7a(%rsp)
    68a6:	01 
    68a7:	48 c7 84 24 90 0f 00 	movq   $0x8,0xf90(%rsp)
    68ae:	00 08 00 00 00 
    68b3:	48 89 9c 24 98 0f 00 	mov    %rbx,0xf98(%rsp)
    68ba:	00 
    68bb:	66 c7 84 24 a0 0f 00 	movw   $0x1,0xfa0(%rsp)
    68c2:	00 01 00 
    68c5:	c6 84 24 a2 0f 00 00 	movb   $0x0,0xfa2(%rsp)
    68cc:	00 
    68cd:	48 c7 84 24 b8 0f 00 	movq   $0x6,0xfb8(%rsp)
    68d4:	00 06 00 00 00 
    68d9:	66 c7 84 24 c8 0f 00 	movw   $0x100,0xfc8(%rsp)
    68e0:	00 00 01 
    68e3:	c6 84 24 ca 0f 00 00 	movb   $0x1,0xfca(%rsp)
    68ea:	01 
    68eb:	48 89 84 24 d0 0f 00 	mov    %rax,0xfd0(%rsp)
    68f2:	00 
    68f3:	48 89 84 24 d8 0f 00 	mov    %rax,0xfd8(%rsp)
    68fa:	00 
    68fb:	48 89 84 24 e0 0f 00 	mov    %rax,0xfe0(%rsp)
    6902:	00 
    6903:	48 89 84 24 e8 0f 00 	mov    %rax,0xfe8(%rsp)
    690a:	00 
    690b:	66 c7 84 24 f0 0f 00 	movw   $0x0,0xff0(%rsp)
    6912:	00 00 00 
    6915:	c6 84 24 f2 0f 00 00 	movb   $0x0,0xff2(%rsp)
    691c:	00 
    691d:	48 89 ac 24 c0 0f 00 	mov    %rbp,0xfc0(%rsp)
    6924:	00 
    6925:	48 8d 6c 24 08       	lea    0x8(%rsp),%rbp
    692a:	48 8b 5d 00          	mov    0x0(%rbp),%rbx
    692e:	48 85 db             	test   %rbx,%rbx
    6931:	74 57                	je     698a <__Pyx_CreateStringTabAndInitStrings.isra.0+0x1c37>
    6933:	8a 45 20             	mov    0x20(%rbp),%al
    6936:	0a 45 21             	or     0x21(%rbp),%al
    6939:	48 8b 7d 08          	mov    0x8(%rbp),%rdi
    693d:	48 8b 75 10          	mov    0x10(%rbp),%rsi
    6941:	74 29                	je     696c <__Pyx_CreateStringTabAndInitStrings.isra.0+0x1c19>
    6943:	80 7d 22 00          	cmpb   $0x0,0x22(%rbp)
    6947:	74 07                	je     6950 <__Pyx_CreateStringTabAndInitStrings.isra.0+0x1bfd>
    6949:	e8 22 da ff ff       	call   4370 <PyUnicode_InternFromString@plt>
    694e:	eb 24                	jmp    6974 <__Pyx_CreateStringTabAndInitStrings.isra.0+0x1c21>
    6950:	48 8b 55 18          	mov    0x18(%rbp),%rdx
    6954:	48 ff ce             	dec    %rsi
    6957:	48 85 d2             	test   %rdx,%rdx
    695a:	74 09                	je     6965 <__Pyx_CreateStringTabAndInitStrings.isra.0+0x1c12>
    695c:	31 c9                	xor    %ecx,%ecx
    695e:	e8 2d db ff ff       	call   4490 <PyUnicode_Decode@plt>
    6963:	eb 0f                	jmp    6974 <__Pyx_CreateStringTabAndInitStrings.isra.0+0x1c21>
    6965:	e8 d6 dd ff ff       	call   4740 <PyUnicode_FromStringAndSize@plt>
    696a:	eb 08                	jmp    6974 <__Pyx_CreateStringTabAndInitStrings.isra.0+0x1c21>
    696c:	48 ff ce             	dec    %rsi
    696f:	e8 2c dc ff ff       	call   45a0 <PyBytes_FromStringAndSize@plt>
    6974:	48 89 03             	mov    %rax,(%rbx)
    6977:	48 85 c0             	test   %rax,%rax
    697a:	74 08                	je     6984 <__Pyx_CreateStringTabAndInitStrings.isra.0+0x1c31>
    697c:	48 89 c7             	mov    %rax,%rdi
    697f:	e8 5c db ff ff       	call   44e0 <PyObject_Hash@plt>
    6984:	48 83 c5 28          	add    $0x28,%rbp
    6988:	eb a0                	jmp    692a <__Pyx_CreateStringTabAndInitStrings.isra.0+0x1bd7>
    698a:	48 8b 84 24 f8 0f 00 	mov    0xff8(%rsp),%rax
    6991:	00 
    6992:	64 48 2b 04 25 28 00 	sub    %fs:0x28,%rax
    6999:	00 00 
    699b:	74 05                	je     69a2 <__Pyx_CreateStringTabAndInitStrings.isra.0+0x1c4f>
    699d:	e8 8e db ff ff       	call   4530 <__stack_chk_fail@plt>
    69a2:	48 81 c4 08 10 00 00 	add    $0x1008,%rsp
    69a9:	5b                   	pop    %rbx
    69aa:	5d                   	pop    %rbp
    69ab:	c3                   	ret

00000000000069ac <__Pyx_Import.constprop.0>:
    69ac:	53                   	push   %rbx
    69ad:	48 83 ec 10          	sub    $0x10,%rsp
    69b1:	48 89 7c 24 08       	mov    %rdi,0x8(%rsp)
    69b6:	e8 15 de ff ff       	call   47d0 <PyDict_New@plt>
    69bb:	48 89 c3             	mov    %rax,%rbx
    69be:	31 c0                	xor    %eax,%eax
    69c0:	48 85 db             	test   %rbx,%rbx
    69c3:	74 19                	je     69de <__Pyx_Import.constprop.0+0x32>
    69c5:	48 8b 35 94 12 01 00 	mov    0x11294(%rip),%rsi        # 17c60 <__pyx_mstate_global_static>
    69cc:	45 31 c0             	xor    %r8d,%r8d
    69cf:	31 c9                	xor    %ecx,%ecx
    69d1:	48 89 da             	mov    %rbx,%rdx
    69d4:	48 8b 7c 24 08       	mov    0x8(%rsp),%rdi
    69d9:	e8 42 da ff ff       	call   4420 <PyImport_ImportModuleLevelObject@plt>
    69de:	48 89 df             	mov    %rbx,%rdi
    69e1:	48 89 44 24 08       	mov    %rax,0x8(%rsp)
    69e6:	e8 b3 4c 00 00       	call   b69e <Py_XDECREF>
    69eb:	48 8b 44 24 08       	mov    0x8(%rsp),%rax
    69f0:	48 83 c4 10          	add    $0x10,%rsp
    69f4:	5b                   	pop    %rbx
    69f5:	c3                   	ret

00000000000069f6 <__Pyx_CyFunction_New.constprop.0>:
    69f6:	41 57                	push   %r15
    69f8:	4d 89 c7             	mov    %r8,%r15
    69fb:	41 56                	push   %r14
    69fd:	49 89 d6             	mov    %rdx,%r14
    6a00:	41 55                	push   %r13
    6a02:	49 89 fd             	mov    %rdi,%r13
    6a05:	41 54                	push   %r12
    6a07:	49 89 f4             	mov    %rsi,%r12
    6a0a:	55                   	push   %rbp
    6a0b:	48 89 cd             	mov    %rcx,%rbp
    6a0e:	53                   	push   %rbx
    6a0f:	53                   	push   %rbx
    6a10:	48 8b 3d 79 12 01 00 	mov    0x11279(%rip),%rdi        # 17c90 <__pyx_mstate_global_static+0x30>
    6a17:	e8 84 d9 ff ff       	call   43a0 <_PyObject_GC_New@plt>
    6a1c:	48 85 c0             	test   %rax,%rax
    6a1f:	0f 84 2a 01 00 00    	je     6b4f <__Pyx_CyFunction_New.constprop.0+0x159>
    6a25:	45 31 c0             	xor    %r8d,%r8d
    6a28:	45 31 c9             	xor    %r9d,%r9d
    6a2b:	45 31 d2             	xor    %r10d,%r10d
    6a2e:	4c 89 68 10          	mov    %r13,0x10(%rax)
    6a32:	44 89 80 90 00 00 00 	mov    %r8d,0x90(%rax)
    6a39:	4c 89 f7             	mov    %r14,%rdi
    6a3c:	48 89 c3             	mov    %rax,%rbx
    6a3f:	45 31 db             	xor    %r11d,%r11d
    6a42:	4c 89 48 28          	mov    %r9,0x28(%rax)
    6a46:	48 89 40 18          	mov    %rax,0x18(%rax)
    6a4a:	4c 89 50 70          	mov    %r10,0x70(%rax)
    6a4e:	e8 46 47 00 00       	call   b199 <Py_XINCREF>
    6a53:	41 8b 04 24          	mov    (%r12),%eax
    6a57:	4c 89 73 20          	mov    %r14,0x20(%rbx)
    6a5b:	4c 89 5b 40          	mov    %r11,0x40(%rbx)
    6a5f:	4c 89 5b 48          	mov    %r11,0x48(%rbx)
    6a63:	ff c0                	inc    %eax
    6a65:	74 04                	je     6a6b <__Pyx_CyFunction_New.constprop.0+0x75>
    6a67:	41 89 04 24          	mov    %eax,(%r12)
    6a6b:	8b 45 00             	mov    0x0(%rbp),%eax
    6a6e:	31 ff                	xor    %edi,%edi
    6a70:	4c 89 63 50          	mov    %r12,0x50(%rbx)
    6a74:	48 89 7b 58          	mov    %rdi,0x58(%rbx)
    6a78:	48 89 7b 38          	mov    %rdi,0x38(%rbx)
    6a7c:	48 89 6b 60          	mov    %rbp,0x60(%rbx)
    6a80:	ff c0                	inc    %eax
    6a82:	74 03                	je     6a87 <__Pyx_CyFunction_New.constprop.0+0x91>
    6a84:	89 45 00             	mov    %eax,0x0(%rbp)
    6a87:	4c 89 ff             	mov    %r15,%rdi
    6a8a:	31 f6                	xor    %esi,%esi
    6a8c:	31 c9                	xor    %ecx,%ecx
    6a8e:	e8 06 47 00 00       	call   b199 <Py_XINCREF>
    6a93:	41 8b 45 10          	mov    0x10(%r13),%eax
    6a97:	4c 89 7b 68          	mov    %r15,0x68(%rbx)
    6a9b:	89 8b 80 00 00 00    	mov    %ecx,0x80(%rbx)
    6aa1:	25 8f 02 00 00       	and    $0x28f,%eax
    6aa6:	48 89 b3 88 00 00 00 	mov    %rsi,0x88(%rbx)
    6aad:	48 89 73 78          	mov    %rsi,0x78(%rbx)
    6ab1:	48 89 b3 98 00 00 00 	mov    %rsi,0x98(%rbx)
    6ab8:	48 89 b3 a0 00 00 00 	mov    %rsi,0xa0(%rbx)
    6abf:	48 89 b3 a8 00 00 00 	mov    %rsi,0xa8(%rbx)
    6ac6:	48 89 b3 b0 00 00 00 	mov    %rsi,0xb0(%rbx)
    6acd:	48 89 b3 b8 00 00 00 	mov    %rsi,0xb8(%rbx)
    6ad4:	83 f8 08             	cmp    $0x8,%eax
    6ad7:	74 54                	je     6b2d <__Pyx_CyFunction_New.constprop.0+0x137>
    6ad9:	7f 11                	jg     6aec <__Pyx_CyFunction_New.constprop.0+0xf6>
    6adb:	83 f8 03             	cmp    $0x3,%eax
    6ade:	74 56                	je     6b36 <__Pyx_CyFunction_New.constprop.0+0x140>
    6ae0:	48 8d 15 7e 54 00 00 	lea    0x547e(%rip),%rdx        # bf65 <__Pyx_CyFunction_Vectorcall_NOARGS>
    6ae7:	83 f8 04             	cmp    $0x4,%eax
    6aea:	eb 13                	jmp    6aff <__Pyx_CyFunction_New.constprop.0+0x109>
    6aec:	3d 82 00 00 00       	cmp    $0x82,%eax
    6af1:	74 47                	je     6b3a <__Pyx_CyFunction_New.constprop.0+0x144>
    6af3:	48 8d 15 74 53 00 00 	lea    0x5374(%rip),%rdx        # be6e <__Pyx_CyFunction_Vectorcall_FASTCALL_KEYWORDS_METHOD>
    6afa:	3d 82 02 00 00       	cmp    $0x282,%eax
    6aff:	74 40                	je     6b41 <__Pyx_CyFunction_New.constprop.0+0x14b>
    6b01:	48 8b 3d 58 01 01 00 	mov    0x10158(%rip),%rdi        # 16c60 <PyExc_SystemError@@Base>
    6b08:	48 8d 35 33 b9 00 00 	lea    0xb933(%rip),%rsi        # 12442 <_IO_stdin_used+0x442>
    6b0f:	e8 ec db ff ff       	call   4700 <PyErr_SetString@plt>
    6b14:	48 8b 03             	mov    (%rbx),%rax
    6b17:	85 c0                	test   %eax,%eax
    6b19:	78 34                	js     6b4f <__Pyx_CyFunction_New.constprop.0+0x159>
    6b1b:	48 ff c8             	dec    %rax
    6b1e:	48 89 03             	mov    %rax,(%rbx)
    6b21:	75 2c                	jne    6b4f <__Pyx_CyFunction_New.constprop.0+0x159>
    6b23:	48 89 df             	mov    %rbx,%rdi
    6b26:	e8 25 db ff ff       	call   4650 <_Py_Dealloc@plt>
    6b2b:	eb 22                	jmp    6b4f <__Pyx_CyFunction_New.constprop.0+0x159>
    6b2d:	48 8d 15 b3 53 00 00 	lea    0x53b3(%rip),%rdx        # bee7 <__Pyx_CyFunction_Vectorcall_O>
    6b34:	eb 0b                	jmp    6b41 <__Pyx_CyFunction_New.constprop.0+0x14b>
    6b36:	31 d2                	xor    %edx,%edx
    6b38:	eb 07                	jmp    6b41 <__Pyx_CyFunction_New.constprop.0+0x14b>
    6b3a:	48 8d 15 c1 52 00 00 	lea    0x52c1(%rip),%rdx        # be02 <__Pyx_CyFunction_Vectorcall_FASTCALL_KEYWORDS>
    6b41:	48 89 53 30          	mov    %rdx,0x30(%rbx)
    6b45:	48 89 df             	mov    %rbx,%rdi
    6b48:	e8 53 dc ff ff       	call   47a0 <PyObject_GC_Track@plt>
    6b4d:	eb 02                	jmp    6b51 <__Pyx_CyFunction_New.constprop.0+0x15b>
    6b4f:	31 db                	xor    %ebx,%ebx
    6b51:	5a                   	pop    %rdx
    6b52:	48 89 d8             	mov    %rbx,%rax
    6b55:	5b                   	pop    %rbx
    6b56:	5d                   	pop    %rbp
    6b57:	41 5c                	pop    %r12
    6b59:	41 5d                	pop    %r13
    6b5b:	41 5e                	pop    %r14
    6b5d:	41 5f                	pop    %r15
    6b5f:	c3                   	ret

0000000000006b60 <__Pyx_ImportDottedModule>:
    6b60:	41 57                	push   %r15
    6b62:	41 56                	push   %r14
    6b64:	41 55                	push   %r13
    6b66:	49 89 f5             	mov    %rsi,%r13
    6b69:	41 54                	push   %r12
    6b6b:	49 89 fc             	mov    %rdi,%r12
    6b6e:	55                   	push   %rbp
    6b6f:	53                   	push   %rbx
    6b70:	51                   	push   %rcx
    6b71:	e8 0a da ff ff       	call   4580 <PyImport_GetModule@plt>
    6b76:	48 85 c0             	test   %rax,%rax
    6b79:	0f 84 a5 00 00 00    	je     6c24 <__Pyx_ImportDottedModule+0xc4>
    6b7f:	48 8b 35 da 13 01 00 	mov    0x113da(%rip),%rsi        # 17f60 <__pyx_mstate_global_static+0x300>
    6b86:	48 89 c7             	mov    %rax,%rdi
    6b89:	48 89 c3             	mov    %rax,%rbx
    6b8c:	e8 a0 64 00 00       	call   d031 <__Pyx_PyObject_GetAttrStrNoError>
    6b91:	48 89 c5             	mov    %rax,%rbp
    6b94:	48 85 c0             	test   %rax,%rax
    6b97:	75 0a                	jne    6ba3 <__Pyx_ImportDottedModule+0x43>
    6b99:	e8 f2 da ff ff       	call   4690 <PyErr_Clear@plt>
    6b9e:	e9 01 02 00 00       	jmp    6da4 <__Pyx_ImportDottedModule+0x244>
    6ba3:	48 8b 35 66 12 01 00 	mov    0x11266(%rip),%rsi        # 17e10 <__pyx_mstate_global_static+0x1b0>
    6baa:	48 89 c7             	mov    %rax,%rdi
    6bad:	e8 7f 64 00 00       	call   d031 <__Pyx_PyObject_GetAttrStrNoError>
    6bb2:	49 89 c6             	mov    %rax,%r14
    6bb5:	48 85 c0             	test   %rax,%rax
    6bb8:	75 0a                	jne    6bc4 <__Pyx_ImportDottedModule+0x64>
    6bba:	48 8b 45 00          	mov    0x0(%rbp),%rax
    6bbe:	85 c0                	test   %eax,%eax
    6bc0:	79 10                	jns    6bd2 <__Pyx_ImportDottedModule+0x72>
    6bc2:	eb 1f                	jmp    6be3 <__Pyx_ImportDottedModule+0x83>
    6bc4:	48 89 c7             	mov    %rax,%rdi
    6bc7:	e8 7d 49 00 00       	call   b549 <__Pyx_PyObject_IsTrue>
    6bcc:	85 c0                	test   %eax,%eax
    6bce:	74 ea                	je     6bba <__Pyx_ImportDottedModule+0x5a>
    6bd0:	eb 13                	jmp    6be5 <__Pyx_ImportDottedModule+0x85>
    6bd2:	48 ff c8             	dec    %rax
    6bd5:	48 89 45 00          	mov    %rax,0x0(%rbp)
    6bd9:	75 08                	jne    6be3 <__Pyx_ImportDottedModule+0x83>
    6bdb:	48 89 ef             	mov    %rbp,%rdi
    6bde:	e8 6d da ff ff       	call   4650 <_Py_Dealloc@plt>
    6be3:	31 ed                	xor    %ebp,%ebp
    6be5:	4c 89 f7             	mov    %r14,%rdi
    6be8:	e8 b1 4a 00 00       	call   b69e <Py_XDECREF>
    6bed:	48 85 ed             	test   %rbp,%rbp
    6bf0:	74 a7                	je     6b99 <__Pyx_ImportDottedModule+0x39>
    6bf2:	48 8b 45 00          	mov    0x0(%rbp),%rax
    6bf6:	85 c0                	test   %eax,%eax
    6bf8:	78 11                	js     6c0b <__Pyx_ImportDottedModule+0xab>
    6bfa:	48 ff c8             	dec    %rax
    6bfd:	48 89 45 00          	mov    %rax,0x0(%rbp)
    6c01:	75 08                	jne    6c0b <__Pyx_ImportDottedModule+0xab>
    6c03:	48 89 ef             	mov    %rbp,%rdi
    6c06:	e8 45 da ff ff       	call   4650 <_Py_Dealloc@plt>
    6c0b:	48 8b 03             	mov    (%rbx),%rax
    6c0e:	85 c0                	test   %eax,%eax
    6c10:	78 21                	js     6c33 <__Pyx_ImportDottedModule+0xd3>
    6c12:	48 ff c8             	dec    %rax
    6c15:	48 89 03             	mov    %rax,(%rbx)
    6c18:	75 19                	jne    6c33 <__Pyx_ImportDottedModule+0xd3>
    6c1a:	48 89 df             	mov    %rbx,%rdi
    6c1d:	e8 2e da ff ff       	call   4650 <_Py_Dealloc@plt>
    6c22:	eb 0f                	jmp    6c33 <__Pyx_ImportDottedModule+0xd3>
    6c24:	e8 c7 d6 ff ff       	call   42f0 <PyErr_Occurred@plt>
    6c29:	48 85 c0             	test   %rax,%rax
    6c2c:	74 05                	je     6c33 <__Pyx_ImportDottedModule+0xd3>
    6c2e:	e8 5d da ff ff       	call   4690 <PyErr_Clear@plt>
    6c33:	4c 89 e7             	mov    %r12,%rdi
    6c36:	e8 71 fd ff ff       	call   69ac <__Pyx_Import.constprop.0>
    6c3b:	48 89 c3             	mov    %rax,%rbx
    6c3e:	4d 85 ed             	test   %r13,%r13
    6c41:	0f 84 5d 01 00 00    	je     6da4 <__Pyx_ImportDottedModule+0x244>
    6c47:	48 85 c0             	test   %rax,%rax
    6c4a:	75 07                	jne    6c53 <__Pyx_ImportDottedModule+0xf3>
    6c4c:	31 db                	xor    %ebx,%ebx
    6c4e:	e9 51 01 00 00       	jmp    6da4 <__Pyx_ImportDottedModule+0x244>
    6c53:	4c 89 e7             	mov    %r12,%rdi
    6c56:	e8 25 d9 ff ff       	call   4580 <PyImport_GetModule@plt>
    6c5b:	48 89 c5             	mov    %rax,%rbp
    6c5e:	48 85 c0             	test   %rax,%rax
    6c61:	74 24                	je     6c87 <__Pyx_ImportDottedModule+0x127>
    6c63:	48 8b 13             	mov    (%rbx),%rdx
    6c66:	85 d2                	test   %edx,%edx
    6c68:	0f 88 33 01 00 00    	js     6da1 <__Pyx_ImportDottedModule+0x241>
    6c6e:	48 ff ca             	dec    %rdx
    6c71:	48 89 13             	mov    %rdx,(%rbx)
    6c74:	0f 85 27 01 00 00    	jne    6da1 <__Pyx_ImportDottedModule+0x241>
    6c7a:	48 89 df             	mov    %rbx,%rdi
    6c7d:	e8 ce d9 ff ff       	call   4650 <_Py_Dealloc@plt>
    6c82:	e9 1a 01 00 00       	jmp    6da1 <__Pyx_ImportDottedModule+0x241>
    6c87:	e8 04 da ff ff       	call   4690 <PyErr_Clear@plt>
    6c8c:	4c 89 ef             	mov    %r13,%rdi
    6c8f:	41 be 01 00 00 00    	mov    $0x1,%r14d
    6c95:	e8 37 50 00 00       	call   bcd1 <PyTuple_GET_SIZE>
    6c9a:	48 89 c5             	mov    %rax,%rbp
    6c9d:	4c 39 f5             	cmp    %r14,%rbp
    6ca0:	7e 60                	jle    6d02 <__Pyx_ImportDottedModule+0x1a2>
    6ca2:	48 85 db             	test   %rbx,%rbx
    6ca5:	74 64                	je     6d0b <__Pyx_ImportDottedModule+0x1ab>
    6ca7:	49 8b 45 08          	mov    0x8(%r13),%rax
    6cab:	f6 80 ab 00 00 00 04 	testb  $0x4,0xab(%rax)
    6cb2:	75 1f                	jne    6cd3 <__Pyx_ImportDottedModule+0x173>
    6cb4:	48 8d 0d e5 c0 00 00 	lea    0xc0e5(%rip),%rcx        # 12da0 <__PRETTY_FUNCTION__.7>
    6cbb:	ba e0 1e 00 00       	mov    $0x1ee0,%edx
    6cc0:	48 8d 35 9d b3 00 00 	lea    0xb39d(%rip),%rsi        # 12064 <_IO_stdin_used+0x64>
    6cc7:	48 8d 3d b0 ba 00 00 	lea    0xbab0(%rip),%rdi        # 1277e <_IO_stdin_used+0x77e>
    6cce:	e8 4d d4 ff ff       	call   4120 <__assert_fail@plt>
    6cd3:	4b 8b 74 f5 18       	mov    0x18(%r13,%r14,8),%rsi
    6cd8:	48 89 df             	mov    %rbx,%rdi
    6cdb:	e8 51 63 00 00       	call   d031 <__Pyx_PyObject_GetAttrStrNoError>
    6ce0:	49 89 c7             	mov    %rax,%r15
    6ce3:	48 8b 03             	mov    (%rbx),%rax
    6ce6:	85 c0                	test   %eax,%eax
    6ce8:	78 10                	js     6cfa <__Pyx_ImportDottedModule+0x19a>
    6cea:	48 ff c8             	dec    %rax
    6ced:	48 89 03             	mov    %rax,(%rbx)
    6cf0:	75 08                	jne    6cfa <__Pyx_ImportDottedModule+0x19a>
    6cf2:	48 89 df             	mov    %rbx,%rdi
    6cf5:	e8 56 d9 ff ff       	call   4650 <_Py_Dealloc@plt>
    6cfa:	49 ff c6             	inc    %r14
    6cfd:	4c 89 fb             	mov    %r15,%rbx
    6d00:	eb 9b                	jmp    6c9d <__Pyx_ImportDottedModule+0x13d>
    6d02:	48 85 db             	test   %rbx,%rbx
    6d05:	0f 85 99 00 00 00    	jne    6da4 <__Pyx_ImportDottedModule+0x244>
    6d0b:	e8 e0 d5 ff ff       	call   42f0 <PyErr_Occurred@plt>
    6d10:	48 85 c0             	test   %rax,%rax
    6d13:	74 05                	je     6d1a <__Pyx_ImportDottedModule+0x1ba>
    6d15:	e8 76 d9 ff ff       	call   4690 <PyErr_Clear@plt>
    6d1a:	4c 89 ef             	mov    %r13,%rdi
    6d1d:	31 ed                	xor    %ebp,%ebp
    6d1f:	e8 ad 4f 00 00       	call   bcd1 <PyTuple_GET_SIZE>
    6d24:	49 39 c6             	cmp    %rax,%r14
    6d27:	74 40                	je     6d69 <__Pyx_ImportDottedModule+0x209>
    6d29:	4c 89 ef             	mov    %r13,%rdi
    6d2c:	4c 89 f2             	mov    %r14,%rdx
    6d2f:	31 f6                	xor    %esi,%esi
    6d31:	e8 3a d9 ff ff       	call   4670 <PySequence_GetSlice@plt>
    6d36:	31 ff                	xor    %edi,%edi
    6d38:	48 89 c3             	mov    %rax,%rbx
    6d3b:	48 85 c0             	test   %rax,%rax
    6d3e:	74 47                	je     6d87 <__Pyx_ImportDottedModule+0x227>
    6d40:	48 8d 3d 15 bd 00 00 	lea    0xbd15(%rip),%rdi        # 12a5c <_IO_stdin_used+0xa5c>
    6d47:	be 01 00 00 00       	mov    $0x1,%esi
    6d4c:	e8 ef d9 ff ff       	call   4740 <PyUnicode_FromStringAndSize@plt>
    6d51:	31 ff                	xor    %edi,%edi
    6d53:	48 89 c5             	mov    %rax,%rbp
    6d56:	48 85 c0             	test   %rax,%rax
    6d59:	74 2c                	je     6d87 <__Pyx_ImportDottedModule+0x227>
    6d5b:	48 89 de             	mov    %rbx,%rsi
    6d5e:	48 89 c7             	mov    %rax,%rdi
    6d61:	e8 aa d3 ff ff       	call   4110 <PyUnicode_Join@plt>
    6d66:	49 89 c4             	mov    %rax,%r12
    6d69:	48 8b 3d b8 00 01 00 	mov    0x100b8(%rip),%rdi        # 16e28 <PyExc_ModuleNotFoundError@@Base>
    6d70:	4c 89 e2             	mov    %r12,%rdx
    6d73:	48 8d 35 1f ba 00 00 	lea    0xba1f(%rip),%rsi        # 12799 <_IO_stdin_used+0x799>
    6d7a:	31 c0                	xor    %eax,%eax
    6d7c:	e8 0f d5 ff ff       	call   4290 <PyErr_Format@plt>
    6d81:	48 89 ef             	mov    %rbp,%rdi
    6d84:	4c 89 e5             	mov    %r12,%rbp
    6d87:	e8 12 49 00 00       	call   b69e <Py_XDECREF>
    6d8c:	48 89 df             	mov    %rbx,%rdi
    6d8f:	e8 0a 49 00 00       	call   b69e <Py_XDECREF>
    6d94:	48 89 ef             	mov    %rbp,%rdi
    6d97:	e8 02 49 00 00       	call   b69e <Py_XDECREF>
    6d9c:	e9 ab fe ff ff       	jmp    6c4c <__Pyx_ImportDottedModule+0xec>
    6da1:	48 89 eb             	mov    %rbp,%rbx
    6da4:	5a                   	pop    %rdx
    6da5:	48 89 d8             	mov    %rbx,%rax
    6da8:	5b                   	pop    %rbx
    6da9:	5d                   	pop    %rbp
    6daa:	41 5c                	pop    %r12
    6dac:	41 5d                	pop    %r13
    6dae:	41 5e                	pop    %r14
    6db0:	41 5f                	pop    %r15
    6db2:	c3                   	ret

0000000000006db3 <__Pyx_PyObject_CallNoArg>:
    6db3:	48 83 ec 28          	sub    $0x28,%rsp
    6db7:	ba 01 00 00 00       	mov    $0x1,%edx
    6dbc:	64 48 8b 04 25 28 00 	mov    %fs:0x28,%rax
    6dc3:	00 00 
    6dc5:	48 89 44 24 18       	mov    %rax,0x18(%rsp)
    6dca:	31 c0                	xor    %eax,%eax
    6dcc:	48 c1 e2 3f          	shl    $0x3f,%rdx
    6dd0:	31 c0                	xor    %eax,%eax
    6dd2:	48 8d 74 24 10       	lea    0x10(%rsp),%rsi
    6dd7:	48 89 44 24 08       	mov    %rax,0x8(%rsp)
    6ddc:	48 89 44 24 10       	mov    %rax,0x10(%rsp)
    6de1:	e8 b5 64 00 00       	call   d29b <__Pyx_PyObject_FastCallDict.constprop.0>
    6de6:	48 8b 54 24 18       	mov    0x18(%rsp),%rdx
    6deb:	64 48 2b 14 25 28 00 	sub    %fs:0x28,%rdx
    6df2:	00 00 
    6df4:	74 05                	je     6dfb <__Pyx_PyObject_CallNoArg+0x48>
    6df6:	e8 35 d7 ff ff       	call   4530 <__stack_chk_fail@plt>
    6dfb:	48 83 c4 28          	add    $0x28,%rsp
    6dff:	c3                   	ret

0000000000006e00 <__Pyx_PyUnicode_AsDouble>:
    6e00:	41 57                	push   %r15
    6e02:	41 56                	push   %r14
    6e04:	41 55                	push   %r13
    6e06:	41 54                	push   %r12
    6e08:	55                   	push   %rbp
    6e09:	53                   	push   %rbx
    6e0a:	48 83 ec 68          	sub    $0x68,%rsp
    6e0e:	64 48 8b 2c 25 28 00 	mov    %fs:0x28,%rbp
    6e15:	00 00 
    6e17:	48 89 6c 24 58       	mov    %rbp,0x58(%rsp)
    6e1c:	48 89 fd             	mov    %rdi,%rbp
    6e1f:	e8 c6 4d 00 00       	call   bbea <PyUnicode_IS_ASCII>
    6e24:	85 c0                	test   %eax,%eax
    6e26:	0f 84 29 02 00 00    	je     7055 <__Pyx_PyUnicode_AsDouble+0x255>
    6e2c:	48 8d 74 24 20       	lea    0x20(%rsp),%rsi
    6e31:	48 89 ef             	mov    %rbp,%rdi
    6e34:	e8 e7 d3 ff ff       	call   4220 <PyUnicode_AsUTF8AndSize@plt>
    6e39:	48 89 c3             	mov    %rax,%rbx
    6e3c:	48 8b 44 24 20       	mov    0x20(%rsp),%rax
    6e41:	48 01 d8             	add    %rbx,%rax
    6e44:	8a 0b                	mov    (%rbx),%cl
    6e46:	8d 51 f7             	lea    -0x9(%rcx),%edx
    6e49:	80 fa 04             	cmp    $0x4,%dl
    6e4c:	77 05                	ja     6e53 <__Pyx_PyUnicode_AsDouble+0x53>
    6e4e:	48 ff c3             	inc    %rbx
    6e51:	eb f1                	jmp    6e44 <__Pyx_PyUnicode_AsDouble+0x44>
    6e53:	80 f9 20             	cmp    $0x20,%cl
    6e56:	74 f6                	je     6e4e <__Pyx_PyUnicode_AsDouble+0x4e>
    6e58:	49 89 c4             	mov    %rax,%r12
    6e5b:	48 ff c8             	dec    %rax
    6e5e:	48 39 c3             	cmp    %rax,%rbx
    6e61:	73 10                	jae    6e73 <__Pyx_PyUnicode_AsDouble+0x73>
    6e63:	8a 10                	mov    (%rax),%dl
    6e65:	8d 72 f7             	lea    -0x9(%rdx),%esi
    6e68:	40 80 fe 04          	cmp    $0x4,%sil
    6e6c:	76 ea                	jbe    6e58 <__Pyx_PyUnicode_AsDouble+0x58>
    6e6e:	80 fa 20             	cmp    $0x20,%dl
    6e71:	74 e5                	je     6e58 <__Pyx_PyUnicode_AsDouble+0x58>
    6e73:	4d 89 e6             	mov    %r12,%r14
    6e76:	49 29 de             	sub    %rbx,%r14
    6e79:	4d 85 f6             	test   %r14,%r14
    6e7c:	0f 8e 7b 05 00 00    	jle    73fd <__Pyx_PyUnicode_AsDouble+0x5fd>
    6e82:	8d 41 d5             	lea    -0x2b(%rcx),%eax
    6e85:	31 d2                	xor    %edx,%edx
    6e87:	4c 89 f7             	mov    %r14,%rdi
    6e8a:	a8 fd                	test   $0xfd,%al
    6e8c:	0f 94 c2             	sete   %dl
    6e8f:	48 8d 04 13          	lea    (%rbx,%rdx,1),%rax
    6e93:	48 29 d7             	sub    %rdx,%rdi
    6e96:	8a 10                	mov    (%rax),%dl
    6e98:	80 fa 4e             	cmp    $0x4e,%dl
    6e9b:	74 36                	je     6ed3 <__Pyx_PyUnicode_AsDouble+0xd3>
    6e9d:	7f 26                	jg     6ec5 <__Pyx_PyUnicode_AsDouble+0xc5>
    6e9f:	80 fa 39             	cmp    $0x39,%dl
    6ea2:	7f 17                	jg     6ebb <__Pyx_PyUnicode_AsDouble+0xbb>
    6ea4:	80 fa 2f             	cmp    $0x2f,%dl
    6ea7:	0f 8f 02 01 00 00    	jg     6faf <__Pyx_PyUnicode_AsDouble+0x1af>
    6ead:	80 fa 2e             	cmp    $0x2e,%dl
    6eb0:	0f 84 f9 00 00 00    	je     6faf <__Pyx_PyUnicode_AsDouble+0x1af>
    6eb6:	e9 42 05 00 00       	jmp    73fd <__Pyx_PyUnicode_AsDouble+0x5fd>
    6ebb:	80 fa 49             	cmp    $0x49,%dl
    6ebe:	74 4a                	je     6f0a <__Pyx_PyUnicode_AsDouble+0x10a>
    6ec0:	e9 38 05 00 00       	jmp    73fd <__Pyx_PyUnicode_AsDouble+0x5fd>
    6ec5:	80 fa 69             	cmp    $0x69,%dl
    6ec8:	74 40                	je     6f0a <__Pyx_PyUnicode_AsDouble+0x10a>
    6eca:	80 fa 6e             	cmp    $0x6e,%dl
    6ecd:	0f 85 2a 05 00 00    	jne    73fd <__Pyx_PyUnicode_AsDouble+0x5fd>
    6ed3:	48 83 ff 03          	cmp    $0x3,%rdi
    6ed7:	0f 85 20 05 00 00    	jne    73fd <__Pyx_PyUnicode_AsDouble+0x5fd>
    6edd:	8a 50 01             	mov    0x1(%rax),%dl
    6ee0:	83 e2 df             	and    $0xffffffdf,%edx
    6ee3:	80 fa 41             	cmp    $0x41,%dl
    6ee6:	0f 85 11 05 00 00    	jne    73fd <__Pyx_PyUnicode_AsDouble+0x5fd>
    6eec:	8a 40 02             	mov    0x2(%rax),%al
    6eef:	83 e0 df             	and    $0xffffffdf,%eax
    6ef2:	3c 4e                	cmp    $0x4e,%al
    6ef4:	0f 85 03 05 00 00    	jne    73fd <__Pyx_PyUnicode_AsDouble+0x5fd>
    6efa:	f2 0f 10 05 76 c7 00 	movsd  0xc776(%rip),%xmm0        # 13678 <__pyx_k_1+0x2a>
    6f01:	00 
    6f02:	80 f9 2d             	cmp    $0x2d,%cl
    6f05:	e9 f2 02 00 00       	jmp    71fc <__Pyx_PyUnicode_AsDouble+0x3fc>
    6f0a:	48 83 ff 02          	cmp    $0x2,%rdi
    6f0e:	0f 8e e9 04 00 00    	jle    73fd <__Pyx_PyUnicode_AsDouble+0x5fd>
    6f14:	8a 50 02             	mov    0x2(%rax),%dl
    6f17:	83 e2 df             	and    $0xffffffdf,%edx
    6f1a:	80 fa 46             	cmp    $0x46,%dl
    6f1d:	8a 50 01             	mov    0x1(%rax),%dl
    6f20:	40 0f 94 c6          	sete   %sil
    6f24:	83 e2 df             	and    $0xffffffdf,%edx
    6f27:	80 fa 4e             	cmp    $0x4e,%dl
    6f2a:	0f 94 c2             	sete   %dl
    6f2d:	21 d6                	and    %edx,%esi
    6f2f:	48 83 ff 03          	cmp    $0x3,%rdi
    6f33:	75 05                	jne    6f3a <__Pyx_PyUnicode_AsDouble+0x13a>
    6f35:	40 84 f6             	test   %sil,%sil
    6f38:	75 65                	jne    6f9f <__Pyx_PyUnicode_AsDouble+0x19f>
    6f3a:	48 83 ff 08          	cmp    $0x8,%rdi
    6f3e:	0f 85 b9 04 00 00    	jne    73fd <__Pyx_PyUnicode_AsDouble+0x5fd>
    6f44:	8a 50 04             	mov    0x4(%rax),%dl
    6f47:	40 8a 78 03          	mov    0x3(%rax),%dil
    6f4b:	83 e2 df             	and    $0xffffffdf,%edx
    6f4e:	80 fa 4e             	cmp    $0x4e,%dl
    6f51:	0f 94 c2             	sete   %dl
    6f54:	83 e7 df             	and    $0xffffffdf,%edi
    6f57:	40 80 ff 49          	cmp    $0x49,%dil
    6f5b:	40 0f 94 c7          	sete   %dil
    6f5f:	21 fa                	and    %edi,%edx
    6f61:	40 8a 78 05          	mov    0x5(%rax),%dil
    6f65:	83 e7 df             	and    $0xffffffdf,%edi
    6f68:	40 80 ff 49          	cmp    $0x49,%dil
    6f6c:	40 0f 94 c7          	sete   %dil
    6f70:	21 fa                	and    %edi,%edx
    6f72:	40 8a 78 06          	mov    0x6(%rax),%dil
    6f76:	8a 40 07             	mov    0x7(%rax),%al
    6f79:	83 e7 df             	and    $0xffffffdf,%edi
    6f7c:	40 80 ff 54          	cmp    $0x54,%dil
    6f80:	40 0f 94 c7          	sete   %dil
    6f84:	83 e0 df             	and    $0xffffffdf,%eax
    6f87:	21 fa                	and    %edi,%edx
    6f89:	3c 59                	cmp    $0x59,%al
    6f8b:	0f 94 c0             	sete   %al
    6f8e:	84 c2                	test   %al,%dl
    6f90:	0f 84 67 04 00 00    	je     73fd <__Pyx_PyUnicode_AsDouble+0x5fd>
    6f96:	40 84 f6             	test   %sil,%sil
    6f99:	0f 84 5e 04 00 00    	je     73fd <__Pyx_PyUnicode_AsDouble+0x5fd>
    6f9f:	f2 0f 10 05 c1 c6 00 	movsd  0xc6c1(%rip),%xmm0        # 13668 <__pyx_k_1+0x1a>
    6fa6:	00 
    6fa7:	80 f9 2d             	cmp    $0x2d,%cl
    6faa:	e9 74 03 00 00       	jmp    7323 <__Pyx_PyUnicode_AsDouble+0x523>
    6faf:	31 ff                	xor    %edi,%edi
    6fb1:	31 c0                	xor    %eax,%eax
    6fb3:	48 ff c0             	inc    %rax
    6fb6:	31 d2                	xor    %edx,%edx
    6fb8:	80 7c 03 ff 5f       	cmpb   $0x5f,-0x1(%rbx,%rax,1)
    6fbd:	0f 95 c2             	setne  %dl
    6fc0:	48 01 d7             	add    %rdx,%rdi
    6fc3:	49 39 c6             	cmp    %rax,%r14
    6fc6:	75 eb                	jne    6fb3 <__Pyx_PyUnicode_AsDouble+0x1b3>
    6fc8:	49 39 fe             	cmp    %rdi,%r14
    6fcb:	0f 84 95 03 00 00    	je     7366 <__Pyx_PyUnicode_AsDouble+0x566>
    6fd1:	48 83 ff 27          	cmp    $0x27,%rdi
    6fd5:	7f 33                	jg     700a <__Pyx_PyUnicode_AsDouble+0x20a>
    6fd7:	4c 8d 6c 24 30       	lea    0x30(%rsp),%r13
    6fdc:	4c 89 f2             	mov    %r14,%rdx
    6fdf:	48 89 df             	mov    %rbx,%rdi
    6fe2:	4c 89 ee             	mov    %r13,%rsi
    6fe5:	e8 12 d8 ff ff       	call   47fc <__Pyx__PyBytes_AsDouble_Copy>
    6fea:	49 89 c4             	mov    %rax,%r12
    6fed:	48 85 c0             	test   %rax,%rax
    6ff0:	0f 84 07 04 00 00    	je     73fd <__Pyx_PyUnicode_AsDouble+0x5fd>
    6ff6:	48 8d 74 24 28       	lea    0x28(%rsp),%rsi
    6ffb:	31 d2                	xor    %edx,%edx
    6ffd:	4c 89 ef             	mov    %r13,%rdi
    7000:	e8 2b d0 ff ff       	call   4030 <PyOS_string_to_double@plt>
    7005:	e9 ca 03 00 00       	jmp    73d4 <__Pyx_PyUnicode_AsDouble+0x5d4>
    700a:	48 ff c7             	inc    %rdi
    700d:	e8 6e d7 ff ff       	call   4780 <PyMem_Malloc@plt>
    7012:	49 89 c5             	mov    %rax,%r13
    7015:	48 85 c0             	test   %rax,%rax
    7018:	0f 84 df 03 00 00    	je     73fd <__Pyx_PyUnicode_AsDouble+0x5fd>
    701e:	48 89 df             	mov    %rbx,%rdi
    7021:	4c 89 f2             	mov    %r14,%rdx
    7024:	48 89 c6             	mov    %rax,%rsi
    7027:	e8 d0 d7 ff ff       	call   47fc <__Pyx__PyBytes_AsDouble_Copy>
    702c:	4c 89 ef             	mov    %r13,%rdi
    702f:	49 89 c4             	mov    %rax,%r12
    7032:	48 85 c0             	test   %rax,%rax
    7035:	0f 84 6f 03 00 00    	je     73aa <__Pyx_PyUnicode_AsDouble+0x5aa>
    703b:	48 8d 74 24 28       	lea    0x28(%rsp),%rsi
    7040:	31 d2                	xor    %edx,%edx
    7042:	e8 e9 cf ff ff       	call   4030 <PyOS_string_to_double@plt>
    7047:	4c 89 ef             	mov    %r13,%rdi
    704a:	f2 0f 11 44 24 08    	movsd  %xmm0,0x8(%rsp)
    7050:	e9 74 03 00 00       	jmp    73c9 <__Pyx_PyUnicode_AsDouble+0x5c9>
    7055:	48 89 ef             	mov    %rbp,%rdi
    7058:	e8 c4 4b 00 00       	call   bc21 <PyUnicode_GET_LENGTH>
    705d:	48 89 c3             	mov    %rax,%rbx
    7060:	48 8b 45 08          	mov    0x8(%rbp),%rax
    7064:	f6 80 ab 00 00 00 10 	testb  $0x10,0xab(%rax)
    706b:	75 1f                	jne    708c <__Pyx_PyUnicode_AsDouble+0x28c>
    706d:	48 8d 0d ec bc 00 00 	lea    0xbcec(%rip),%rcx        # 12d60 <__PRETTY_FUNCTION__.6>
    7074:	ba fc 07 00 00       	mov    $0x7fc,%edx
    7079:	48 8d 35 e4 af 00 00 	lea    0xafe4(%rip),%rsi        # 12064 <_IO_stdin_used+0x64>
    7080:	48 8d 3d 75 b9 00 00 	lea    0xb975(%rip),%rdi        # 129fc <_IO_stdin_used+0x9fc>
    7087:	e8 94 d0 ff ff       	call   4120 <__assert_fail@plt>
    708c:	8a 45 20             	mov    0x20(%rbp),%al
    708f:	48 89 ef             	mov    %rbp,%rdi
    7092:	45 31 e4             	xor    %r12d,%r12d
    7095:	4c 8d 2d 84 ec 00 00 	lea    0xec84(%rip),%r13        # 15d20 <_Py_ascii_whitespace@@Base>
    709c:	c0 e8 02             	shr    $0x2,%al
    709f:	83 e0 07             	and    $0x7,%eax
    70a2:	89 44 24 08          	mov    %eax,0x8(%rsp)
    70a6:	e8 49 59 00 00       	call   c9f4 <PyUnicode_DATA>
    70ab:	48 89 44 24 10       	mov    %rax,0x10(%rsp)
    70b0:	8b 7c 24 08          	mov    0x8(%rsp),%edi
    70b4:	48 8b 74 24 10       	mov    0x10(%rsp),%rsi
    70b9:	4c 89 e2             	mov    %r12,%rdx
    70bc:	e8 82 50 00 00       	call   c143 <PyUnicode_READ>
    70c1:	89 c7                	mov    %eax,%edi
    70c3:	83 ff 7f             	cmp    $0x7f,%edi
    70c6:	77 08                	ja     70d0 <__Pyx_PyUnicode_AsDouble+0x2d0>
    70c8:	41 0f b6 44 3d 00    	movzbl 0x0(%r13,%rdi,1),%eax
    70ce:	eb 05                	jmp    70d5 <__Pyx_PyUnicode_AsDouble+0x2d5>
    70d0:	e8 fb d2 ff ff       	call   43d0 <_PyUnicode_IsWhitespace@plt>
    70d5:	85 c0                	test   %eax,%eax
    70d7:	74 05                	je     70de <__Pyx_PyUnicode_AsDouble+0x2de>
    70d9:	49 ff c4             	inc    %r12
    70dc:	eb d2                	jmp    70b0 <__Pyx_PyUnicode_AsDouble+0x2b0>
    70de:	4c 8d 2d 3b ec 00 00 	lea    0xec3b(%rip),%r13        # 15d20 <_Py_ascii_whitespace@@Base>
    70e5:	48 89 5c 24 18       	mov    %rbx,0x18(%rsp)
    70ea:	48 ff cb             	dec    %rbx
    70ed:	49 39 dc             	cmp    %rbx,%r12
    70f0:	7c 12                	jl     7104 <__Pyx_PyUnicode_AsDouble+0x304>
    70f2:	4c 8b 6c 24 18       	mov    0x18(%rsp),%r13
    70f7:	4d 29 e5             	sub    %r12,%r13
    70fa:	4d 85 ed             	test   %r13,%r13
    70fd:	7f 30                	jg     712f <__Pyx_PyUnicode_AsDouble+0x32f>
    70ff:	e9 f9 02 00 00       	jmp    73fd <__Pyx_PyUnicode_AsDouble+0x5fd>
    7104:	8b 7c 24 08          	mov    0x8(%rsp),%edi
    7108:	48 8b 74 24 10       	mov    0x10(%rsp),%rsi
    710d:	48 89 da             	mov    %rbx,%rdx
    7110:	e8 2e 50 00 00       	call   c143 <PyUnicode_READ>
    7115:	89 c7                	mov    %eax,%edi
    7117:	83 ff 7f             	cmp    $0x7f,%edi
    711a:	77 08                	ja     7124 <__Pyx_PyUnicode_AsDouble+0x324>
    711c:	41 0f b6 44 3d 00    	movzbl 0x0(%r13,%rdi,1),%eax
    7122:	eb 05                	jmp    7129 <__Pyx_PyUnicode_AsDouble+0x329>
    7124:	e8 a7 d2 ff ff       	call   43d0 <_PyUnicode_IsWhitespace@plt>
    7129:	85 c0                	test   %eax,%eax
    712b:	75 b8                	jne    70e5 <__Pyx_PyUnicode_AsDouble+0x2e5>
    712d:	eb c3                	jmp    70f2 <__Pyx_PyUnicode_AsDouble+0x2f2>
    712f:	48 8b 74 24 10       	mov    0x10(%rsp),%rsi
    7134:	8b 7c 24 08          	mov    0x8(%rsp),%edi
    7138:	4c 89 e2             	mov    %r12,%rdx
    713b:	4d 89 ef             	mov    %r13,%r15
    713e:	e8 00 50 00 00       	call   c143 <PyUnicode_READ>
    7143:	48 8b 74 24 10       	mov    0x10(%rsp),%rsi
    7148:	8b 7c 24 08          	mov    0x8(%rsp),%edi
    714c:	41 89 c6             	mov    %eax,%r14d
    714f:	8d 40 d5             	lea    -0x2b(%rax),%eax
    7152:	83 e0 fd             	and    $0xfffffffd,%eax
    7155:	0f 94 c0             	sete   %al
    7158:	0f b6 c0             	movzbl %al,%eax
    715b:	49 8d 1c 04          	lea    (%r12,%rax,1),%rbx
    715f:	49 29 c7             	sub    %rax,%r15
    7162:	48 89 da             	mov    %rbx,%rdx
    7165:	e8 d9 4f 00 00       	call   c143 <PyUnicode_READ>
    716a:	83 f8 4e             	cmp    $0x4e,%eax
    716d:	74 36                	je     71a5 <__Pyx_PyUnicode_AsDouble+0x3a5>
    716f:	77 26                	ja     7197 <__Pyx_PyUnicode_AsDouble+0x397>
    7171:	83 f8 39             	cmp    $0x39,%eax
    7174:	77 17                	ja     718d <__Pyx_PyUnicode_AsDouble+0x38d>
    7176:	83 f8 2f             	cmp    $0x2f,%eax
    7179:	0f 87 b7 01 00 00    	ja     7336 <__Pyx_PyUnicode_AsDouble+0x536>
    717f:	83 f8 2e             	cmp    $0x2e,%eax
    7182:	0f 84 ae 01 00 00    	je     7336 <__Pyx_PyUnicode_AsDouble+0x536>
    7188:	e9 70 02 00 00       	jmp    73fd <__Pyx_PyUnicode_AsDouble+0x5fd>
    718d:	83 f8 49             	cmp    $0x49,%eax
    7190:	74 7d                	je     720f <__Pyx_PyUnicode_AsDouble+0x40f>
    7192:	e9 66 02 00 00       	jmp    73fd <__Pyx_PyUnicode_AsDouble+0x5fd>
    7197:	83 f8 69             	cmp    $0x69,%eax
    719a:	74 73                	je     720f <__Pyx_PyUnicode_AsDouble+0x40f>
    719c:	83 f8 6e             	cmp    $0x6e,%eax
    719f:	0f 85 58 02 00 00    	jne    73fd <__Pyx_PyUnicode_AsDouble+0x5fd>
    71a5:	49 83 ff 03          	cmp    $0x3,%r15
    71a9:	0f 85 4e 02 00 00    	jne    73fd <__Pyx_PyUnicode_AsDouble+0x5fd>
    71af:	48 8b 74 24 10       	mov    0x10(%rsp),%rsi
    71b4:	8b 7c 24 08          	mov    0x8(%rsp),%edi
    71b8:	48 8d 53 01          	lea    0x1(%rbx),%rdx
    71bc:	e8 82 4f 00 00       	call   c143 <PyUnicode_READ>
    71c1:	48 8b 74 24 10       	mov    0x10(%rsp),%rsi
    71c6:	8b 7c 24 08          	mov    0x8(%rsp),%edi
    71ca:	48 8d 53 02          	lea    0x2(%rbx),%rdx
    71ce:	41 89 c4             	mov    %eax,%r12d
    71d1:	e8 6d 4f 00 00       	call   c143 <PyUnicode_READ>
    71d6:	83 e0 df             	and    $0xffffffdf,%eax
    71d9:	83 f8 4e             	cmp    $0x4e,%eax
    71dc:	0f 85 1b 02 00 00    	jne    73fd <__Pyx_PyUnicode_AsDouble+0x5fd>
    71e2:	41 83 e4 df          	and    $0xffffffdf,%r12d
    71e6:	41 83 fc 41          	cmp    $0x41,%r12d
    71ea:	0f 85 0d 02 00 00    	jne    73fd <__Pyx_PyUnicode_AsDouble+0x5fd>
    71f0:	f2 0f 10 05 80 c4 00 	movsd  0xc480(%rip),%xmm0        # 13678 <__pyx_k_1+0x2a>
    71f7:	00 
    71f8:	41 83 fe 2d          	cmp    $0x2d,%r14d
    71fc:	0f 84 03 02 00 00    	je     7405 <__Pyx_PyUnicode_AsDouble+0x605>
    7202:	f2 0f 10 05 66 c4 00 	movsd  0xc466(%rip),%xmm0        # 13670 <__pyx_k_1+0x22>
    7209:	00 
    720a:	e9 f6 01 00 00       	jmp    7405 <__Pyx_PyUnicode_AsDouble+0x605>
    720f:	49 83 ff 02          	cmp    $0x2,%r15
    7213:	0f 8e e4 01 00 00    	jle    73fd <__Pyx_PyUnicode_AsDouble+0x5fd>
    7219:	48 8b 74 24 10       	mov    0x10(%rsp),%rsi
    721e:	8b 7c 24 08          	mov    0x8(%rsp),%edi
    7222:	48 8d 53 01          	lea    0x1(%rbx),%rdx
    7226:	e8 18 4f 00 00       	call   c143 <PyUnicode_READ>
    722b:	48 8b 74 24 10       	mov    0x10(%rsp),%rsi
    7230:	8b 7c 24 08          	mov    0x8(%rsp),%edi
    7234:	48 8d 53 02          	lea    0x2(%rbx),%rdx
    7238:	41 89 c4             	mov    %eax,%r12d
    723b:	e8 03 4f 00 00       	call   c143 <PyUnicode_READ>
    7240:	83 e0 df             	and    $0xffffffdf,%eax
    7243:	83 f8 46             	cmp    $0x46,%eax
    7246:	44 89 e0             	mov    %r12d,%eax
    7249:	0f 94 c2             	sete   %dl
    724c:	83 e0 df             	and    $0xffffffdf,%eax
    724f:	83 f8 4e             	cmp    $0x4e,%eax
    7252:	0f 94 c0             	sete   %al
    7255:	21 c2                	and    %eax,%edx
    7257:	41 89 d4             	mov    %edx,%r12d
    725a:	49 83 ff 03          	cmp    $0x3,%r15
    725e:	75 08                	jne    7268 <__Pyx_PyUnicode_AsDouble+0x468>
    7260:	84 d2                	test   %dl,%dl
    7262:	0f 85 af 00 00 00    	jne    7317 <__Pyx_PyUnicode_AsDouble+0x517>
    7268:	49 83 ff 08          	cmp    $0x8,%r15
    726c:	0f 85 8b 01 00 00    	jne    73fd <__Pyx_PyUnicode_AsDouble+0x5fd>
    7272:	48 8b 74 24 10       	mov    0x10(%rsp),%rsi
    7277:	8b 7c 24 08          	mov    0x8(%rsp),%edi
    727b:	48 8d 53 03          	lea    0x3(%rbx),%rdx
    727f:	e8 bf 4e 00 00       	call   c143 <PyUnicode_READ>
    7284:	48 8b 74 24 10       	mov    0x10(%rsp),%rsi
    7289:	8b 7c 24 08          	mov    0x8(%rsp),%edi
    728d:	48 8d 53 04          	lea    0x4(%rbx),%rdx
    7291:	41 89 c5             	mov    %eax,%r13d
    7294:	e8 aa 4e 00 00       	call   c143 <PyUnicode_READ>
    7299:	48 8b 74 24 10       	mov    0x10(%rsp),%rsi
    729e:	8b 7c 24 08          	mov    0x8(%rsp),%edi
    72a2:	83 e0 df             	and    $0xffffffdf,%eax
    72a5:	83 f8 4e             	cmp    $0x4e,%eax
    72a8:	0f 94 c0             	sete   %al
    72ab:	41 83 e5 df          	and    $0xffffffdf,%r13d
    72af:	41 83 fd 49          	cmp    $0x49,%r13d
    72b3:	0f 94 c2             	sete   %dl
    72b6:	21 d0                	and    %edx,%eax
    72b8:	48 8d 53 05          	lea    0x5(%rbx),%rdx
    72bc:	41 21 c4             	and    %eax,%r12d
    72bf:	e8 7f 4e 00 00       	call   c143 <PyUnicode_READ>
    72c4:	48 8b 74 24 10       	mov    0x10(%rsp),%rsi
    72c9:	8b 7c 24 08          	mov    0x8(%rsp),%edi
    72cd:	48 8d 53 06          	lea    0x6(%rbx),%rdx
    72d1:	83 e0 df             	and    $0xffffffdf,%eax
    72d4:	83 f8 49             	cmp    $0x49,%eax
    72d7:	41 0f 94 c5          	sete   %r13b
    72db:	e8 63 4e 00 00       	call   c143 <PyUnicode_READ>
    72e0:	8b 7c 24 08          	mov    0x8(%rsp),%edi
    72e4:	45 21 e5             	and    %r12d,%r13d
    72e7:	48 8d 53 07          	lea    0x7(%rbx),%rdx
    72eb:	83 e0 df             	and    $0xffffffdf,%eax
    72ee:	48 8b 74 24 10       	mov    0x10(%rsp),%rsi
    72f3:	83 f8 54             	cmp    $0x54,%eax
    72f6:	41 0f 94 c4          	sete   %r12b
    72fa:	e8 44 4e 00 00       	call   c143 <PyUnicode_READ>
    72ff:	45 21 ec             	and    %r13d,%r12d
    7302:	83 e0 df             	and    $0xffffffdf,%eax
    7305:	83 f8 59             	cmp    $0x59,%eax
    7308:	0f 85 ef 00 00 00    	jne    73fd <__Pyx_PyUnicode_AsDouble+0x5fd>
    730e:	45 84 e4             	test   %r12b,%r12b
    7311:	0f 84 e6 00 00 00    	je     73fd <__Pyx_PyUnicode_AsDouble+0x5fd>
    7317:	f2 0f 10 05 49 c3 00 	movsd  0xc349(%rip),%xmm0        # 13668 <__pyx_k_1+0x1a>
    731e:	00 
    731f:	41 83 fe 2d          	cmp    $0x2d,%r14d
    7323:	0f 84 dc 00 00 00    	je     7405 <__Pyx_PyUnicode_AsDouble+0x605>
    7329:	f2 0f 10 05 4f c3 00 	movsd  0xc34f(%rip),%xmm0        # 13680 <__pyx_k_1+0x32>
    7330:	00 
    7331:	e9 cf 00 00 00       	jmp    7405 <__Pyx_PyUnicode_AsDouble+0x605>
    7336:	49 83 fd 27          	cmp    $0x27,%r13
    733a:	7f 39                	jg     7375 <__Pyx_PyUnicode_AsDouble+0x575>
    733c:	4c 8b 44 24 18       	mov    0x18(%rsp),%r8
    7341:	8b 74 24 08          	mov    0x8(%rsp),%esi
    7345:	48 8d 5c 24 30       	lea    0x30(%rsp),%rbx
    734a:	4c 89 e1             	mov    %r12,%rcx
    734d:	48 8b 7c 24 10       	mov    0x10(%rsp),%rdi
    7352:	48 89 da             	mov    %rbx,%rdx
    7355:	e8 f8 d6 ff ff       	call   4a52 <__Pyx__PyUnicode_AsDouble_Copy>
    735a:	49 89 c4             	mov    %rax,%r12
    735d:	48 85 c0             	test   %rax,%rax
    7360:	0f 84 97 00 00 00    	je     73fd <__Pyx_PyUnicode_AsDouble+0x5fd>
    7366:	48 8d 74 24 28       	lea    0x28(%rsp),%rsi
    736b:	31 d2                	xor    %edx,%edx
    736d:	48 89 df             	mov    %rbx,%rdi
    7370:	e9 8b fc ff ff       	jmp    7000 <__Pyx_PyUnicode_AsDouble+0x200>
    7375:	49 8d 7d 01          	lea    0x1(%r13),%rdi
    7379:	e8 02 d4 ff ff       	call   4780 <PyMem_Malloc@plt>
    737e:	48 89 c3             	mov    %rax,%rbx
    7381:	48 85 c0             	test   %rax,%rax
    7384:	74 77                	je     73fd <__Pyx_PyUnicode_AsDouble+0x5fd>
    7386:	4c 8b 44 24 18       	mov    0x18(%rsp),%r8
    738b:	8b 74 24 08          	mov    0x8(%rsp),%esi
    738f:	4c 89 e1             	mov    %r12,%rcx
    7392:	48 89 c2             	mov    %rax,%rdx
    7395:	48 8b 7c 24 10       	mov    0x10(%rsp),%rdi
    739a:	e8 b3 d6 ff ff       	call   4a52 <__Pyx__PyUnicode_AsDouble_Copy>
    739f:	49 89 c4             	mov    %rax,%r12
    73a2:	48 85 c0             	test   %rax,%rax
    73a5:	75 0a                	jne    73b1 <__Pyx_PyUnicode_AsDouble+0x5b1>
    73a7:	48 89 df             	mov    %rbx,%rdi
    73aa:	e8 41 cd ff ff       	call   40f0 <PyMem_Free@plt>
    73af:	eb 4c                	jmp    73fd <__Pyx_PyUnicode_AsDouble+0x5fd>
    73b1:	48 89 df             	mov    %rbx,%rdi
    73b4:	48 8d 74 24 28       	lea    0x28(%rsp),%rsi
    73b9:	31 d2                	xor    %edx,%edx
    73bb:	e8 70 cc ff ff       	call   4030 <PyOS_string_to_double@plt>
    73c0:	48 89 df             	mov    %rbx,%rdi
    73c3:	f2 0f 11 44 24 08    	movsd  %xmm0,0x8(%rsp)
    73c9:	e8 22 cd ff ff       	call   40f0 <PyMem_Free@plt>
    73ce:	f2 0f 10 44 24 08    	movsd  0x8(%rsp),%xmm0
    73d4:	4c 39 64 24 28       	cmp    %r12,0x28(%rsp)
    73d9:	74 2a                	je     7405 <__Pyx_PyUnicode_AsDouble+0x605>
    73db:	66 0f 2e 05 6d c2 00 	ucomisd 0xc26d(%rip),%xmm0        # 13650 <__pyx_k_1+0x2>
    73e2:	00 
    73e3:	7a 18                	jp     73fd <__Pyx_PyUnicode_AsDouble+0x5fd>
    73e5:	75 16                	jne    73fd <__Pyx_PyUnicode_AsDouble+0x5fd>
    73e7:	f2 0f 11 44 24 08    	movsd  %xmm0,0x8(%rsp)
    73ed:	e8 fe ce ff ff       	call   42f0 <PyErr_Occurred@plt>
    73f2:	f2 0f 10 44 24 08    	movsd  0x8(%rsp),%xmm0
    73f8:	48 85 c0             	test   %rax,%rax
    73fb:	75 08                	jne    7405 <__Pyx_PyUnicode_AsDouble+0x605>
    73fd:	48 89 ef             	mov    %rbp,%rdi
    7400:	e8 03 d8 ff ff       	call   4c08 <__Pyx_SlowPyString_AsDouble>
    7405:	48 8b 44 24 58       	mov    0x58(%rsp),%rax
    740a:	64 48 2b 04 25 28 00 	sub    %fs:0x28,%rax
    7411:	00 00 
    7413:	74 05                	je     741a <__Pyx_PyUnicode_AsDouble+0x61a>
    7415:	e8 16 d1 ff ff       	call   4530 <__stack_chk_fail@plt>
    741a:	48 83 c4 68          	add    $0x68,%rsp
    741e:	5b                   	pop    %rbx
    741f:	5d                   	pop    %rbp
    7420:	41 5c                	pop    %r12
    7422:	41 5d                	pop    %r13
    7424:	41 5e                	pop    %r14
    7426:	41 5f                	pop    %r15
    7428:	c3                   	ret

0000000000007429 <__pyx_pymod_exec_main>:
    7429:	41 57                	push   %r15
    742b:	31 d2                	xor    %edx,%edx
    742d:	41 56                	push   %r14
    742f:	41 55                	push   %r13
    7431:	41 54                	push   %r12
    7433:	55                   	push   %rbp
    7434:	53                   	push   %rbx
    7435:	48 81 ec 48 01 00 00 	sub    $0x148,%rsp
    743c:	48 8b 1d 5d 0c 01 00 	mov    0x10c5d(%rip),%rbx        # 180a0 <__pyx_m>
    7443:	64 48 8b 04 25 28 00 	mov    %fs:0x28,%rax
    744a:	00 00 
    744c:	48 89 84 24 38 01 00 	mov    %rax,0x138(%rsp)
    7453:	00 
    7454:	31 c0                	xor    %eax,%eax
    7456:	48 89 54 24 28       	mov    %rdx,0x28(%rsp)
    745b:	48 89 54 24 30       	mov    %rdx,0x30(%rsp)
    7460:	48 89 54 24 38       	mov    %rdx,0x38(%rsp)
    7465:	48 89 54 24 40       	mov    %rdx,0x40(%rsp)
    746a:	48 89 54 24 48       	mov    %rdx,0x48(%rsp)
    746f:	48 89 54 24 50       	mov    %rdx,0x50(%rsp)
    7474:	48 85 db             	test   %rbx,%rbx
    7477:	74 24                	je     749d <__pyx_pymod_exec_main+0x74>
    7479:	48 39 fb             	cmp    %rdi,%rbx
    747c:	0f 84 a0 3a 00 00    	je     af22 <__pyx_pymod_exec_main+0x3af9>
    7482:	48 8b 3d 37 02 01 00 	mov    0x10237(%rip),%rdi        # 176c0 <PyExc_RuntimeError@@Base>
    7489:	48 8d 35 81 b5 00 00 	lea    0xb581(%rip),%rsi        # 12a11 <_IO_stdin_used+0xa11>
    7490:	e8 6b d2 ff ff       	call   4700 <PyErr_SetString@plt>
    7495:	83 c8 ff             	or     $0xffffffff,%eax
    7498:	e9 85 3a 00 00       	jmp    af22 <__pyx_pymod_exec_main+0x3af9>
    749d:	8b 07                	mov    (%rdi),%eax
    749f:	48 89 3d fa 0b 01 00 	mov    %rdi,0x10bfa(%rip)        # 180a0 <__pyx_m>
    74a6:	ff c0                	inc    %eax
    74a8:	74 02                	je     74ac <__pyx_pymod_exec_main+0x83>
    74aa:	89 07                	mov    %eax,(%rdi)
    74ac:	e8 4f cf ff ff       	call   4400 <PyModule_GetDict@plt>
    74b1:	48 89 05 a8 07 01 00 	mov    %rax,0x107a8(%rip)        # 17c60 <__pyx_mstate_global_static>
    74b8:	48 85 c0             	test   %rax,%rax
    74bb:	0f 84 13 30 00 00    	je     a4d4 <__pyx_pymod_exec_main+0x30ab>
    74c1:	8b 10                	mov    (%rax),%edx
    74c3:	ff c2                	inc    %edx
    74c5:	74 02                	je     74c9 <__pyx_pymod_exec_main+0xa0>
    74c7:	89 10                	mov    %edx,(%rax)
    74c9:	48 8d 3d 8e b5 00 00 	lea    0xb58e(%rip),%rdi        # 12a5e <_IO_stdin_used+0xa5e>
    74d0:	e8 8b cd ff ff       	call   4260 <PyImport_AddModule@plt>
    74d5:	48 89 c2             	mov    %rax,%rdx
    74d8:	48 89 c7             	mov    %rax,%rdi
    74db:	e8 b9 3c 00 00       	call   b199 <Py_XINCREF>
    74e0:	48 89 15 81 07 01 00 	mov    %rdx,0x10781(%rip)        # 17c68 <__pyx_mstate_global_static+0x8>
    74e7:	48 85 d2             	test   %rdx,%rdx
    74ea:	0f 84 f9 2f 00 00    	je     a4e9 <__pyx_pymod_exec_main+0x30c0>
    74f0:	48 8d 3d 70 b5 00 00 	lea    0xb570(%rip),%rdi        # 12a67 <_IO_stdin_used+0xa67>
    74f7:	e8 64 cd ff ff       	call   4260 <PyImport_AddModule@plt>
    74fc:	48 89 c2             	mov    %rax,%rdx
    74ff:	48 89 c7             	mov    %rax,%rdi
    7502:	e8 92 3c 00 00       	call   b199 <Py_XINCREF>
    7507:	48 89 15 62 07 01 00 	mov    %rdx,0x10762(%rip)        # 17c70 <__pyx_mstate_global_static+0x10>
    750e:	48 85 d2             	test   %rdx,%rdx
    7511:	0f 84 e7 2f 00 00    	je     a4fe <__pyx_pymod_exec_main+0x30d5>
    7517:	48 8b 15 4a 07 01 00 	mov    0x1074a(%rip),%rdx        # 17c68 <__pyx_mstate_global_static+0x8>
    751e:	48 8b 3d 7b 0b 01 00 	mov    0x10b7b(%rip),%rdi        # 180a0 <__pyx_m>
    7525:	48 8d 35 4a b5 00 00 	lea    0xb54a(%rip),%rsi        # 12a76 <_IO_stdin_used+0xa76>
    752c:	e8 0f d0 ff ff       	call   4540 <PyObject_SetAttrString@plt>
    7531:	85 c0                	test   %eax,%eax
    7533:	0f 88 da 2f 00 00    	js     a513 <__pyx_pymod_exec_main+0x30ea>
    7539:	48 8b 05 c0 e7 00 00 	mov    0xe7c0(%rip),%rax        # 15d00 <Py_Version@@Base>
    7540:	30 c0                	xor    %al,%al
    7542:	48 89 c2             	mov    %rax,%rdx
    7545:	48 81 f2 f0 04 0c 03 	xor    $0x30c04f0,%rdx
    754c:	f7 c2 00 00 ff ff    	test   $0xffff0000,%edx
    7552:	75 18                	jne    756c <__pyx_pymod_exec_main+0x143>
    7554:	31 ff                	xor    %edi,%edi
    7556:	e8 45 d1 ff ff       	call   46a0 <PyTuple_New@plt>
    755b:	48 89 05 16 07 01 00 	mov    %rax,0x10716(%rip)        # 17c78 <__pyx_mstate_global_static+0x18>
    7562:	48 85 c0             	test   %rax,%rax
    7565:	75 76                	jne    75dd <__pyx_pymod_exec_main+0x1b4>
    7567:	e9 ba 2f 00 00       	jmp    a526 <__pyx_pymod_exec_main+0x30fd>
    756c:	48 89 c2             	mov    %rax,%rdx
    756f:	48 c1 e8 18          	shr    $0x18,%rax
    7573:	48 8d 6c 24 70       	lea    0x70(%rsp),%rbp
    7578:	41 57                	push   %r15
    757a:	48 c1 ea 10          	shr    $0x10,%rdx
    757e:	be c8 00 00 00       	mov    $0xc8,%esi
    7583:	48 89 ef             	mov    %rbp,%rdi
    7586:	41 b8 0c 00 00 00    	mov    $0xc,%r8d
    758c:	0f b6 d2             	movzbl %dl,%edx
    758f:	4c 8d 0d ec b5 00 00 	lea    0xb5ec(%rip),%r9        # 12b82 <_IO_stdin_used+0xb82>
    7596:	b9 03 00 00 00       	mov    $0x3,%ecx
    759b:	52                   	push   %rdx
    759c:	48 8d 15 e0 b4 00 00 	lea    0xb4e0(%rip),%rdx        # 12a83 <_IO_stdin_used+0xa83>
    75a3:	50                   	push   %rax
    75a4:	48 8d 05 26 b5 00 00 	lea    0xb526(%rip),%rax        # 12ad1 <_IO_stdin_used+0xad1>
    75ab:	50                   	push   %rax
    75ac:	31 c0                	xor    %eax,%eax
    75ae:	e8 5d cc ff ff       	call   4210 <PyOS_snprintf@plt>
    75b3:	48 83 c4 20          	add    $0x20,%rsp
    75b7:	31 ff                	xor    %edi,%edi
    75b9:	ba 01 00 00 00       	mov    $0x1,%edx
    75be:	48 89 ee             	mov    %rbp,%rsi
    75c1:	e8 ea ce ff ff       	call   44b0 <PyErr_WarnEx@plt>
    75c6:	85 c0                	test   %eax,%eax
    75c8:	79 8a                	jns    7554 <__pyx_pymod_exec_main+0x12b>
    75ca:	41 bc 74 14 00 00    	mov    $0x1474,%r12d
    75d0:	41 bd 01 00 00 00    	mov    $0x1,%r13d
    75d6:	31 ed                	xor    %ebp,%ebp
    75d8:	e9 50 38 00 00       	jmp    ae2d <__pyx_pymod_exec_main+0x3a04>
    75dd:	48 8d 2d c9 b1 00 00 	lea    0xb1c9(%rip),%rbp        # 127ad <_IO_stdin_used+0x7ad>
    75e4:	31 f6                	xor    %esi,%esi
    75e6:	48 89 ef             	mov    %rbp,%rdi
    75e9:	e8 b2 cf ff ff       	call   45a0 <PyBytes_FromStringAndSize@plt>
    75ee:	48 89 05 8b 06 01 00 	mov    %rax,0x1068b(%rip)        # 17c80 <__pyx_mstate_global_static+0x20>
    75f5:	48 85 c0             	test   %rax,%rax
    75f8:	0f 84 3d 2f 00 00    	je     a53b <__pyx_pymod_exec_main+0x3112>
    75fe:	31 f6                	xor    %esi,%esi
    7600:	48 89 ef             	mov    %rbp,%rdi
    7603:	e8 38 d1 ff ff       	call   4740 <PyUnicode_FromStringAndSize@plt>
    7608:	48 89 05 79 06 01 00 	mov    %rax,0x10679(%rip)        # 17c88 <__pyx_mstate_global_static+0x28>
    760f:	48 85 c0             	test   %rax,%rax
    7612:	0f 84 38 2f 00 00    	je     a550 <__pyx_pymod_exec_main+0x3127>
    7618:	48 8d 3d c1 b4 00 00 	lea    0xb4c1(%rip),%rdi        # 12ae0 <_IO_stdin_used+0xae0>
    761f:	e8 3c cc ff ff       	call   4260 <PyImport_AddModule@plt>
    7624:	48 89 c5             	mov    %rax,%rbp
    7627:	48 89 c7             	mov    %rax,%rdi
    762a:	e8 6a 3b 00 00       	call   b199 <Py_XINCREF>
    762f:	48 85 ed             	test   %rbp,%rbp
    7632:	0f 84 f4 00 00 00    	je     772c <__pyx_pymod_exec_main+0x303>
    7638:	4c 8b 2d d9 ed 00 00 	mov    0xedd9(%rip),%r13        # 16418 <__pyx_CyFunctionType_type+0x18>
    763f:	be 2e 00 00 00       	mov    $0x2e,%esi
    7644:	4c 89 ef             	mov    %r13,%rdi
    7647:	e8 44 cd ff ff       	call   4390 <strrchr@plt>
    764c:	48 85 c0             	test   %rax,%rax
    764f:	74 04                	je     7655 <__pyx_pymod_exec_main+0x22c>
    7651:	4c 8d 68 01          	lea    0x1(%rax),%r13
    7655:	4c 89 ee             	mov    %r13,%rsi
    7658:	48 89 ef             	mov    %rbp,%rdi
    765b:	e8 b0 ce ff ff       	call   4510 <PyObject_GetAttrString@plt>
    7660:	49 89 c4             	mov    %rax,%r12
    7663:	48 85 c0             	test   %rax,%rax
    7666:	74 47                	je     76af <__pyx_pymod_exec_main+0x286>
    7668:	49 8b 4c 24 08       	mov    0x8(%r12),%rcx
    766d:	48 8b 15 ac ed 00 00 	mov    0xedac(%rip),%rdx        # 16420 <__pyx_CyFunctionType_type+0x20>
    7674:	48 8b 40 20          	mov    0x20(%rax),%rax
    7678:	f6 81 ab 00 00 00 80 	testb  $0x80,0xab(%rcx)
    767f:	75 0c                	jne    768d <__pyx_pymod_exec_main+0x264>
    7681:	4c 89 ea             	mov    %r13,%rdx
    7684:	48 8d 35 64 b4 00 00 	lea    0xb464(%rip),%rsi        # 12aef <_IO_stdin_used+0xaef>
    768b:	eb 0f                	jmp    769c <__pyx_pymod_exec_main+0x273>
    768d:	48 39 c2             	cmp    %rax,%rdx
    7690:	74 7a                	je     770c <__pyx_pymod_exec_main+0x2e3>
    7692:	4c 89 ea             	mov    %r13,%rdx
    7695:	48 8d 35 82 b4 00 00 	lea    0xb482(%rip),%rsi        # 12b1e <_IO_stdin_used+0xb1e>
    769c:	48 8b 3d 7d f7 00 00 	mov    0xf77d(%rip),%rdi        # 16e20 <PyExc_TypeError@@Base>
    76a3:	31 c0                	xor    %eax,%eax
    76a5:	e8 e6 cb ff ff       	call   4290 <PyErr_Format@plt>
    76aa:	e9 63 38 00 00       	jmp    af12 <__pyx_pymod_exec_main+0x3ae9>
    76af:	48 8b 3d 82 03 01 00 	mov    0x10382(%rip),%rdi        # 17a38 <PyExc_AttributeError@@Base>
    76b6:	e8 25 cc ff ff       	call   42e0 <PyErr_ExceptionMatches@plt>
    76bb:	85 c0                	test   %eax,%eax
    76bd:	0f 84 4f 38 00 00    	je     af12 <__pyx_pymod_exec_main+0x3ae9>
    76c3:	e8 c8 cf ff ff       	call   4690 <PyErr_Clear@plt>
    76c8:	4c 8d 35 31 ed 00 00 	lea    0xed31(%rip),%r14        # 16400 <__pyx_CyFunctionType_type>
    76cf:	4c 89 f7             	mov    %r14,%rdi
    76d2:	e8 e9 c9 ff ff       	call   40c0 <PyType_Ready@plt>
    76d7:	85 c0                	test   %eax,%eax
    76d9:	0f 88 33 38 00 00    	js     af12 <__pyx_pymod_exec_main+0x3ae9>
    76df:	4c 89 f2             	mov    %r14,%rdx
    76e2:	4c 89 ee             	mov    %r13,%rsi
    76e5:	48 89 ef             	mov    %rbp,%rdi
    76e8:	e8 53 ce ff ff       	call   4540 <PyObject_SetAttrString@plt>
    76ed:	85 c0                	test   %eax,%eax
    76ef:	0f 88 1d 38 00 00    	js     af12 <__pyx_pymod_exec_main+0x3ae9>
    76f5:	8b 05 05 ed 00 00    	mov    0xed05(%rip),%eax        # 16400 <__pyx_CyFunctionType_type>
    76fb:	ff c0                	inc    %eax
    76fd:	74 06                	je     7705 <__pyx_pymod_exec_main+0x2dc>
    76ff:	89 05 fb ec 00 00    	mov    %eax,0xecfb(%rip)        # 16400 <__pyx_CyFunctionType_type>
    7705:	4c 8d 25 f4 ec 00 00 	lea    0xecf4(%rip),%r12        # 16400 <__pyx_CyFunctionType_type>
    770c:	48 8b 45 00          	mov    0x0(%rbp),%rax
    7710:	85 c0                	test   %eax,%eax
    7712:	78 09                	js     771d <__pyx_pymod_exec_main+0x2f4>
    7714:	48 ff c8             	dec    %rax
    7717:	48 89 45 00          	mov    %rax,0x0(%rbp)
    771b:	74 05                	je     7722 <__pyx_pymod_exec_main+0x2f9>
    771d:	4c 89 e5             	mov    %r12,%rbp
    7720:	eb 0a                	jmp    772c <__pyx_pymod_exec_main+0x303>
    7722:	48 89 ef             	mov    %rbp,%rdi
    7725:	e8 26 cf ff ff       	call   4650 <_Py_Dealloc@plt>
    772a:	eb f1                	jmp    771d <__pyx_pymod_exec_main+0x2f4>
    772c:	48 89 2d 5d 05 01 00 	mov    %rbp,0x1055d(%rip)        # 17c90 <__pyx_mstate_global_static+0x30>
    7733:	48 85 ed             	test   %rbp,%rbp
    7736:	0f 84 29 2e 00 00    	je     a565 <__pyx_pymod_exec_main+0x313c>
    773c:	e8 12 d6 ff ff       	call   4d53 <__Pyx_CreateStringTabAndInitStrings.isra.0>
    7741:	f2 0f 10 05 3f bf 00 	movsd  0xbf3f(%rip),%xmm0        # 13688 <__pyx_k_1+0x3a>
    7748:	00 
    7749:	e8 52 cb ff ff       	call   42a0 <PyFloat_FromDouble@plt>
    774e:	48 89 05 6b 08 01 00 	mov    %rax,0x1086b(%rip)        # 17fc0 <__pyx_mstate_global_static+0x360>
    7755:	48 85 c0             	test   %rax,%rax
    7758:	0f 84 a1 37 00 00    	je     aeff <__pyx_pymod_exec_main+0x3ad6>
    775e:	f2 0f 10 05 fa be 00 	movsd  0xbefa(%rip),%xmm0        # 13660 <__pyx_k_1+0x12>
    7765:	00 
    7766:	e8 35 cb ff ff       	call   42a0 <PyFloat_FromDouble@plt>
    776b:	48 89 05 56 08 01 00 	mov    %rax,0x10856(%rip)        # 17fc8 <__pyx_mstate_global_static+0x368>
    7772:	48 85 c0             	test   %rax,%rax
    7775:	0f 84 84 37 00 00    	je     aeff <__pyx_pymod_exec_main+0x3ad6>
    777b:	31 ff                	xor    %edi,%edi
    777d:	e8 6e ce ff ff       	call   45f0 <PyLong_FromLong@plt>
    7782:	48 89 05 47 08 01 00 	mov    %rax,0x10847(%rip)        # 17fd0 <__pyx_mstate_global_static+0x370>
    7789:	48 85 c0             	test   %rax,%rax
    778c:	0f 84 6d 37 00 00    	je     aeff <__pyx_pymod_exec_main+0x3ad6>
    7792:	bf 01 00 00 00       	mov    $0x1,%edi
    7797:	e8 54 ce ff ff       	call   45f0 <PyLong_FromLong@plt>
    779c:	48 89 05 35 08 01 00 	mov    %rax,0x10835(%rip)        # 17fd8 <__pyx_mstate_global_static+0x378>
    77a3:	48 85 c0             	test   %rax,%rax
    77a6:	0f 84 53 37 00 00    	je     aeff <__pyx_pymod_exec_main+0x3ad6>
    77ac:	bf 64 00 00 00       	mov    $0x64,%edi
    77b1:	e8 3a ce ff ff       	call   45f0 <PyLong_FromLong@plt>
    77b6:	48 89 05 23 08 01 00 	mov    %rax,0x10823(%rip)        # 17fe0 <__pyx_mstate_global_static+0x380>
    77bd:	48 85 c0             	test   %rax,%rax
    77c0:	0f 84 39 37 00 00    	je     aeff <__pyx_pymod_exec_main+0x3ad6>
    77c6:	bf c8 00 00 00       	mov    $0xc8,%edi
    77cb:	e8 20 ce ff ff       	call   45f0 <PyLong_FromLong@plt>
    77d0:	48 89 05 11 08 01 00 	mov    %rax,0x10811(%rip)        # 17fe8 <__pyx_mstate_global_static+0x388>
    77d7:	48 85 c0             	test   %rax,%rax
    77da:	0f 84 1f 37 00 00    	je     aeff <__pyx_pymod_exec_main+0x3ad6>
    77e0:	bf 90 01 00 00       	mov    $0x190,%edi
    77e5:	e8 06 ce ff ff       	call   45f0 <PyLong_FromLong@plt>
    77ea:	48 89 05 ff 07 01 00 	mov    %rax,0x107ff(%rip)        # 17ff0 <__pyx_mstate_global_static+0x390>
    77f1:	48 85 c0             	test   %rax,%rax
    77f4:	0f 84 05 37 00 00    	je     aeff <__pyx_pymod_exec_main+0x3ad6>
    77fa:	bf 00 c2 01 00       	mov    $0x1c200,%edi
    77ff:	e8 ec cd ff ff       	call   45f0 <PyLong_FromLong@plt>
    7804:	48 89 05 ed 07 01 00 	mov    %rax,0x107ed(%rip)        # 17ff8 <__pyx_mstate_global_static+0x398>
    780b:	48 85 c0             	test   %rax,%rax
    780e:	0f 84 eb 36 00 00    	je     aeff <__pyx_pymod_exec_main+0x3ad6>
    7814:	83 3d 05 04 01 00 00 	cmpl   $0x0,0x10405(%rip)        # 17c20 <__pyx_module_is_main_main>
    781b:	75 13                	jne    7830 <__pyx_pymod_exec_main+0x407>
    781d:	e8 9e ce ff ff       	call   46c0 <PyImport_GetModuleDict@plt>
    7822:	48 89 c5             	mov    %rax,%rbp
    7825:	48 85 c0             	test   %rax,%rax
    7828:	0f 84 4c 2d 00 00    	je     a57a <__pyx_pymod_exec_main+0x3151>
    782e:	eb 34                	jmp    7864 <__pyx_pymod_exec_main+0x43b>
    7830:	48 8b 15 31 06 01 00 	mov    0x10631(%rip),%rdx        # 17e68 <__pyx_mstate_global_static+0x208>
    7837:	48 8b 35 72 06 01 00 	mov    0x10672(%rip),%rsi        # 17eb0 <__pyx_mstate_global_static+0x250>
    783e:	48 8b 3d 5b 08 01 00 	mov    0x1085b(%rip),%rdi        # 180a0 <__pyx_m>
    7845:	e8 16 cd ff ff       	call   4560 <PyObject_SetAttr@plt>
    784a:	85 c0                	test   %eax,%eax
    784c:	79 cf                	jns    781d <__pyx_pymod_exec_main+0x3f4>
    784e:	41 bc 9a 14 00 00    	mov    $0x149a,%r12d
    7854:	41 bd 01 00 00 00    	mov    $0x1,%r13d
    785a:	bd 01 00 00 00       	mov    $0x1,%ebp
    785f:	e9 c9 35 00 00       	jmp    ae2d <__pyx_pymod_exec_main+0x3a04>
    7864:	4c 8d 25 17 b3 00 00 	lea    0xb317(%rip),%r12        # 12b82 <_IO_stdin_used+0xb82>
    786b:	48 89 c7             	mov    %rax,%rdi
    786e:	4c 89 e6             	mov    %r12,%rsi
    7871:	e8 3a cd ff ff       	call   45b0 <PyDict_GetItemString@plt>
    7876:	48 85 c0             	test   %rax,%rax
    7879:	74 1e                	je     7899 <__pyx_pymod_exec_main+0x470>
    787b:	48 8b 3d 46 06 01 00 	mov    0x10646(%rip),%rdi        # 17ec8 <__pyx_mstate_global_static+0x268>
    7882:	e8 b9 58 00 00       	call   d140 <__Pyx_GetBuiltinName>
    7887:	48 89 05 fa 07 01 00 	mov    %rax,0x107fa(%rip)        # 18088 <__pyx_builtin_print>
    788e:	48 85 c0             	test   %rax,%rax
    7891:	0f 84 fb 2c 00 00    	je     a592 <__pyx_pymod_exec_main+0x3169>
    7897:	eb 2e                	jmp    78c7 <__pyx_pymod_exec_main+0x49e>
    7899:	48 8b 15 00 08 01 00 	mov    0x10800(%rip),%rdx        # 180a0 <__pyx_m>
    78a0:	4c 89 e6             	mov    %r12,%rsi
    78a3:	48 89 ef             	mov    %rbp,%rdi
    78a6:	e8 a5 c7 ff ff       	call   4050 <PyDict_SetItemString@plt>
    78ab:	85 c0                	test   %eax,%eax
    78ad:	79 cc                	jns    787b <__pyx_pymod_exec_main+0x452>
    78af:	31 db                	xor    %ebx,%ebx
    78b1:	41 bc a0 14 00 00    	mov    $0x14a0,%r12d
    78b7:	41 bd 01 00 00 00    	mov    $0x1,%r13d
    78bd:	bd 01 00 00 00       	mov    $0x1,%ebp
    78c2:	e9 66 35 00 00       	jmp    ae2d <__pyx_pymod_exec_main+0x3a04>
    78c7:	48 8b 15 e2 03 01 00 	mov    0x103e2(%rip),%rdx        # 17cb0 <__pyx_mstate_global_static+0x50>
    78ce:	48 8b 35 a3 04 01 00 	mov    0x104a3(%rip),%rsi        # 17d78 <__pyx_mstate_global_static+0x118>
    78d5:	bf 02 00 00 00       	mov    $0x2,%edi
    78da:	31 c0                	xor    %eax,%eax
    78dc:	e8 cf ca ff ff       	call   43b0 <PyTuple_Pack@plt>
    78e1:	48 89 05 18 07 01 00 	mov    %rax,0x10718(%rip)        # 18000 <__pyx_mstate_global_static+0x3a0>
    78e8:	48 85 c0             	test   %rax,%rax
    78eb:	0f 84 f8 35 00 00    	je     aee9 <__pyx_pymod_exec_main+0x3ac0>
    78f1:	48 8b 35 30 06 01 00 	mov    0x10630(%rip),%rsi        # 17f28 <__pyx_mstate_global_static+0x2c8>
    78f8:	bf 01 00 00 00       	mov    $0x1,%edi
    78fd:	31 c0                	xor    %eax,%eax
    78ff:	e8 ac ca ff ff       	call   43b0 <PyTuple_Pack@plt>
    7904:	48 89 05 fd 06 01 00 	mov    %rax,0x106fd(%rip)        # 18008 <__pyx_mstate_global_static+0x3a8>
    790b:	48 85 c0             	test   %rax,%rax
    790e:	0f 84 d5 35 00 00    	je     aee9 <__pyx_pymod_exec_main+0x3ac0>
    7914:	48 8b 35 7d 04 01 00 	mov    0x1047d(%rip),%rsi        # 17d98 <__pyx_mstate_global_static+0x138>
    791b:	bf 02 00 00 00       	mov    $0x2,%edi
    7920:	31 c0                	xor    %eax,%eax
    7922:	48 89 f2             	mov    %rsi,%rdx
    7925:	e8 86 ca ff ff       	call   43b0 <PyTuple_Pack@plt>
    792a:	48 89 05 df 06 01 00 	mov    %rax,0x106df(%rip)        # 18010 <__pyx_mstate_global_static+0x3b0>
    7931:	48 85 c0             	test   %rax,%rax
    7934:	0f 84 af 35 00 00    	je     aee9 <__pyx_pymod_exec_main+0x3ac0>
    793a:	48 8b 0d 17 05 01 00 	mov    0x10517(%rip),%rcx        # 17e58 <__pyx_mstate_global_static+0x1f8>
    7941:	48 8b 15 48 06 01 00 	mov    0x10648(%rip),%rdx        # 17f90 <__pyx_mstate_global_static+0x330>
    7948:	bf 03 00 00 00       	mov    $0x3,%edi
    794d:	31 c0                	xor    %eax,%eax
    794f:	48 8b 35 ca 05 01 00 	mov    0x105ca(%rip),%rsi        # 17f20 <__pyx_mstate_global_static+0x2c0>
    7956:	e8 55 ca ff ff       	call   43b0 <PyTuple_Pack@plt>
    795b:	48 89 05 b6 06 01 00 	mov    %rax,0x106b6(%rip)        # 18018 <__pyx_mstate_global_static+0x3b8>
    7962:	48 85 c0             	test   %rax,%rax
    7965:	0f 84 7e 35 00 00    	je     aee9 <__pyx_pymod_exec_main+0x3ac0>
    796b:	48 8b 15 46 05 01 00 	mov    0x10546(%rip),%rdx        # 17eb8 <__pyx_mstate_global_static+0x258>
    7972:	48 8b 35 47 05 01 00 	mov    0x10547(%rip),%rsi        # 17ec0 <__pyx_mstate_global_static+0x260>
    7979:	bf 02 00 00 00       	mov    $0x2,%edi
    797e:	31 c0                	xor    %eax,%eax
    7980:	e8 2b ca ff ff       	call   43b0 <PyTuple_Pack@plt>
    7985:	48 89 05 94 06 01 00 	mov    %rax,0x10694(%rip)        # 18020 <__pyx_mstate_global_static+0x3c0>
    798c:	49 89 c1             	mov    %rax,%r9
    798f:	48 85 c0             	test   %rax,%rax
    7992:	0f 84 51 35 00 00    	je     aee9 <__pyx_pymod_exec_main+0x3ac0>
    7998:	48 8b 0d d9 02 01 00 	mov    0x102d9(%rip),%rcx        # 17c78 <__pyx_mstate_global_static+0x18>
    799f:	48 8b 15 da 02 01 00 	mov    0x102da(%rip),%rdx        # 17c80 <__pyx_mstate_global_static+0x20>
    79a6:	be 02 00 00 00       	mov    $0x2,%esi
    79ab:	31 ff                	xor    %edi,%edi
    79ad:	52                   	push   %rdx
    79ae:	49 89 c8             	mov    %rcx,%r8
    79b1:	6a 12                	push   $0x12
    79b3:	ff 35 27 04 01 00    	push   0x10427(%rip)        # 17de0 <__pyx_mstate_global_static+0x180>
    79b9:	ff 35 b9 04 01 00    	push   0x104b9(%rip)        # 17e78 <__pyx_mstate_global_static+0x218>
    79bf:	51                   	push   %rcx
    79c0:	51                   	push   %rcx
    79c1:	e8 7c d1 ff ff       	call   4b42 <__Pyx_PyCode_New.constprop.0>
    79c6:	48 83 c4 30          	add    $0x30,%rsp
    79ca:	48 89 05 8f 06 01 00 	mov    %rax,0x1068f(%rip)        # 18060 <__pyx_mstate_global_static+0x400>
    79d1:	48 85 c0             	test   %rax,%rax
    79d4:	0f 84 0f 35 00 00    	je     aee9 <__pyx_pymod_exec_main+0x3ac0>
    79da:	48 8b 35 d7 04 01 00 	mov    0x104d7(%rip),%rsi        # 17eb8 <__pyx_mstate_global_static+0x258>
    79e1:	bf 01 00 00 00       	mov    $0x1,%edi
    79e6:	31 c0                	xor    %eax,%eax
    79e8:	e8 c3 c9 ff ff       	call   43b0 <PyTuple_Pack@plt>
    79ed:	48 89 05 34 06 01 00 	mov    %rax,0x10634(%rip)        # 18028 <__pyx_mstate_global_static+0x3c8>
    79f4:	49 89 c1             	mov    %rax,%r9
    79f7:	48 85 c0             	test   %rax,%rax
    79fa:	0f 84 e9 34 00 00    	je     aee9 <__pyx_pymod_exec_main+0x3ac0>
    7a00:	48 8b 0d 71 02 01 00 	mov    0x10271(%rip),%rcx        # 17c78 <__pyx_mstate_global_static+0x18>
    7a07:	48 8b 15 72 02 01 00 	mov    0x10272(%rip),%rdx        # 17c80 <__pyx_mstate_global_static+0x20>
    7a0e:	be 01 00 00 00       	mov    $0x1,%esi
    7a13:	31 ff                	xor    %edi,%edi
    7a15:	52                   	push   %rdx
    7a16:	49 89 c8             	mov    %rcx,%r8
    7a19:	6a 17                	push   $0x17
    7a1b:	ff 35 4f 03 01 00    	push   0x1034f(%rip)        # 17d70 <__pyx_mstate_global_static+0x110>
    7a21:	ff 35 51 04 01 00    	push   0x10451(%rip)        # 17e78 <__pyx_mstate_global_static+0x218>
    7a27:	51                   	push   %rcx
    7a28:	51                   	push   %rcx
    7a29:	e8 14 d1 ff ff       	call   4b42 <__Pyx_PyCode_New.constprop.0>
    7a2e:	48 83 c4 30          	add    $0x30,%rsp
    7a32:	48 89 05 2f 06 01 00 	mov    %rax,0x1062f(%rip)        # 18068 <__pyx_mstate_global_static+0x408>
    7a39:	48 85 c0             	test   %rax,%rax
    7a3c:	0f 84 a7 34 00 00    	je     aee9 <__pyx_pymod_exec_main+0x3ac0>
    7a42:	48 8b 0d 2f 02 01 00 	mov    0x1022f(%rip),%rcx        # 17c78 <__pyx_mstate_global_static+0x18>
    7a49:	48 8b 15 30 02 01 00 	mov    0x10230(%rip),%rdx        # 17c80 <__pyx_mstate_global_static+0x20>
    7a50:	31 f6                	xor    %esi,%esi
    7a52:	31 ff                	xor    %edi,%edi
    7a54:	52                   	push   %rdx
    7a55:	49 89 c9             	mov    %rcx,%r9
    7a58:	49 89 c8             	mov    %rcx,%r8
    7a5b:	6a 21                	push   $0x21
    7a5d:	ff 35 a5 04 01 00    	push   0x104a5(%rip)        # 17f08 <__pyx_mstate_global_static+0x2a8>
    7a63:	ff 35 0f 04 01 00    	push   0x1040f(%rip)        # 17e78 <__pyx_mstate_global_static+0x218>
    7a69:	51                   	push   %rcx
    7a6a:	51                   	push   %rcx
    7a6b:	e8 d2 d0 ff ff       	call   4b42 <__Pyx_PyCode_New.constprop.0>
    7a70:	48 83 c4 30          	add    $0x30,%rsp
    7a74:	48 89 05 f5 05 01 00 	mov    %rax,0x105f5(%rip)        # 18070 <__pyx_mstate_global_static+0x410>
    7a7b:	48 85 c0             	test   %rax,%rax
    7a7e:	0f 84 65 34 00 00    	je     aee9 <__pyx_pymod_exec_main+0x3ac0>
    7a84:	48 8b 35 1d 04 01 00 	mov    0x1041d(%rip),%rsi        # 17ea8 <__pyx_mstate_global_static+0x248>
    7a8b:	bf 01 00 00 00       	mov    $0x1,%edi
    7a90:	31 c0                	xor    %eax,%eax
    7a92:	e8 19 c9 ff ff       	call   43b0 <PyTuple_Pack@plt>
    7a97:	48 89 05 92 05 01 00 	mov    %rax,0x10592(%rip)        # 18030 <__pyx_mstate_global_static+0x3d0>
    7a9e:	49 89 c1             	mov    %rax,%r9
    7aa1:	48 85 c0             	test   %rax,%rax
    7aa4:	0f 84 3f 34 00 00    	je     aee9 <__pyx_pymod_exec_main+0x3ac0>
    7aaa:	48 8b 0d c7 01 01 00 	mov    0x101c7(%rip),%rcx        # 17c78 <__pyx_mstate_global_static+0x18>
    7ab1:	be 01 00 00 00       	mov    $0x1,%esi
    7ab6:	bf 01 00 00 00       	mov    $0x1,%edi
    7abb:	48 8b 15 be 01 01 00 	mov    0x101be(%rip),%rdx        # 17c80 <__pyx_mstate_global_static+0x20>
    7ac2:	52                   	push   %rdx
    7ac3:	49 89 c8             	mov    %rcx,%r8
    7ac6:	6a 25                	push   $0x25
    7ac8:	ff 35 22 04 01 00    	push   0x10422(%rip)        # 17ef0 <__pyx_mstate_global_static+0x290>
    7ace:	ff 35 a4 03 01 00    	push   0x103a4(%rip)        # 17e78 <__pyx_mstate_global_static+0x218>
    7ad4:	51                   	push   %rcx
    7ad5:	51                   	push   %rcx
    7ad6:	e8 67 d0 ff ff       	call   4b42 <__Pyx_PyCode_New.constprop.0>
    7adb:	48 83 c4 30          	add    $0x30,%rsp
    7adf:	48 89 05 92 05 01 00 	mov    %rax,0x10592(%rip)        # 18078 <__pyx_mstate_global_static+0x418>
    7ae6:	48 85 c0             	test   %rax,%rax
    7ae9:	0f 84 fa 33 00 00    	je     aee9 <__pyx_pymod_exec_main+0x3ac0>
    7aef:	48 8b 35 e2 01 01 00 	mov    0x101e2(%rip),%rsi        # 17cd8 <__pyx_mstate_global_static+0x78>
    7af6:	bf 01 00 00 00       	mov    $0x1,%edi
    7afb:	31 c0                	xor    %eax,%eax
    7afd:	e8 ae c8 ff ff       	call   43b0 <PyTuple_Pack@plt>
    7b02:	48 89 05 2f 05 01 00 	mov    %rax,0x1052f(%rip)        # 18038 <__pyx_mstate_global_static+0x3d8>
    7b09:	48 85 c0             	test   %rax,%rax
    7b0c:	0f 84 d7 33 00 00    	je     aee9 <__pyx_pymod_exec_main+0x3ac0>
    7b12:	48 8b 15 7f 04 01 00 	mov    0x1047f(%rip),%rdx        # 17f98 <__pyx_mstate_global_static+0x338>
    7b19:	48 8b 35 20 03 01 00 	mov    0x10320(%rip),%rsi        # 17e40 <__pyx_mstate_global_static+0x1e0>
    7b20:	bf 02 00 00 00       	mov    $0x2,%edi
    7b25:	31 c0                	xor    %eax,%eax
    7b27:	e8 84 c8 ff ff       	call   43b0 <PyTuple_Pack@plt>
    7b2c:	48 89 05 0d 05 01 00 	mov    %rax,0x1050d(%rip)        # 18040 <__pyx_mstate_global_static+0x3e0>
    7b33:	49 89 c1             	mov    %rax,%r9
    7b36:	48 85 c0             	test   %rax,%rax
    7b39:	0f 84 aa 33 00 00    	je     aee9 <__pyx_pymod_exec_main+0x3ac0>
    7b3f:	48 8b 0d 32 01 01 00 	mov    0x10132(%rip),%rcx        # 17c78 <__pyx_mstate_global_static+0x18>
    7b46:	48 8b 15 33 01 01 00 	mov    0x10133(%rip),%rdx        # 17c80 <__pyx_mstate_global_static+0x20>
    7b4d:	be 02 00 00 00       	mov    $0x2,%esi
    7b52:	31 ff                	xor    %edi,%edi
    7b54:	52                   	push   %rdx
    7b55:	49 89 c8             	mov    %rcx,%r8
    7b58:	6a 4b                	push   $0x4b
    7b5a:	ff 35 e0 01 01 00    	push   0x101e0(%rip)        # 17d40 <__pyx_mstate_global_static+0xe0>
    7b60:	ff 35 12 03 01 00    	push   0x10312(%rip)        # 17e78 <__pyx_mstate_global_static+0x218>
    7b66:	51                   	push   %rcx
    7b67:	51                   	push   %rcx
    7b68:	e8 d5 cf ff ff       	call   4b42 <__Pyx_PyCode_New.constprop.0>
    7b6d:	48 83 c4 30          	add    $0x30,%rsp
    7b71:	48 89 05 08 05 01 00 	mov    %rax,0x10508(%rip)        # 18080 <__pyx_mstate_global_static+0x420>
    7b78:	48 85 c0             	test   %rax,%rax
    7b7b:	0f 84 68 33 00 00    	je     aee9 <__pyx_pymod_exec_main+0x3ac0>
    7b81:	48 8b 35 08 02 01 00 	mov    0x10208(%rip),%rsi        # 17d90 <__pyx_mstate_global_static+0x130>
    7b88:	bf 01 00 00 00       	mov    $0x1,%edi
    7b8d:	31 c0                	xor    %eax,%eax
    7b8f:	e8 1c c8 ff ff       	call   43b0 <PyTuple_Pack@plt>
    7b94:	48 89 05 ad 04 01 00 	mov    %rax,0x104ad(%rip)        # 18048 <__pyx_mstate_global_static+0x3e8>
    7b9b:	48 85 c0             	test   %rax,%rax
    7b9e:	0f 84 45 33 00 00    	je     aee9 <__pyx_pymod_exec_main+0x3ac0>
    7ba4:	4c 8d 25 75 fe 00 00 	lea    0xfe75(%rip),%r12        # 17a20 <_Py_NoneStruct@@Base>
    7bab:	bf 03 00 00 00       	mov    $0x3,%edi
    7bb0:	31 c0                	xor    %eax,%eax
    7bb2:	4c 89 e1             	mov    %r12,%rcx
    7bb5:	4c 89 e2             	mov    %r12,%rdx
    7bb8:	4c 89 e6             	mov    %r12,%rsi
    7bbb:	e8 f0 c7 ff ff       	call   43b0 <PyTuple_Pack@plt>
    7bc0:	48 89 05 89 04 01 00 	mov    %rax,0x10489(%rip)        # 18050 <__pyx_mstate_global_static+0x3f0>
    7bc7:	48 85 c0             	test   %rax,%rax
    7bca:	0f 84 19 33 00 00    	je     aee9 <__pyx_pymod_exec_main+0x3ac0>
    7bd0:	48 8b 35 a9 02 01 00 	mov    0x102a9(%rip),%rsi        # 17e80 <__pyx_mstate_global_static+0x220>
    7bd7:	48 8d 15 22 f9 00 00 	lea    0xf922(%rip),%rdx        # 17500 <_Py_TrueStruct@@Base>
    7bde:	bf 02 00 00 00       	mov    $0x2,%edi
    7be3:	31 c0                	xor    %eax,%eax
    7be5:	e8 c6 c7 ff ff       	call   43b0 <PyTuple_Pack@plt>
    7bea:	48 89 05 67 04 01 00 	mov    %rax,0x10467(%rip)        # 18058 <__pyx_mstate_global_static+0x3f8>
    7bf1:	48 85 c0             	test   %rax,%rax
    7bf4:	0f 84 b0 29 00 00    	je     a5aa <__pyx_pymod_exec_main+0x3181>
    7bfa:	48 8b 35 0f 04 01 00 	mov    0x1040f(%rip),%rsi        # 18010 <__pyx_mstate_global_static+0x3b0>
    7c01:	48 8b 3d 98 01 01 00 	mov    0x10198(%rip),%rdi        # 17da0 <__pyx_mstate_global_static+0x140>
    7c08:	e8 53 ef ff ff       	call   6b60 <__Pyx_ImportDottedModule>
    7c0d:	48 89 c5             	mov    %rax,%rbp
    7c10:	48 85 c0             	test   %rax,%rax
    7c13:	0f 84 a9 29 00 00    	je     a5c2 <__pyx_pymod_exec_main+0x3199>
    7c19:	48 8b 35 a8 01 01 00 	mov    0x101a8(%rip),%rsi        # 17dc8 <__pyx_mstate_global_static+0x168>
    7c20:	48 8b 3d 39 00 01 00 	mov    0x10039(%rip),%rdi        # 17c60 <__pyx_mstate_global_static>
    7c27:	48 89 c2             	mov    %rax,%rdx
    7c2a:	e8 81 cb ff ff       	call   47b0 <PyDict_SetItem@plt>
    7c2f:	85 c0                	test   %eax,%eax
    7c31:	0f 88 a3 29 00 00    	js     a5da <__pyx_pymod_exec_main+0x31b1>
    7c37:	48 8b 45 00          	mov    0x0(%rbp),%rax
    7c3b:	85 c0                	test   %eax,%eax
    7c3d:	78 11                	js     7c50 <__pyx_pymod_exec_main+0x827>
    7c3f:	48 ff c8             	dec    %rax
    7c42:	48 89 45 00          	mov    %rax,0x0(%rbp)
    7c46:	75 08                	jne    7c50 <__pyx_pymod_exec_main+0x827>
    7c48:	48 89 ef             	mov    %rbp,%rdi
    7c4b:	e8 00 ca ff ff       	call   4650 <_Py_Dealloc@plt>
    7c50:	48 8b 3d c9 02 01 00 	mov    0x102c9(%rip),%rdi        # 17f20 <__pyx_mstate_global_static+0x2c0>
    7c57:	31 f6                	xor    %esi,%esi
    7c59:	e8 02 ef ff ff       	call   6b60 <__Pyx_ImportDottedModule>
    7c5e:	48 89 c5             	mov    %rax,%rbp
    7c61:	48 85 c0             	test   %rax,%rax
    7c64:	0f 84 89 29 00 00    	je     a5f3 <__pyx_pymod_exec_main+0x31ca>
    7c6a:	48 8b 35 af 02 01 00 	mov    0x102af(%rip),%rsi        # 17f20 <__pyx_mstate_global_static+0x2c0>
    7c71:	48 8b 3d e8 ff 00 00 	mov    0xffe8(%rip),%rdi        # 17c60 <__pyx_mstate_global_static>
    7c78:	48 89 c2             	mov    %rax,%rdx
    7c7b:	e8 30 cb ff ff       	call   47b0 <PyDict_SetItem@plt>
    7c80:	85 c0                	test   %eax,%eax
    7c82:	0f 88 83 29 00 00    	js     a60b <__pyx_pymod_exec_main+0x31e2>
    7c88:	48 8b 45 00          	mov    0x0(%rbp),%rax
    7c8c:	85 c0                	test   %eax,%eax
    7c8e:	78 11                	js     7ca1 <__pyx_pymod_exec_main+0x878>
    7c90:	48 ff c8             	dec    %rax
    7c93:	48 89 45 00          	mov    %rax,0x0(%rbp)
    7c97:	75 08                	jne    7ca1 <__pyx_pymod_exec_main+0x878>
    7c99:	48 89 ef             	mov    %rbp,%rdi
    7c9c:	e8 af c9 ff ff       	call   4650 <_Py_Dealloc@plt>
    7ca1:	48 8b 3d 90 02 01 00 	mov    0x10290(%rip),%rdi        # 17f38 <__pyx_mstate_global_static+0x2d8>
    7ca8:	e8 ff ec ff ff       	call   69ac <__Pyx_Import.constprop.0>
    7cad:	48 89 c5             	mov    %rax,%rbp
    7cb0:	48 85 c0             	test   %rax,%rax
    7cb3:	0f 84 6b 29 00 00    	je     a624 <__pyx_pymod_exec_main+0x31fb>
    7cb9:	48 8b 35 60 02 01 00 	mov    0x10260(%rip),%rsi        # 17f20 <__pyx_mstate_global_static+0x2c0>
    7cc0:	48 8b 3d 99 ff 00 00 	mov    0xff99(%rip),%rdi        # 17c60 <__pyx_mstate_global_static>
    7cc7:	48 89 c2             	mov    %rax,%rdx
    7cca:	e8 e1 ca ff ff       	call   47b0 <PyDict_SetItem@plt>
    7ccf:	85 c0                	test   %eax,%eax
    7cd1:	0f 88 65 29 00 00    	js     a63c <__pyx_pymod_exec_main+0x3213>
    7cd7:	48 8b 45 00          	mov    0x0(%rbp),%rax
    7cdb:	85 c0                	test   %eax,%eax
    7cdd:	78 11                	js     7cf0 <__pyx_pymod_exec_main+0x8c7>
    7cdf:	48 ff c8             	dec    %rax
    7ce2:	48 89 45 00          	mov    %rax,0x0(%rbp)
    7ce6:	75 08                	jne    7cf0 <__pyx_pymod_exec_main+0x8c7>
    7ce8:	48 89 ef             	mov    %rbp,%rdi
    7ceb:	e8 60 c9 ff ff       	call   4650 <_Py_Dealloc@plt>
    7cf0:	48 8b 3d 81 02 01 00 	mov    0x10281(%rip),%rdi        # 17f78 <__pyx_mstate_global_static+0x318>
    7cf7:	31 f6                	xor    %esi,%esi
    7cf9:	e8 62 ee ff ff       	call   6b60 <__Pyx_ImportDottedModule>
    7cfe:	48 89 c5             	mov    %rax,%rbp
    7d01:	48 85 c0             	test   %rax,%rax
    7d04:	0f 84 4b 29 00 00    	je     a655 <__pyx_pymod_exec_main+0x322c>
    7d0a:	48 8b 35 67 02 01 00 	mov    0x10267(%rip),%rsi        # 17f78 <__pyx_mstate_global_static+0x318>
    7d11:	48 8b 3d 48 ff 00 00 	mov    0xff48(%rip),%rdi        # 17c60 <__pyx_mstate_global_static>
    7d18:	48 89 c2             	mov    %rax,%rdx
    7d1b:	e8 90 ca ff ff       	call   47b0 <PyDict_SetItem@plt>
    7d20:	85 c0                	test   %eax,%eax
    7d22:	0f 88 45 29 00 00    	js     a66d <__pyx_pymod_exec_main+0x3244>
    7d28:	48 8b 45 00          	mov    0x0(%rbp),%rax
    7d2c:	85 c0                	test   %eax,%eax
    7d2e:	78 11                	js     7d41 <__pyx_pymod_exec_main+0x918>
    7d30:	48 ff c8             	dec    %rax
    7d33:	48 89 45 00          	mov    %rax,0x0(%rbp)
    7d37:	75 08                	jne    7d41 <__pyx_pymod_exec_main+0x918>
    7d39:	48 89 ef             	mov    %rbp,%rdi
    7d3c:	e8 0f c9 ff ff       	call   4650 <_Py_Dealloc@plt>
    7d41:	48 8b 3d e8 00 01 00 	mov    0x100e8(%rip),%rdi        # 17e30 <__pyx_mstate_global_static+0x1d0>
    7d48:	31 f6                	xor    %esi,%esi
    7d4a:	e8 11 ee ff ff       	call   6b60 <__Pyx_ImportDottedModule>
    7d4f:	48 89 c5             	mov    %rax,%rbp
    7d52:	48 85 c0             	test   %rax,%rax
    7d55:	0f 84 2b 29 00 00    	je     a686 <__pyx_pymod_exec_main+0x325d>
    7d5b:	48 8b 35 ce 00 01 00 	mov    0x100ce(%rip),%rsi        # 17e30 <__pyx_mstate_global_static+0x1d0>
    7d62:	48 8b 3d f7 fe 00 00 	mov    0xfef7(%rip),%rdi        # 17c60 <__pyx_mstate_global_static>
    7d69:	48 89 c2             	mov    %rax,%rdx
    7d6c:	e8 3f ca ff ff       	call   47b0 <PyDict_SetItem@plt>
    7d71:	85 c0                	test   %eax,%eax
    7d73:	0f 88 25 29 00 00    	js     a69e <__pyx_pymod_exec_main+0x3275>
    7d79:	48 8b 45 00          	mov    0x0(%rbp),%rax
    7d7d:	85 c0                	test   %eax,%eax
    7d7f:	78 11                	js     7d92 <__pyx_pymod_exec_main+0x969>
    7d81:	48 ff c8             	dec    %rax
    7d84:	48 89 45 00          	mov    %rax,0x0(%rbp)
    7d88:	75 08                	jne    7d92 <__pyx_pymod_exec_main+0x969>
    7d8a:	48 89 ef             	mov    %rbp,%rdi
    7d8d:	e8 be c8 ff ff       	call   4650 <_Py_Dealloc@plt>
    7d92:	48 8b 35 7f 01 01 00 	mov    0x1017f(%rip),%rsi        # 17f18 <__pyx_mstate_global_static+0x2b8>
    7d99:	48 8b 3d c0 fe 00 00 	mov    0xfec0(%rip),%rdi        # 17c60 <__pyx_mstate_global_static>
    7da0:	4c 89 e2             	mov    %r12,%rdx
    7da3:	e8 08 ca ff ff       	call   47b0 <PyDict_SetItem@plt>
    7da8:	85 c0                	test   %eax,%eax
    7daa:	0f 88 07 29 00 00    	js     a6b7 <__pyx_pymod_exec_main+0x328e>
    7db0:	48 8b 3d c1 01 01 00 	mov    0x101c1(%rip),%rdi        # 17f78 <__pyx_mstate_global_static+0x318>
    7db7:	e8 c8 53 00 00       	call   d184 <__Pyx__GetModuleGlobalName>
    7dbc:	48 89 c5             	mov    %rax,%rbp
    7dbf:	48 85 c0             	test   %rax,%rax
    7dc2:	0f 84 05 29 00 00    	je     a6cd <__pyx_pymod_exec_main+0x32a4>
    7dc8:	48 8b 35 a9 01 01 00 	mov    0x101a9(%rip),%rsi        # 17f78 <__pyx_mstate_global_static+0x318>
    7dcf:	48 89 c7             	mov    %rax,%rdi
    7dd2:	e8 a5 37 00 00       	call   b57c <__Pyx_PyObject_GetAttrStr>
    7dd7:	48 89 44 24 28       	mov    %rax,0x28(%rsp)
    7ddc:	49 89 c4             	mov    %rax,%r12
    7ddf:	48 85 c0             	test   %rax,%rax
    7de2:	0f 84 fd 28 00 00    	je     a6e5 <__pyx_pymod_exec_main+0x32bc>
    7de8:	48 8b 45 00          	mov    0x0(%rbp),%rax
    7dec:	85 c0                	test   %eax,%eax
    7dee:	78 11                	js     7e01 <__pyx_pymod_exec_main+0x9d8>
    7df0:	48 ff c8             	dec    %rax
    7df3:	48 89 45 00          	mov    %rax,0x0(%rbp)
    7df7:	75 08                	jne    7e01 <__pyx_pymod_exec_main+0x9d8>
    7df9:	48 89 ef             	mov    %rbp,%rdi
    7dfc:	e8 4f c8 ff ff       	call   4650 <_Py_Dealloc@plt>
    7e01:	4c 89 e7             	mov    %r12,%rdi
    7e04:	e8 aa ef ff ff       	call   6db3 <__Pyx_PyObject_CallNoArg>
    7e09:	48 89 c5             	mov    %rax,%rbp
    7e0c:	48 85 c0             	test   %rax,%rax
    7e0f:	0f 84 e9 28 00 00    	je     a6fe <__pyx_pymod_exec_main+0x32d5>
    7e15:	49 8b 04 24          	mov    (%r12),%rax
    7e19:	85 c0                	test   %eax,%eax
    7e1b:	78 11                	js     7e2e <__pyx_pymod_exec_main+0xa05>
    7e1d:	48 ff c8             	dec    %rax
    7e20:	49 89 04 24          	mov    %rax,(%r12)
    7e24:	75 08                	jne    7e2e <__pyx_pymod_exec_main+0xa05>
    7e26:	4c 89 e7             	mov    %r12,%rdi
    7e29:	e8 22 c8 ff ff       	call   4650 <_Py_Dealloc@plt>
    7e2e:	48 8b 35 1b 00 01 00 	mov    0x1001b(%rip),%rsi        # 17e50 <__pyx_mstate_global_static+0x1f0>
    7e35:	48 8b 3d 24 fe 00 00 	mov    0xfe24(%rip),%rdi        # 17c60 <__pyx_mstate_global_static>
    7e3c:	45 31 f6             	xor    %r14d,%r14d
    7e3f:	48 89 ea             	mov    %rbp,%rdx
    7e42:	4c 89 74 24 28       	mov    %r14,0x28(%rsp)
    7e47:	e8 64 c9 ff ff       	call   47b0 <PyDict_SetItem@plt>
    7e4c:	85 c0                	test   %eax,%eax
    7e4e:	0f 88 c2 28 00 00    	js     a716 <__pyx_pymod_exec_main+0x32ed>
    7e54:	48 8b 45 00          	mov    0x0(%rbp),%rax
    7e58:	85 c0                	test   %eax,%eax
    7e5a:	78 11                	js     7e6d <__pyx_pymod_exec_main+0xa44>
    7e5c:	48 ff c8             	dec    %rax
    7e5f:	48 89 45 00          	mov    %rax,0x0(%rbp)
    7e63:	75 08                	jne    7e6d <__pyx_pymod_exec_main+0xa44>
    7e65:	48 89 ef             	mov    %rbp,%rdi
    7e68:	e8 e3 c7 ff ff       	call   4650 <_Py_Dealloc@plt>
    7e6d:	e8 5e c9 ff ff       	call   47d0 <PyDict_New@plt>
    7e72:	48 89 c5             	mov    %rax,%rbp
    7e75:	48 85 c0             	test   %rax,%rax
    7e78:	0f 84 b1 28 00 00    	je     a72f <__pyx_pymod_exec_main+0x3306>
    7e7e:	48 8b 15 4b 01 01 00 	mov    0x1014b(%rip),%rdx        # 17fd0 <__pyx_mstate_global_static+0x370>
    7e85:	48 8b 35 94 fe 00 00 	mov    0xfe94(%rip),%rsi        # 17d20 <__pyx_mstate_global_static+0xc0>
    7e8c:	48 89 c7             	mov    %rax,%rdi
    7e8f:	e8 1c c9 ff ff       	call   47b0 <PyDict_SetItem@plt>
    7e94:	85 c0                	test   %eax,%eax
    7e96:	0f 88 ab 28 00 00    	js     a747 <__pyx_pymod_exec_main+0x331e>
    7e9c:	48 8b 15 2d 01 01 00 	mov    0x1012d(%rip),%rdx        # 17fd0 <__pyx_mstate_global_static+0x370>
    7ea3:	48 8b 35 86 fe 00 00 	mov    0xfe86(%rip),%rsi        # 17d30 <__pyx_mstate_global_static+0xd0>
    7eaa:	48 89 ef             	mov    %rbp,%rdi
    7ead:	e8 fe c8 ff ff       	call   47b0 <PyDict_SetItem@plt>
    7eb2:	85 c0                	test   %eax,%eax
    7eb4:	0f 88 a6 28 00 00    	js     a760 <__pyx_pymod_exec_main+0x3337>
    7eba:	48 8b 15 0f 01 01 00 	mov    0x1010f(%rip),%rdx        # 17fd0 <__pyx_mstate_global_static+0x370>
    7ec1:	48 8b 35 50 fe 00 00 	mov    0xfe50(%rip),%rsi        # 17d18 <__pyx_mstate_global_static+0xb8>
    7ec8:	48 89 ef             	mov    %rbp,%rdi
    7ecb:	e8 e0 c8 ff ff       	call   47b0 <PyDict_SetItem@plt>
    7ed0:	85 c0                	test   %eax,%eax
    7ed2:	0f 88 a1 28 00 00    	js     a779 <__pyx_pymod_exec_main+0x3350>
    7ed8:	48 8b 15 f1 00 01 00 	mov    0x100f1(%rip),%rdx        # 17fd0 <__pyx_mstate_global_static+0x370>
    7edf:	48 8b 35 42 fe 00 00 	mov    0xfe42(%rip),%rsi        # 17d28 <__pyx_mstate_global_static+0xc8>
    7ee6:	48 89 ef             	mov    %rbp,%rdi
    7ee9:	e8 c2 c8 ff ff       	call   47b0 <PyDict_SetItem@plt>
    7eee:	85 c0                	test   %eax,%eax
    7ef0:	0f 88 9c 28 00 00    	js     a792 <__pyx_pymod_exec_main+0x3369>
    7ef6:	48 8b 35 3b ff 00 00 	mov    0xff3b(%rip),%rsi        # 17e38 <__pyx_mstate_global_static+0x1d8>
    7efd:	48 8b 3d 5c fd 00 00 	mov    0xfd5c(%rip),%rdi        # 17c60 <__pyx_mstate_global_static>
    7f04:	48 89 ea             	mov    %rbp,%rdx
    7f07:	e8 a4 c8 ff ff       	call   47b0 <PyDict_SetItem@plt>
    7f0c:	85 c0                	test   %eax,%eax
    7f0e:	0f 88 97 28 00 00    	js     a7ab <__pyx_pymod_exec_main+0x3382>
    7f14:	48 8b 45 00          	mov    0x0(%rbp),%rax
    7f18:	85 c0                	test   %eax,%eax
    7f1a:	78 11                	js     7f2d <__pyx_pymod_exec_main+0xb04>
    7f1c:	48 ff c8             	dec    %rax
    7f1f:	48 89 45 00          	mov    %rax,0x0(%rbp)
    7f23:	75 08                	jne    7f2d <__pyx_pymod_exec_main+0xb04>
    7f25:	48 89 ef             	mov    %rbp,%rdi
    7f28:	e8 23 c7 ff ff       	call   4650 <_Py_Dealloc@plt>
    7f2d:	48 8b 3d 04 ff 00 00 	mov    0xff04(%rip),%rdi        # 17e38 <__pyx_mstate_global_static+0x1d8>
    7f34:	e8 4b 52 00 00       	call   d184 <__Pyx__GetModuleGlobalName>
    7f39:	48 89 c5             	mov    %rax,%rbp
    7f3c:	48 85 c0             	test   %rax,%rax
    7f3f:	0f 84 7f 28 00 00    	je     a7c4 <__pyx_pymod_exec_main+0x339b>
    7f45:	48 8b 35 f4 fe 00 00 	mov    0xfef4(%rip),%rsi        # 17e40 <__pyx_mstate_global_static+0x1e0>
    7f4c:	48 8b 3d 0d fd 00 00 	mov    0xfd0d(%rip),%rdi        # 17c60 <__pyx_mstate_global_static>
    7f53:	48 89 c2             	mov    %rax,%rdx
    7f56:	e8 55 c8 ff ff       	call   47b0 <PyDict_SetItem@plt>
    7f5b:	85 c0                	test   %eax,%eax
    7f5d:	0f 88 79 28 00 00    	js     a7dc <__pyx_pymod_exec_main+0x33b3>
    7f63:	48 8b 45 00          	mov    0x0(%rbp),%rax
    7f67:	85 c0                	test   %eax,%eax
    7f69:	78 11                	js     7f7c <__pyx_pymod_exec_main+0xb53>
    7f6b:	48 ff c8             	dec    %rax
    7f6e:	48 89 45 00          	mov    %rax,0x0(%rbp)
    7f72:	75 08                	jne    7f7c <__pyx_pymod_exec_main+0xb53>
    7f74:	48 89 ef             	mov    %rbp,%rdi
    7f77:	e8 d4 c6 ff ff       	call   4650 <_Py_Dealloc@plt>
    7f7c:	48 8b 3d 7d fe 00 00 	mov    0xfe7d(%rip),%rdi        # 17e00 <__pyx_mstate_global_static+0x1a0>
    7f83:	e8 78 ee ff ff       	call   6e00 <__Pyx_PyUnicode_AsDouble>
    7f88:	66 0f 2e 05 c0 b6 00 	ucomisd 0xb6c0(%rip),%xmm0        # 13650 <__pyx_k_1+0x2>
    7f8f:	00 
    7f90:	7a 02                	jp     7f94 <__pyx_pymod_exec_main+0xb6b>
    7f92:	74 13                	je     7fa7 <__pyx_pymod_exec_main+0xb7e>
    7f94:	e8 07 c3 ff ff       	call   42a0 <PyFloat_FromDouble@plt>
    7f99:	48 89 c5             	mov    %rax,%rbp
    7f9c:	48 85 c0             	test   %rax,%rax
    7f9f:	0f 84 50 28 00 00    	je     a7f5 <__pyx_pymod_exec_main+0x33cc>
    7fa5:	eb 2c                	jmp    7fd3 <__pyx_pymod_exec_main+0xbaa>
    7fa7:	f2 0f 11 44 24 08    	movsd  %xmm0,0x8(%rsp)
    7fad:	e8 3e c3 ff ff       	call   42f0 <PyErr_Occurred@plt>
    7fb2:	f2 0f 10 44 24 08    	movsd  0x8(%rsp),%xmm0
    7fb8:	48 85 c0             	test   %rax,%rax
    7fbb:	74 d7                	je     7f94 <__pyx_pymod_exec_main+0xb6b>
    7fbd:	41 bc 2c 15 00 00    	mov    $0x152c,%r12d
    7fc3:	41 bd 0c 00 00 00    	mov    $0xc,%r13d
    7fc9:	bd 01 00 00 00       	mov    $0x1,%ebp
    7fce:	e9 5a 2e 00 00       	jmp    ae2d <__pyx_pymod_exec_main+0x3a04>
    7fd3:	48 8b 35 be fe 00 00 	mov    0xfebe(%rip),%rsi        # 17e98 <__pyx_mstate_global_static+0x238>
    7fda:	48 8b 3d 7f fc 00 00 	mov    0xfc7f(%rip),%rdi        # 17c60 <__pyx_mstate_global_static>
    7fe1:	48 89 c2             	mov    %rax,%rdx
    7fe4:	e8 c7 c7 ff ff       	call   47b0 <PyDict_SetItem@plt>
    7fe9:	85 c0                	test   %eax,%eax
    7feb:	0f 88 1c 28 00 00    	js     a80d <__pyx_pymod_exec_main+0x33e4>
    7ff1:	48 8b 45 00          	mov    0x0(%rbp),%rax
    7ff5:	85 c0                	test   %eax,%eax
    7ff7:	78 11                	js     800a <__pyx_pymod_exec_main+0xbe1>
    7ff9:	48 ff c8             	dec    %rax
    7ffc:	48 89 45 00          	mov    %rax,0x0(%rbp)
    8000:	75 08                	jne    800a <__pyx_pymod_exec_main+0xbe1>
    8002:	48 89 ef             	mov    %rbp,%rdi
    8005:	e8 46 c6 ff ff       	call   4650 <_Py_Dealloc@plt>
    800a:	48 8b 3d ef fd 00 00 	mov    0xfdef(%rip),%rdi        # 17e00 <__pyx_mstate_global_static+0x1a0>
    8011:	e8 ea ed ff ff       	call   6e00 <__Pyx_PyUnicode_AsDouble>
    8016:	66 0f 2e 05 32 b6 00 	ucomisd 0xb632(%rip),%xmm0        # 13650 <__pyx_k_1+0x2>
    801d:	00 
    801e:	7a 02                	jp     8022 <__pyx_pymod_exec_main+0xbf9>
    8020:	74 13                	je     8035 <__pyx_pymod_exec_main+0xc0c>
    8022:	e8 79 c2 ff ff       	call   42a0 <PyFloat_FromDouble@plt>
    8027:	48 89 c5             	mov    %rax,%rbp
    802a:	48 85 c0             	test   %rax,%rax
    802d:	0f 84 f3 27 00 00    	je     a826 <__pyx_pymod_exec_main+0x33fd>
    8033:	eb 2c                	jmp    8061 <__pyx_pymod_exec_main+0xc38>
    8035:	f2 0f 11 44 24 08    	movsd  %xmm0,0x8(%rsp)
    803b:	e8 b0 c2 ff ff       	call   42f0 <PyErr_Occurred@plt>
    8040:	f2 0f 10 44 24 08    	movsd  0x8(%rsp),%xmm0
    8046:	48 85 c0             	test   %rax,%rax
    8049:	74 d7                	je     8022 <__pyx_pymod_exec_main+0xbf9>
    804b:	41 bc 39 15 00 00    	mov    $0x1539,%r12d
    8051:	41 bd 0d 00 00 00    	mov    $0xd,%r13d
    8057:	bd 01 00 00 00       	mov    $0x1,%ebp
    805c:	e9 cc 2d 00 00       	jmp    ae2d <__pyx_pymod_exec_main+0x3a04>
    8061:	48 8b 35 38 fe 00 00 	mov    0xfe38(%rip),%rsi        # 17ea0 <__pyx_mstate_global_static+0x240>
    8068:	48 8b 3d f1 fb 00 00 	mov    0xfbf1(%rip),%rdi        # 17c60 <__pyx_mstate_global_static>
    806f:	48 89 c2             	mov    %rax,%rdx
    8072:	e8 39 c7 ff ff       	call   47b0 <PyDict_SetItem@plt>
    8077:	85 c0                	test   %eax,%eax
    8079:	0f 88 bf 27 00 00    	js     a83e <__pyx_pymod_exec_main+0x3415>
    807f:	48 8b 45 00          	mov    0x0(%rbp),%rax
    8083:	85 c0                	test   %eax,%eax
    8085:	78 11                	js     8098 <__pyx_pymod_exec_main+0xc6f>
    8087:	48 ff c8             	dec    %rax
    808a:	48 89 45 00          	mov    %rax,0x0(%rbp)
    808e:	75 08                	jne    8098 <__pyx_pymod_exec_main+0xc6f>
    8090:	48 89 ef             	mov    %rbp,%rdi
    8093:	e8 b8 c5 ff ff       	call   4650 <_Py_Dealloc@plt>
    8098:	48 8b 3d 69 fd 00 00 	mov    0xfd69(%rip),%rdi        # 17e08 <__pyx_mstate_global_static+0x1a8>
    809f:	e8 5c ed ff ff       	call   6e00 <__Pyx_PyUnicode_AsDouble>
    80a4:	66 0f 2e 05 a4 b5 00 	ucomisd 0xb5a4(%rip),%xmm0        # 13650 <__pyx_k_1+0x2>
    80ab:	00 
    80ac:	7a 02                	jp     80b0 <__pyx_pymod_exec_main+0xc87>
    80ae:	74 13                	je     80c3 <__pyx_pymod_exec_main+0xc9a>
    80b0:	e8 eb c1 ff ff       	call   42a0 <PyFloat_FromDouble@plt>
    80b5:	48 89 c5             	mov    %rax,%rbp
    80b8:	48 85 c0             	test   %rax,%rax
    80bb:	0f 84 96 27 00 00    	je     a857 <__pyx_pymod_exec_main+0x342e>
    80c1:	eb 2c                	jmp    80ef <__pyx_pymod_exec_main+0xcc6>
    80c3:	f2 0f 11 44 24 08    	movsd  %xmm0,0x8(%rsp)
    80c9:	e8 22 c2 ff ff       	call   42f0 <PyErr_Occurred@plt>
    80ce:	f2 0f 10 44 24 08    	movsd  0x8(%rsp),%xmm0
    80d4:	48 85 c0             	test   %rax,%rax
    80d7:	74 d7                	je     80b0 <__pyx_pymod_exec_main+0xc87>
    80d9:	41 bc 46 15 00 00    	mov    $0x1546,%r12d
    80df:	41 bd 0e 00 00 00    	mov    $0xe,%r13d
    80e5:	bd 01 00 00 00       	mov    $0x1,%ebp
    80ea:	e9 3e 2d 00 00       	jmp    ae2d <__pyx_pymod_exec_main+0x3a04>
    80ef:	48 8b 35 92 fd 00 00 	mov    0xfd92(%rip),%rsi        # 17e88 <__pyx_mstate_global_static+0x228>
    80f6:	48 8b 3d 63 fb 00 00 	mov    0xfb63(%rip),%rdi        # 17c60 <__pyx_mstate_global_static>
    80fd:	48 89 c2             	mov    %rax,%rdx
    8100:	e8 ab c6 ff ff       	call   47b0 <PyDict_SetItem@plt>
    8105:	85 c0                	test   %eax,%eax
    8107:	0f 88 62 27 00 00    	js     a86f <__pyx_pymod_exec_main+0x3446>
    810d:	48 8b 45 00          	mov    0x0(%rbp),%rax
    8111:	85 c0                	test   %eax,%eax
    8113:	78 11                	js     8126 <__pyx_pymod_exec_main+0xcfd>
    8115:	48 ff c8             	dec    %rax
    8118:	48 89 45 00          	mov    %rax,0x0(%rbp)
    811c:	75 08                	jne    8126 <__pyx_pymod_exec_main+0xcfd>
    811e:	48 89 ef             	mov    %rbp,%rdi
    8121:	e8 2a c5 ff ff       	call   4650 <_Py_Dealloc@plt>
    8126:	48 8b 3d db fc 00 00 	mov    0xfcdb(%rip),%rdi        # 17e08 <__pyx_mstate_global_static+0x1a8>
    812d:	e8 ce ec ff ff       	call   6e00 <__Pyx_PyUnicode_AsDouble>
    8132:	66 0f 2e 05 16 b5 00 	ucomisd 0xb516(%rip),%xmm0        # 13650 <__pyx_k_1+0x2>
    8139:	00 
    813a:	7a 02                	jp     813e <__pyx_pymod_exec_main+0xd15>
    813c:	74 13                	je     8151 <__pyx_pymod_exec_main+0xd28>
    813e:	e8 5d c1 ff ff       	call   42a0 <PyFloat_FromDouble@plt>
    8143:	48 89 c5             	mov    %rax,%rbp
    8146:	48 85 c0             	test   %rax,%rax
    8149:	0f 84 39 27 00 00    	je     a888 <__pyx_pymod_exec_main+0x345f>
    814f:	eb 2c                	jmp    817d <__pyx_pymod_exec_main+0xd54>
    8151:	f2 0f 11 44 24 08    	movsd  %xmm0,0x8(%rsp)
    8157:	e8 94 c1 ff ff       	call   42f0 <PyErr_Occurred@plt>
    815c:	f2 0f 10 44 24 08    	movsd  0x8(%rsp),%xmm0
    8162:	48 85 c0             	test   %rax,%rax
    8165:	74 d7                	je     813e <__pyx_pymod_exec_main+0xd15>
    8167:	41 bc 53 15 00 00    	mov    $0x1553,%r12d
    816d:	41 bd 0f 00 00 00    	mov    $0xf,%r13d
    8173:	bd 01 00 00 00       	mov    $0x1,%ebp
    8178:	e9 b0 2c 00 00       	jmp    ae2d <__pyx_pymod_exec_main+0x3a04>
    817d:	48 8b 35 0c fd 00 00 	mov    0xfd0c(%rip),%rsi        # 17e90 <__pyx_mstate_global_static+0x230>
    8184:	48 8b 3d d5 fa 00 00 	mov    0xfad5(%rip),%rdi        # 17c60 <__pyx_mstate_global_static>
    818b:	48 89 c2             	mov    %rax,%rdx
    818e:	e8 1d c6 ff ff       	call   47b0 <PyDict_SetItem@plt>
    8193:	85 c0                	test   %eax,%eax
    8195:	0f 88 05 27 00 00    	js     a8a0 <__pyx_pymod_exec_main+0x3477>
    819b:	48 8b 45 00          	mov    0x0(%rbp),%rax
    819f:	85 c0                	test   %eax,%eax
    81a1:	78 11                	js     81b4 <__pyx_pymod_exec_main+0xd8b>
    81a3:	48 ff c8             	dec    %rax
    81a6:	48 89 45 00          	mov    %rax,0x0(%rbp)
    81aa:	75 08                	jne    81b4 <__pyx_pymod_exec_main+0xd8b>
    81ac:	48 89 ef             	mov    %rbp,%rdi
    81af:	e8 9c c4 ff ff       	call   4650 <_Py_Dealloc@plt>
    81b4:	48 8b 15 05 fe 00 00 	mov    0xfe05(%rip),%rdx        # 17fc0 <__pyx_mstate_global_static+0x360>
    81bb:	48 8b 35 ee fb 00 00 	mov    0xfbee(%rip),%rsi        # 17db0 <__pyx_mstate_global_static+0x150>
    81c2:	48 8b 3d 97 fa 00 00 	mov    0xfa97(%rip),%rdi        # 17c60 <__pyx_mstate_global_static>
    81c9:	e8 e2 c5 ff ff       	call   47b0 <PyDict_SetItem@plt>
    81ce:	85 c0                	test   %eax,%eax
    81d0:	0f 88 e3 26 00 00    	js     a8b9 <__pyx_pymod_exec_main+0x3490>
    81d6:	4c 8b 05 83 fe 00 00 	mov    0xfe83(%rip),%r8        # 18060 <__pyx_mstate_global_static+0x400>
    81dd:	48 8b 0d 7c fa 00 00 	mov    0xfa7c(%rip),%rcx        # 17c60 <__pyx_mstate_global_static>
    81e4:	48 8d 3d 95 e8 00 00 	lea    0xe895(%rip),%rdi        # 16a80 <__pyx_mdef_4main_1get_serial_ports>
    81eb:	48 8b 15 7e fc 00 00 	mov    0xfc7e(%rip),%rdx        # 17e70 <__pyx_mstate_global_static+0x210>
    81f2:	48 8b 35 e7 fb 00 00 	mov    0xfbe7(%rip),%rsi        # 17de0 <__pyx_mstate_global_static+0x180>
    81f9:	e8 f8 e7 ff ff       	call   69f6 <__Pyx_CyFunction_New.constprop.0>
    81fe:	48 89 c5             	mov    %rax,%rbp
    8201:	48 85 c0             	test   %rax,%rax
    8204:	0f 84 c5 26 00 00    	je     a8cf <__pyx_pymod_exec_main+0x34a6>
    820a:	48 8b 35 cf fb 00 00 	mov    0xfbcf(%rip),%rsi        # 17de0 <__pyx_mstate_global_static+0x180>
    8211:	48 8b 3d 48 fa 00 00 	mov    0xfa48(%rip),%rdi        # 17c60 <__pyx_mstate_global_static>
    8218:	48 89 c2             	mov    %rax,%rdx
    821b:	e8 90 c5 ff ff       	call   47b0 <PyDict_SetItem@plt>
    8220:	85 c0                	test   %eax,%eax
    8222:	0f 88 bf 26 00 00    	js     a8e7 <__pyx_pymod_exec_main+0x34be>
    8228:	48 8b 45 00          	mov    0x0(%rbp),%rax
    822c:	85 c0                	test   %eax,%eax
    822e:	78 11                	js     8241 <__pyx_pymod_exec_main+0xe18>
    8230:	48 ff c8             	dec    %rax
    8233:	48 89 45 00          	mov    %rax,0x0(%rbp)
    8237:	75 08                	jne    8241 <__pyx_pymod_exec_main+0xe18>
    8239:	48 89 ef             	mov    %rbp,%rdi
    823c:	e8 0f c4 ff ff       	call   4650 <_Py_Dealloc@plt>
    8241:	4c 8b 05 20 fe 00 00 	mov    0xfe20(%rip),%r8        # 18068 <__pyx_mstate_global_static+0x408>
    8248:	48 8b 0d 11 fa 00 00 	mov    0xfa11(%rip),%rcx        # 17c60 <__pyx_mstate_global_static>
    824f:	48 8d 3d 0a e8 00 00 	lea    0xe80a(%rip),%rdi        # 16a60 <__pyx_mdef_4main_3connect_serial>
    8256:	48 8b 15 13 fc 00 00 	mov    0xfc13(%rip),%rdx        # 17e70 <__pyx_mstate_global_static+0x210>
    825d:	48 8b 35 0c fb 00 00 	mov    0xfb0c(%rip),%rsi        # 17d70 <__pyx_mstate_global_static+0x110>
    8264:	e8 8d e7 ff ff       	call   69f6 <__Pyx_CyFunction_New.constprop.0>
    8269:	48 89 c5             	mov    %rax,%rbp
    826c:	48 85 c0             	test   %rax,%rax
    826f:	0f 84 8b 26 00 00    	je     a900 <__pyx_pymod_exec_main+0x34d7>
    8275:	48 8b 35 f4 fa 00 00 	mov    0xfaf4(%rip),%rsi        # 17d70 <__pyx_mstate_global_static+0x110>
    827c:	48 8b 3d dd f9 00 00 	mov    0xf9dd(%rip),%rdi        # 17c60 <__pyx_mstate_global_static>
    8283:	48 89 c2             	mov    %rax,%rdx
    8286:	e8 25 c5 ff ff       	call   47b0 <PyDict_SetItem@plt>
    828b:	85 c0                	test   %eax,%eax
    828d:	0f 88 85 26 00 00    	js     a918 <__pyx_pymod_exec_main+0x34ef>
    8293:	48 8b 45 00          	mov    0x0(%rbp),%rax
    8297:	85 c0                	test   %eax,%eax
    8299:	78 11                	js     82ac <__pyx_pymod_exec_main+0xe83>
    829b:	48 ff c8             	dec    %rax
    829e:	48 89 45 00          	mov    %rax,0x0(%rbp)
    82a2:	75 08                	jne    82ac <__pyx_pymod_exec_main+0xe83>
    82a4:	48 89 ef             	mov    %rbp,%rdi
    82a7:	e8 a4 c3 ff ff       	call   4650 <_Py_Dealloc@plt>
    82ac:	4c 8b 05 bd fd 00 00 	mov    0xfdbd(%rip),%r8        # 18070 <__pyx_mstate_global_static+0x410>
    82b3:	48 8b 0d a6 f9 00 00 	mov    0xf9a6(%rip),%rcx        # 17c60 <__pyx_mstate_global_static>
    82ba:	48 8d 3d 7f e7 00 00 	lea    0xe77f(%rip),%rdi        # 16a40 <__pyx_mdef_4main_5refresh_serial>
    82c1:	48 8b 15 a8 fb 00 00 	mov    0xfba8(%rip),%rdx        # 17e70 <__pyx_mstate_global_static+0x210>
    82c8:	48 8b 35 39 fc 00 00 	mov    0xfc39(%rip),%rsi        # 17f08 <__pyx_mstate_global_static+0x2a8>
    82cf:	e8 22 e7 ff ff       	call   69f6 <__Pyx_CyFunction_New.constprop.0>
    82d4:	48 89 c5             	mov    %rax,%rbp
    82d7:	48 85 c0             	test   %rax,%rax
    82da:	0f 84 51 26 00 00    	je     a931 <__pyx_pymod_exec_main+0x3508>
    82e0:	48 8b 35 21 fc 00 00 	mov    0xfc21(%rip),%rsi        # 17f08 <__pyx_mstate_global_static+0x2a8>
    82e7:	48 8b 3d 72 f9 00 00 	mov    0xf972(%rip),%rdi        # 17c60 <__pyx_mstate_global_static>
    82ee:	48 89 c2             	mov    %rax,%rdx
    82f1:	e8 ba c4 ff ff       	call   47b0 <PyDict_SetItem@plt>
    82f6:	85 c0                	test   %eax,%eax
    82f8:	0f 88 4b 26 00 00    	js     a949 <__pyx_pymod_exec_main+0x3520>
    82fe:	48 8b 45 00          	mov    0x0(%rbp),%rax
    8302:	85 c0                	test   %eax,%eax
    8304:	78 11                	js     8317 <__pyx_pymod_exec_main+0xeee>
    8306:	48 ff c8             	dec    %rax
    8309:	48 89 45 00          	mov    %rax,0x0(%rbp)
    830d:	75 08                	jne    8317 <__pyx_pymod_exec_main+0xeee>
    830f:	48 89 ef             	mov    %rbp,%rdi
    8312:	e8 39 c3 ff ff       	call   4650 <_Py_Dealloc@plt>
    8317:	4c 8b 05 5a fd 00 00 	mov    0xfd5a(%rip),%r8        # 18078 <__pyx_mstate_global_static+0x418>
    831e:	48 8b 0d 3b f9 00 00 	mov    0xf93b(%rip),%rcx        # 17c60 <__pyx_mstate_global_static>
    8325:	48 8d 3d f4 e6 00 00 	lea    0xe6f4(%rip),%rdi        # 16a20 <__pyx_mdef_4main_7readbuttonvalues>
    832c:	48 8b 15 3d fb 00 00 	mov    0xfb3d(%rip),%rdx        # 17e70 <__pyx_mstate_global_static+0x210>
    8333:	48 8b 35 b6 fb 00 00 	mov    0xfbb6(%rip),%rsi        # 17ef0 <__pyx_mstate_global_static+0x290>
    833a:	e8 b7 e6 ff ff       	call   69f6 <__Pyx_CyFunction_New.constprop.0>
    833f:	48 89 c5             	mov    %rax,%rbp
    8342:	48 85 c0             	test   %rax,%rax
    8345:	0f 84 17 26 00 00    	je     a962 <__pyx_pymod_exec_main+0x3539>
    834b:	48 8b 15 e6 fc 00 00 	mov    0xfce6(%rip),%rdx        # 18038 <__pyx_mstate_global_static+0x3d8>
    8352:	48 89 90 98 00 00 00 	mov    %rdx,0x98(%rax)
    8359:	8b 02                	mov    (%rdx),%eax
    835b:	ff c0                	inc    %eax
    835d:	74 02                	je     8361 <__pyx_pymod_exec_main+0xf38>
    835f:	89 02                	mov    %eax,(%rdx)
    8361:	48 8b 35 88 fb 00 00 	mov    0xfb88(%rip),%rsi        # 17ef0 <__pyx_mstate_global_static+0x290>
    8368:	48 8b 3d f1 f8 00 00 	mov    0xf8f1(%rip),%rdi        # 17c60 <__pyx_mstate_global_static>
    836f:	48 89 ea             	mov    %rbp,%rdx
    8372:	e8 39 c4 ff ff       	call   47b0 <PyDict_SetItem@plt>
    8377:	85 c0                	test   %eax,%eax
    8379:	0f 88 fb 25 00 00    	js     a97a <__pyx_pymod_exec_main+0x3551>
    837f:	48 8b 45 00          	mov    0x0(%rbp),%rax
    8383:	85 c0                	test   %eax,%eax
    8385:	78 11                	js     8398 <__pyx_pymod_exec_main+0xf6f>
    8387:	48 ff c8             	dec    %rax
    838a:	48 89 45 00          	mov    %rax,0x0(%rbp)
    838e:	75 08                	jne    8398 <__pyx_pymod_exec_main+0xf6f>
    8390:	48 89 ef             	mov    %rbp,%rdi
    8393:	e8 b8 c2 ff ff       	call   4650 <_Py_Dealloc@plt>
    8398:	4c 8b 05 e1 fc 00 00 	mov    0xfce1(%rip),%r8        # 18080 <__pyx_mstate_global_static+0x420>
    839f:	48 8b 0d ba f8 00 00 	mov    0xf8ba(%rip),%rcx        # 17c60 <__pyx_mstate_global_static>
    83a6:	48 8d 3d 53 e6 00 00 	lea    0xe653(%rip),%rdi        # 16a00 <__pyx_mdef_4main_9calibrate_btn_1>
    83ad:	48 8b 15 bc fa 00 00 	mov    0xfabc(%rip),%rdx        # 17e70 <__pyx_mstate_global_static+0x210>
    83b4:	48 8b 35 85 f9 00 00 	mov    0xf985(%rip),%rsi        # 17d40 <__pyx_mstate_global_static+0xe0>
    83bb:	e8 36 e6 ff ff       	call   69f6 <__Pyx_CyFunction_New.constprop.0>
    83c0:	48 89 c5             	mov    %rax,%rbp
    83c3:	48 85 c0             	test   %rax,%rax
    83c6:	0f 84 c7 25 00 00    	je     a993 <__pyx_pymod_exec_main+0x356a>
    83cc:	48 8b 35 6d f9 00 00 	mov    0xf96d(%rip),%rsi        # 17d40 <__pyx_mstate_global_static+0xe0>
    83d3:	48 8b 3d 86 f8 00 00 	mov    0xf886(%rip),%rdi        # 17c60 <__pyx_mstate_global_static>
    83da:	48 89 c2             	mov    %rax,%rdx
    83dd:	e8 ce c3 ff ff       	call   47b0 <PyDict_SetItem@plt>
    83e2:	85 c0                	test   %eax,%eax
    83e4:	0f 88 c1 25 00 00    	js     a9ab <__pyx_pymod_exec_main+0x3582>
    83ea:	48 8b 45 00          	mov    0x0(%rbp),%rax
    83ee:	85 c0                	test   %eax,%eax
    83f0:	78 11                	js     8403 <__pyx_pymod_exec_main+0xfda>
    83f2:	48 ff c8             	dec    %rax
    83f5:	48 89 45 00          	mov    %rax,0x0(%rbp)
    83f9:	75 08                	jne    8403 <__pyx_pymod_exec_main+0xfda>
    83fb:	48 89 ef             	mov    %rbp,%rdi
    83fe:	e8 4d c2 ff ff       	call   4650 <_Py_Dealloc@plt>
    8403:	48 8b 3d be f9 00 00 	mov    0xf9be(%rip),%rdi        # 17dc8 <__pyx_mstate_global_static+0x168>
    840a:	e8 75 4d 00 00       	call   d184 <__Pyx__GetModuleGlobalName>
    840f:	48 89 c5             	mov    %rax,%rbp
    8412:	48 85 c0             	test   %rax,%rax
    8415:	0f 84 a9 25 00 00    	je     a9c4 <__pyx_pymod_exec_main+0x359b>
    841b:	48 8b 35 5e f9 00 00 	mov    0xf95e(%rip),%rsi        # 17d80 <__pyx_mstate_global_static+0x120>
    8422:	48 89 c7             	mov    %rax,%rdi
    8425:	e8 52 31 00 00       	call   b57c <__Pyx_PyObject_GetAttrStr>
    842a:	48 89 44 24 28       	mov    %rax,0x28(%rsp)
    842f:	49 89 c4             	mov    %rax,%r12
    8432:	48 85 c0             	test   %rax,%rax
    8435:	0f 84 a1 25 00 00    	je     a9dc <__pyx_pymod_exec_main+0x35b3>
    843b:	48 8b 45 00          	mov    0x0(%rbp),%rax
    843f:	85 c0                	test   %eax,%eax
    8441:	78 11                	js     8454 <__pyx_pymod_exec_main+0x102b>
    8443:	48 ff c8             	dec    %rax
    8446:	48 89 45 00          	mov    %rax,0x0(%rbp)
    844a:	75 08                	jne    8454 <__pyx_pymod_exec_main+0x102b>
    844c:	48 89 ef             	mov    %rbp,%rdi
    844f:	e8 fc c1 ff ff       	call   4650 <_Py_Dealloc@plt>
    8454:	4c 89 e7             	mov    %r12,%rdi
    8457:	e8 57 e9 ff ff       	call   6db3 <__Pyx_PyObject_CallNoArg>
    845c:	48 89 c5             	mov    %rax,%rbp
    845f:	48 85 c0             	test   %rax,%rax
    8462:	0f 84 8d 25 00 00    	je     a9f5 <__pyx_pymod_exec_main+0x35cc>
    8468:	49 8b 04 24          	mov    (%r12),%rax
    846c:	85 c0                	test   %eax,%eax
    846e:	78 11                	js     8481 <__pyx_pymod_exec_main+0x1058>
    8470:	48 ff c8             	dec    %rax
    8473:	49 89 04 24          	mov    %rax,(%r12)
    8477:	75 08                	jne    8481 <__pyx_pymod_exec_main+0x1058>
    8479:	4c 89 e7             	mov    %r12,%rdi
    847c:	e8 cf c1 ff ff       	call   4650 <_Py_Dealloc@plt>
    8481:	48 8b 45 00          	mov    0x0(%rbp),%rax
    8485:	45 31 ed             	xor    %r13d,%r13d
    8488:	4c 89 6c 24 28       	mov    %r13,0x28(%rsp)
    848d:	85 c0                	test   %eax,%eax
    848f:	78 11                	js     84a2 <__pyx_pymod_exec_main+0x1079>
    8491:	48 ff c8             	dec    %rax
    8494:	48 89 45 00          	mov    %rax,0x0(%rbp)
    8498:	75 08                	jne    84a2 <__pyx_pymod_exec_main+0x1079>
    849a:	48 89 ef             	mov    %rbp,%rdi
    849d:	e8 ae c1 ff ff       	call   4650 <_Py_Dealloc@plt>
    84a2:	48 8b 3d 1f f9 00 00 	mov    0xf91f(%rip),%rdi        # 17dc8 <__pyx_mstate_global_static+0x168>
    84a9:	e8 d6 4c 00 00       	call   d184 <__Pyx__GetModuleGlobalName>
    84ae:	48 89 c5             	mov    %rax,%rbp
    84b1:	48 85 c0             	test   %rax,%rax
    84b4:	0f 84 53 25 00 00    	je     aa0d <__pyx_pymod_exec_main+0x35e4>
    84ba:	48 8b 35 c7 f8 00 00 	mov    0xf8c7(%rip),%rsi        # 17d88 <__pyx_mstate_global_static+0x128>
    84c1:	48 89 c7             	mov    %rax,%rdi
    84c4:	e8 b3 30 00 00       	call   b57c <__Pyx_PyObject_GetAttrStr>
    84c9:	48 89 44 24 28       	mov    %rax,0x28(%rsp)
    84ce:	49 89 c4             	mov    %rax,%r12
    84d1:	48 85 c0             	test   %rax,%rax
    84d4:	0f 84 4b 25 00 00    	je     aa25 <__pyx_pymod_exec_main+0x35fc>
    84da:	48 8b 45 00          	mov    0x0(%rbp),%rax
    84de:	85 c0                	test   %eax,%eax
    84e0:	78 11                	js     84f3 <__pyx_pymod_exec_main+0x10ca>
    84e2:	48 ff c8             	dec    %rax
    84e5:	48 89 45 00          	mov    %rax,0x0(%rbp)
    84e9:	75 08                	jne    84f3 <__pyx_pymod_exec_main+0x10ca>
    84eb:	48 89 ef             	mov    %rbp,%rdi
    84ee:	e8 5d c1 ff ff       	call   4650 <_Py_Dealloc@plt>
    84f3:	e8 d8 c2 ff ff       	call   47d0 <PyDict_New@plt>
    84f8:	48 89 c5             	mov    %rax,%rbp
    84fb:	48 85 c0             	test   %rax,%rax
    84fe:	0f 84 3a 25 00 00    	je     aa3e <__pyx_pymod_exec_main+0x3615>
    8504:	48 8b 15 bd f7 00 00 	mov    0xf7bd(%rip),%rdx        # 17cc8 <__pyx_mstate_global_static+0x68>
    850b:	48 8b 35 76 fa 00 00 	mov    0xfa76(%rip),%rsi        # 17f88 <__pyx_mstate_global_static+0x328>
    8512:	48 89 c7             	mov    %rax,%rdi
    8515:	e8 96 c2 ff ff       	call   47b0 <PyDict_SetItem@plt>
    851a:	85 c0                	test   %eax,%eax
    851c:	0f 88 34 25 00 00    	js     aa56 <__pyx_pymod_exec_main+0x362d>
    8522:	48 8b 15 bf fa 00 00 	mov    0xfabf(%rip),%rdx        # 17fe8 <__pyx_mstate_global_static+0x388>
    8529:	48 8b 35 70 fa 00 00 	mov    0xfa70(%rip),%rsi        # 17fa0 <__pyx_mstate_global_static+0x340>
    8530:	48 89 ef             	mov    %rbp,%rdi
    8533:	e8 78 c2 ff ff       	call   47b0 <PyDict_SetItem@plt>
    8538:	85 c0                	test   %eax,%eax
    853a:	0f 88 2f 25 00 00    	js     aa6f <__pyx_pymod_exec_main+0x3646>
    8540:	48 8b 15 a9 fa 00 00 	mov    0xfaa9(%rip),%rdx        # 17ff0 <__pyx_mstate_global_static+0x390>
    8547:	48 8b 35 a2 f8 00 00 	mov    0xf8a2(%rip),%rsi        # 17df0 <__pyx_mstate_global_static+0x190>
    854e:	48 89 ef             	mov    %rbp,%rdi
    8551:	e8 5a c2 ff ff       	call   47b0 <PyDict_SetItem@plt>
    8556:	85 c0                	test   %eax,%eax
    8558:	0f 88 2a 25 00 00    	js     aa88 <__pyx_pymod_exec_main+0x365f>
    855e:	48 8b 35 13 f7 00 00 	mov    0xf713(%rip),%rsi        # 17c78 <__pyx_mstate_global_static+0x18>
    8565:	48 89 ea             	mov    %rbp,%rdx
    8568:	4c 89 e7             	mov    %r12,%rdi
    856b:	e8 d8 2e 00 00       	call   b448 <__Pyx_PyObject_Call>
    8570:	48 89 44 24 30       	mov    %rax,0x30(%rsp)
    8575:	49 89 c5             	mov    %rax,%r13
    8578:	48 85 c0             	test   %rax,%rax
    857b:	0f 84 20 25 00 00    	je     aaa1 <__pyx_pymod_exec_main+0x3678>
    8581:	49 8b 04 24          	mov    (%r12),%rax
    8585:	85 c0                	test   %eax,%eax
    8587:	78 11                	js     859a <__pyx_pymod_exec_main+0x1171>
    8589:	48 ff c8             	dec    %rax
    858c:	49 89 04 24          	mov    %rax,(%r12)
    8590:	75 08                	jne    859a <__pyx_pymod_exec_main+0x1171>
    8592:	4c 89 e7             	mov    %r12,%rdi
    8595:	e8 b6 c0 ff ff       	call   4650 <_Py_Dealloc@plt>
    859a:	48 8b 45 00          	mov    0x0(%rbp),%rax
    859e:	45 31 e4             	xor    %r12d,%r12d
    85a1:	4c 89 64 24 28       	mov    %r12,0x28(%rsp)
    85a6:	85 c0                	test   %eax,%eax
    85a8:	78 11                	js     85bb <__pyx_pymod_exec_main+0x1192>
    85aa:	48 ff c8             	dec    %rax
    85ad:	48 89 45 00          	mov    %rax,0x0(%rbp)
    85b1:	75 08                	jne    85bb <__pyx_pymod_exec_main+0x1192>
    85b3:	48 89 ef             	mov    %rbp,%rdi
    85b6:	e8 95 c0 ff ff       	call   4650 <_Py_Dealloc@plt>
    85bb:	49 8b 45 00          	mov    0x0(%r13),%rax
    85bf:	85 c0                	test   %eax,%eax
    85c1:	78 11                	js     85d4 <__pyx_pymod_exec_main+0x11ab>
    85c3:	48 ff c8             	dec    %rax
    85c6:	49 89 45 00          	mov    %rax,0x0(%r13)
    85ca:	75 08                	jne    85d4 <__pyx_pymod_exec_main+0x11ab>
    85cc:	4c 89 ef             	mov    %r13,%rdi
    85cf:	e8 7c c0 ff ff       	call   4650 <_Py_Dealloc@plt>
    85d4:	48 8b 3d ed f7 00 00 	mov    0xf7ed(%rip),%rdi        # 17dc8 <__pyx_mstate_global_static+0x168>
    85db:	e8 a4 4b 00 00       	call   d184 <__Pyx__GetModuleGlobalName>
    85e0:	48 89 44 24 30       	mov    %rax,0x30(%rsp)
    85e5:	49 89 c4             	mov    %rax,%r12
    85e8:	48 85 c0             	test   %rax,%rax
    85eb:	0f 84 c9 24 00 00    	je     aaba <__pyx_pymod_exec_main+0x3691>
    85f1:	48 8b 35 58 f9 00 00 	mov    0xf958(%rip),%rsi        # 17f50 <__pyx_mstate_global_static+0x2f0>
    85f8:	48 89 c7             	mov    %rax,%rdi
    85fb:	e8 7c 2f 00 00       	call   b57c <__Pyx_PyObject_GetAttrStr>
    8600:	48 89 c5             	mov    %rax,%rbp
    8603:	48 85 c0             	test   %rax,%rax
    8606:	0f 84 c6 24 00 00    	je     aad2 <__pyx_pymod_exec_main+0x36a9>
    860c:	49 8b 04 24          	mov    (%r12),%rax
    8610:	85 c0                	test   %eax,%eax
    8612:	78 11                	js     8625 <__pyx_pymod_exec_main+0x11fc>
    8614:	48 ff c8             	dec    %rax
    8617:	49 89 04 24          	mov    %rax,(%r12)
    861b:	75 08                	jne    8625 <__pyx_pymod_exec_main+0x11fc>
    861d:	4c 89 e7             	mov    %r12,%rdi
    8620:	e8 2b c0 ff ff       	call   4650 <_Py_Dealloc@plt>
    8625:	48 89 ef             	mov    %rbp,%rdi
    8628:	e8 86 e7 ff ff       	call   6db3 <__Pyx_PyObject_CallNoArg>
    862d:	48 89 44 24 30       	mov    %rax,0x30(%rsp)
    8632:	49 89 c4             	mov    %rax,%r12
    8635:	48 85 c0             	test   %rax,%rax
    8638:	0f 84 ac 24 00 00    	je     aaea <__pyx_pymod_exec_main+0x36c1>
    863e:	48 8b 45 00          	mov    0x0(%rbp),%rax
    8642:	85 c0                	test   %eax,%eax
    8644:	78 11                	js     8657 <__pyx_pymod_exec_main+0x122e>
    8646:	48 ff c8             	dec    %rax
    8649:	48 89 45 00          	mov    %rax,0x0(%rbp)
    864d:	75 08                	jne    8657 <__pyx_pymod_exec_main+0x122e>
    864f:	48 89 ef             	mov    %rbp,%rdi
    8652:	e8 f9 bf ff ff       	call   4650 <_Py_Dealloc@plt>
    8657:	49 8b 04 24          	mov    (%r12),%rax
    865b:	85 c0                	test   %eax,%eax
    865d:	78 11                	js     8670 <__pyx_pymod_exec_main+0x1247>
    865f:	48 ff c8             	dec    %rax
    8662:	49 89 04 24          	mov    %rax,(%r12)
    8666:	75 08                	jne    8670 <__pyx_pymod_exec_main+0x1247>
    8668:	4c 89 e7             	mov    %r12,%rdi
    866b:	e8 e0 bf ff ff       	call   4650 <_Py_Dealloc@plt>
    8670:	48 8b 3d 51 f7 00 00 	mov    0xf751(%rip),%rdi        # 17dc8 <__pyx_mstate_global_static+0x168>
    8677:	e8 08 4b 00 00       	call   d184 <__Pyx__GetModuleGlobalName>
    867c:	48 89 44 24 30       	mov    %rax,0x30(%rsp)
    8681:	49 89 c4             	mov    %rax,%r12
    8684:	48 85 c0             	test   %rax,%rax
    8687:	0f 84 76 24 00 00    	je     ab03 <__pyx_pymod_exec_main+0x36da>
    868d:	48 8b 35 14 f9 00 00 	mov    0xf914(%rip),%rsi        # 17fa8 <__pyx_mstate_global_static+0x348>
    8694:	48 89 c7             	mov    %rax,%rdi
    8697:	e8 e0 2e 00 00       	call   b57c <__Pyx_PyObject_GetAttrStr>
    869c:	48 89 c5             	mov    %rax,%rbp
    869f:	48 85 c0             	test   %rax,%rax
    86a2:	0f 84 73 24 00 00    	je     ab1b <__pyx_pymod_exec_main+0x36f2>
    86a8:	49 8b 04 24          	mov    (%r12),%rax
    86ac:	85 c0                	test   %eax,%eax
    86ae:	78 11                	js     86c1 <__pyx_pymod_exec_main+0x1298>
    86b0:	48 ff c8             	dec    %rax
    86b3:	49 89 04 24          	mov    %rax,(%r12)
    86b7:	75 08                	jne    86c1 <__pyx_pymod_exec_main+0x1298>
    86b9:	4c 89 e7             	mov    %r12,%rdi
    86bc:	e8 8f bf ff ff       	call   4650 <_Py_Dealloc@plt>
    86c1:	e8 0a c1 ff ff       	call   47d0 <PyDict_New@plt>
    86c6:	48 89 44 24 30       	mov    %rax,0x30(%rsp)
    86cb:	49 89 c5             	mov    %rax,%r13
    86ce:	48 85 c0             	test   %rax,%rax
    86d1:	0f 84 5c 24 00 00    	je     ab33 <__pyx_pymod_exec_main+0x370a>
    86d7:	48 8b 15 a2 f7 00 00 	mov    0xf7a2(%rip),%rdx        # 17e80 <__pyx_mstate_global_static+0x220>
    86de:	48 8b 35 83 f8 00 00 	mov    0xf883(%rip),%rsi        # 17f68 <__pyx_mstate_global_static+0x308>
    86e5:	48 89 c7             	mov    %rax,%rdi
    86e8:	e8 c3 c0 ff ff       	call   47b0 <PyDict_SetItem@plt>
    86ed:	85 c0                	test   %eax,%eax
    86ef:	0f 88 57 24 00 00    	js     ab4c <__pyx_pymod_exec_main+0x3723>
    86f5:	48 8b 35 7c f5 00 00 	mov    0xf57c(%rip),%rsi        # 17c78 <__pyx_mstate_global_static+0x18>
    86fc:	4c 89 ea             	mov    %r13,%rdx
    86ff:	48 89 ef             	mov    %rbp,%rdi
    8702:	e8 41 2d 00 00       	call   b448 <__Pyx_PyObject_Call>
    8707:	48 89 44 24 28       	mov    %rax,0x28(%rsp)
    870c:	49 89 c4             	mov    %rax,%r12
    870f:	48 85 c0             	test   %rax,%rax
    8712:	0f 84 4d 24 00 00    	je     ab65 <__pyx_pymod_exec_main+0x373c>
    8718:	48 8b 45 00          	mov    0x0(%rbp),%rax
    871c:	85 c0                	test   %eax,%eax
    871e:	78 11                	js     8731 <__pyx_pymod_exec_main+0x1308>
    8720:	48 ff c8             	dec    %rax
    8723:	48 89 45 00          	mov    %rax,0x0(%rbp)
    8727:	75 08                	jne    8731 <__pyx_pymod_exec_main+0x1308>
    8729:	48 89 ef             	mov    %rbp,%rdi
    872c:	e8 1f bf ff ff       	call   4650 <_Py_Dealloc@plt>
    8731:	49 8b 45 00          	mov    0x0(%r13),%rax
    8735:	85 c0                	test   %eax,%eax
    8737:	78 11                	js     874a <__pyx_pymod_exec_main+0x1321>
    8739:	48 ff c8             	dec    %rax
    873c:	49 89 45 00          	mov    %rax,0x0(%r13)
    8740:	75 08                	jne    874a <__pyx_pymod_exec_main+0x1321>
    8742:	4c 89 ef             	mov    %r13,%rdi
    8745:	e8 06 bf ff ff       	call   4650 <_Py_Dealloc@plt>
    874a:	48 8b 35 87 f6 00 00 	mov    0xf687(%rip),%rsi        # 17dd8 <__pyx_mstate_global_static+0x178>
    8751:	45 31 db             	xor    %r11d,%r11d
    8754:	4c 89 e7             	mov    %r12,%rdi
    8757:	4c 89 5c 24 30       	mov    %r11,0x30(%rsp)
    875c:	e8 70 c3 ff ff       	call   4ad1 <__Pyx__PyObject_LookupSpecial.constprop.0>
    8761:	48 89 c5             	mov    %rax,%rbp
    8764:	48 85 c0             	test   %rax,%rax
    8767:	0f 84 11 24 00 00    	je     ab7e <__pyx_pymod_exec_main+0x3755>
    876d:	48 8b 35 5c f6 00 00 	mov    0xf65c(%rip),%rsi        # 17dd0 <__pyx_mstate_global_static+0x170>
    8774:	4c 89 e7             	mov    %r12,%rdi
    8777:	e8 55 c3 ff ff       	call   4ad1 <__Pyx__PyObject_LookupSpecial.constprop.0>
    877c:	48 89 44 24 30       	mov    %rax,0x30(%rsp)
    8781:	49 89 c5             	mov    %rax,%r13
    8784:	48 85 c0             	test   %rax,%rax
    8787:	0f 84 9a 12 00 00    	je     9a27 <__pyx_pymod_exec_main+0x25fe>
    878d:	48 89 c7             	mov    %rax,%rdi
    8790:	e8 1e e6 ff ff       	call   6db3 <__Pyx_PyObject_CallNoArg>
    8795:	49 89 c6             	mov    %rax,%r14
    8798:	48 85 c0             	test   %rax,%rax
    879b:	0f 84 8e 12 00 00    	je     9a2f <__pyx_pymod_exec_main+0x2606>
    87a1:	49 8b 45 00          	mov    0x0(%r13),%rax
    87a5:	85 c0                	test   %eax,%eax
    87a7:	78 11                	js     87ba <__pyx_pymod_exec_main+0x1391>
    87a9:	48 ff c8             	dec    %rax
    87ac:	49 89 45 00          	mov    %rax,0x0(%r13)
    87b0:	75 08                	jne    87ba <__pyx_pymod_exec_main+0x1391>
    87b2:	4c 89 ef             	mov    %r13,%rdi
    87b5:	e8 96 be ff ff       	call   4650 <_Py_Dealloc@plt>
    87ba:	49 8b 06             	mov    (%r14),%rax
    87bd:	45 31 d2             	xor    %r10d,%r10d
    87c0:	4c 89 54 24 30       	mov    %r10,0x30(%rsp)
    87c5:	85 c0                	test   %eax,%eax
    87c7:	78 10                	js     87d9 <__pyx_pymod_exec_main+0x13b0>
    87c9:	48 ff c8             	dec    %rax
    87cc:	49 89 06             	mov    %rax,(%r14)
    87cf:	75 08                	jne    87d9 <__pyx_pymod_exec_main+0x13b0>
    87d1:	4c 89 f7             	mov    %r14,%rdi
    87d4:	e8 77 be ff ff       	call   4650 <_Py_Dealloc@plt>
    87d9:	49 8b 04 24          	mov    (%r12),%rax
    87dd:	85 c0                	test   %eax,%eax
    87df:	78 11                	js     87f2 <__pyx_pymod_exec_main+0x13c9>
    87e1:	48 ff c8             	dec    %rax
    87e4:	49 89 04 24          	mov    %rax,(%r12)
    87e8:	75 08                	jne    87f2 <__pyx_pymod_exec_main+0x13c9>
    87ea:	4c 89 e7             	mov    %r12,%rdi
    87ed:	e8 5e be ff ff       	call   4650 <_Py_Dealloc@plt>
    87f2:	e8 39 bf ff ff       	call   4730 <_PyThreadState_UncheckedGet@plt>
    87f7:	48 8d 4c 24 48       	lea    0x48(%rsp),%rcx
    87fc:	48 8d 54 24 40       	lea    0x40(%rsp),%rdx
    8801:	48 8b 78 68          	mov    0x68(%rax),%rdi
    8805:	48 8d 74 24 38       	lea    0x38(%rsp),%rsi
    880a:	48 89 44 24 10       	mov    %rax,0x10(%rsp)
    880f:	e8 60 40 00 00       	call   c874 <__Pyx__ExceptionSave.constprop.0.isra.0>
    8814:	48 8b 35 2d f8 00 00 	mov    0xf82d(%rip),%rsi        # 18048 <__pyx_mstate_global_static+0x3e8>
    881b:	48 8b 3d 66 f8 00 00 	mov    0xf866(%rip),%rdi        # 18088 <__pyx_builtin_print>
    8822:	31 d2                	xor    %edx,%edx
    8824:	e8 1f 2c 00 00       	call   b448 <__Pyx_PyObject_Call>
    8829:	48 89 44 24 28       	mov    %rax,0x28(%rsp)
    882e:	49 89 c4             	mov    %rax,%r12
    8831:	48 85 c0             	test   %rax,%rax
    8834:	0f 84 92 0c 00 00    	je     94cc <__pyx_pymod_exec_main+0x20a3>
    883a:	48 8b 00             	mov    (%rax),%rax
    883d:	85 c0                	test   %eax,%eax
    883f:	78 11                	js     8852 <__pyx_pymod_exec_main+0x1429>
    8841:	48 ff c8             	dec    %rax
    8844:	49 89 04 24          	mov    %rax,(%r12)
    8848:	75 08                	jne    8852 <__pyx_pymod_exec_main+0x1429>
    884a:	4c 89 e7             	mov    %r12,%rdi
    884d:	e8 fe bd ff ff       	call   4650 <_Py_Dealloc@plt>
    8852:	48 8b 3d 87 f5 00 00 	mov    0xf587(%rip),%rdi        # 17de0 <__pyx_mstate_global_static+0x180>
    8859:	e8 26 49 00 00       	call   d184 <__Pyx__GetModuleGlobalName>
    885e:	48 89 44 24 28       	mov    %rax,0x28(%rsp)
    8863:	49 89 c5             	mov    %rax,%r13
    8866:	48 85 c0             	test   %rax,%rax
    8869:	0f 84 71 0c 00 00    	je     94e0 <__pyx_pymod_exec_main+0x20b7>
    886f:	48 89 c7             	mov    %rax,%rdi
    8872:	e8 3c e5 ff ff       	call   6db3 <__Pyx_PyObject_CallNoArg>
    8877:	49 89 c4             	mov    %rax,%r12
    887a:	48 85 c0             	test   %rax,%rax
    887d:	0f 84 68 0c 00 00    	je     94eb <__pyx_pymod_exec_main+0x20c2>
    8883:	49 8b 45 00          	mov    0x0(%r13),%rax
    8887:	85 c0                	test   %eax,%eax
    8889:	78 11                	js     889c <__pyx_pymod_exec_main+0x1473>
    888b:	48 ff c8             	dec    %rax
    888e:	49 89 45 00          	mov    %rax,0x0(%r13)
    8892:	75 08                	jne    889c <__pyx_pymod_exec_main+0x1473>
    8894:	4c 89 ef             	mov    %r13,%rdi
    8897:	e8 b4 bd ff ff       	call   4650 <_Py_Dealloc@plt>
    889c:	48 8b 35 8d f6 00 00 	mov    0xf68d(%rip),%rsi        # 17f30 <__pyx_mstate_global_static+0x2d0>
    88a3:	48 8b 3d b6 f3 00 00 	mov    0xf3b6(%rip),%rdi        # 17c60 <__pyx_mstate_global_static>
    88aa:	45 31 c9             	xor    %r9d,%r9d
    88ad:	4c 89 e2             	mov    %r12,%rdx
    88b0:	4c 89 4c 24 28       	mov    %r9,0x28(%rsp)
    88b5:	e8 f6 be ff ff       	call   47b0 <PyDict_SetItem@plt>
    88ba:	85 c0                	test   %eax,%eax
    88bc:	0f 88 3d 0c 00 00    	js     94ff <__pyx_pymod_exec_main+0x20d6>
    88c2:	49 8b 04 24          	mov    (%r12),%rax
    88c6:	85 c0                	test   %eax,%eax
    88c8:	78 11                	js     88db <__pyx_pymod_exec_main+0x14b2>
    88ca:	48 ff c8             	dec    %rax
    88cd:	49 89 04 24          	mov    %rax,(%r12)
    88d1:	75 08                	jne    88db <__pyx_pymod_exec_main+0x14b2>
    88d3:	4c 89 e7             	mov    %r12,%rdi
    88d6:	e8 75 bd ff ff       	call   4650 <_Py_Dealloc@plt>
    88db:	48 8b 3d 4e f6 00 00 	mov    0xf64e(%rip),%rdi        # 17f30 <__pyx_mstate_global_static+0x2d0>
    88e2:	e8 9d 48 00 00       	call   d184 <__Pyx__GetModuleGlobalName>
    88e7:	49 89 c4             	mov    %rax,%r12
    88ea:	48 85 c0             	test   %rax,%rax
    88ed:	0f 84 17 0c 00 00    	je     950a <__pyx_pymod_exec_main+0x20e1>
    88f3:	48 8b 3d 8e f7 00 00 	mov    0xf78e(%rip),%rdi        # 18088 <__pyx_builtin_print>
    88fa:	48 89 c6             	mov    %rax,%rsi
    88fd:	e8 52 4a 00 00       	call   d354 <__Pyx_PyObject_CallOneArg>
    8902:	48 89 44 24 28       	mov    %rax,0x28(%rsp)
    8907:	49 89 c5             	mov    %rax,%r13
    890a:	48 85 c0             	test   %rax,%rax
    890d:	0f 84 02 0c 00 00    	je     9515 <__pyx_pymod_exec_main+0x20ec>
    8913:	49 8b 04 24          	mov    (%r12),%rax
    8917:	85 c0                	test   %eax,%eax
    8919:	78 11                	js     892c <__pyx_pymod_exec_main+0x1503>
    891b:	48 ff c8             	dec    %rax
    891e:	49 89 04 24          	mov    %rax,(%r12)
    8922:	75 08                	jne    892c <__pyx_pymod_exec_main+0x1503>
    8924:	4c 89 e7             	mov    %r12,%rdi
    8927:	e8 24 bd ff ff       	call   4650 <_Py_Dealloc@plt>
    892c:	49 8b 45 00          	mov    0x0(%r13),%rax
    8930:	85 c0                	test   %eax,%eax
    8932:	78 11                	js     8945 <__pyx_pymod_exec_main+0x151c>
    8934:	48 ff c8             	dec    %rax
    8937:	49 89 45 00          	mov    %rax,0x0(%r13)
    893b:	75 08                	jne    8945 <__pyx_pymod_exec_main+0x151c>
    893d:	4c 89 ef             	mov    %r13,%rdi
    8940:	e8 0b bd ff ff       	call   4650 <_Py_Dealloc@plt>
    8945:	48 8b 3d 7c f4 00 00 	mov    0xf47c(%rip),%rdi        # 17dc8 <__pyx_mstate_global_static+0x168>
    894c:	e8 33 48 00 00       	call   d184 <__Pyx__GetModuleGlobalName>
    8951:	48 89 44 24 28       	mov    %rax,0x28(%rsp)
    8956:	49 89 c5             	mov    %rax,%r13
    8959:	48 85 c0             	test   %rax,%rax
    895c:	0f 84 c4 0b 00 00    	je     9526 <__pyx_pymod_exec_main+0x20fd>
    8962:	48 8b 35 8f f3 00 00 	mov    0xf38f(%rip),%rsi        # 17cf8 <__pyx_mstate_global_static+0x98>
    8969:	48 89 c7             	mov    %rax,%rdi
    896c:	e8 0b 2c 00 00       	call   b57c <__Pyx_PyObject_GetAttrStr>
    8971:	49 89 c4             	mov    %rax,%r12
    8974:	48 85 c0             	test   %rax,%rax
    8977:	0f 84 b7 0b 00 00    	je     9534 <__pyx_pymod_exec_main+0x210b>
    897d:	49 8b 45 00          	mov    0x0(%r13),%rax
    8981:	85 c0                	test   %eax,%eax
    8983:	78 11                	js     8996 <__pyx_pymod_exec_main+0x156d>
    8985:	48 ff c8             	dec    %rax
    8988:	49 89 45 00          	mov    %rax,0x0(%r13)
    898c:	75 08                	jne    8996 <__pyx_pymod_exec_main+0x156d>
    898e:	4c 89 ef             	mov    %r13,%rdi
    8991:	e8 ba bc ff ff       	call   4650 <_Py_Dealloc@plt>
    8996:	48 8b 3d 93 f5 00 00 	mov    0xf593(%rip),%rdi        # 17f30 <__pyx_mstate_global_static+0x2d0>
    899d:	e8 e2 47 00 00       	call   d184 <__Pyx__GetModuleGlobalName>
    89a2:	48 89 44 24 28       	mov    %rax,0x28(%rsp)
    89a7:	49 89 c5             	mov    %rax,%r13
    89aa:	48 85 c0             	test   %rax,%rax
    89ad:	0f 84 8f 0b 00 00    	je     9542 <__pyx_pymod_exec_main+0x2119>
    89b3:	bf 01 00 00 00       	mov    $0x1,%edi
    89b8:	e8 e3 bc ff ff       	call   46a0 <PyTuple_New@plt>
    89bd:	48 89 44 24 30       	mov    %rax,0x30(%rsp)
    89c2:	49 89 c7             	mov    %rax,%r15
    89c5:	48 85 c0             	test   %rax,%rax
    89c8:	0f 84 7f 0b 00 00    	je     954d <__pyx_pymod_exec_main+0x2124>
    89ce:	4c 89 ea             	mov    %r13,%rdx
    89d1:	31 f6                	xor    %esi,%esi
    89d3:	48 89 c7             	mov    %rax,%rdi
    89d6:	e8 e0 38 00 00       	call   c2bb <PyTuple_SET_ITEM>
    89db:	e8 f0 bd ff ff       	call   47d0 <PyDict_New@plt>
    89e0:	48 89 44 24 08       	mov    %rax,0x8(%rsp)
    89e5:	48 89 44 24 28       	mov    %rax,0x28(%rsp)
    89ea:	48 85 c0             	test   %rax,%rax
    89ed:	0f 84 68 0b 00 00    	je     955b <__pyx_pymod_exec_main+0x2132>
    89f3:	48 8b 3d 36 f5 00 00 	mov    0xf536(%rip),%rdi        # 17f30 <__pyx_mstate_global_static+0x2d0>
    89fa:	e8 85 47 00 00       	call   d184 <__Pyx__GetModuleGlobalName>
    89ff:	49 89 c5             	mov    %rax,%r13
    8a02:	48 85 c0             	test   %rax,%rax
    8a05:	0f 84 5e 0b 00 00    	je     9569 <__pyx_pymod_exec_main+0x2140>
    8a0b:	48 89 c7             	mov    %rax,%rdi
    8a0e:	e8 36 2b 00 00       	call   b549 <__Pyx_PyObject_IsTrue>
    8a13:	41 89 c6             	mov    %eax,%r14d
    8a16:	85 c0                	test   %eax,%eax
    8a18:	0f 88 56 0b 00 00    	js     9574 <__pyx_pymod_exec_main+0x214b>
    8a1e:	49 8b 55 00          	mov    0x0(%r13),%rdx
    8a22:	85 d2                	test   %edx,%edx
    8a24:	78 11                	js     8a37 <__pyx_pymod_exec_main+0x160e>
    8a26:	48 ff ca             	dec    %rdx
    8a29:	49 89 55 00          	mov    %rdx,0x0(%r13)
    8a2d:	75 08                	jne    8a37 <__pyx_pymod_exec_main+0x160e>
    8a2f:	4c 89 ef             	mov    %r13,%rdi
    8a32:	e8 19 bc ff ff       	call   4650 <_Py_Dealloc@plt>
    8a37:	45 85 f6             	test   %r14d,%r14d
    8a3a:	0f 84 89 01 00 00    	je     8bc9 <__pyx_pymod_exec_main+0x17a0>
    8a40:	48 8b 3d e9 f4 00 00 	mov    0xf4e9(%rip),%rdi        # 17f30 <__pyx_mstate_global_static+0x2d0>
    8a47:	e8 38 47 00 00       	call   d184 <__Pyx__GetModuleGlobalName>
    8a4c:	49 89 c5             	mov    %rax,%r13
    8a4f:	48 85 c0             	test   %rax,%rax
    8a52:	0f 84 27 0b 00 00    	je     957f <__pyx_pymod_exec_main+0x2156>
    8a58:	48 8b 50 08          	mov    0x8(%rax),%rdx
    8a5c:	48 8d 05 1d e2 00 00 	lea    0xe21d(%rip),%rax        # 16c80 <PyList_Type@@Base>
    8a63:	48 39 c2             	cmp    %rax,%rdx
    8a66:	75 49                	jne    8ab1 <__pyx_pymod_exec_main+0x1688>
    8a68:	4c 89 ef             	mov    %r13,%rdi
    8a6b:	48 89 54 24 18       	mov    %rdx,0x18(%rsp)
    8a70:	e8 d4 37 00 00       	call   c249 <PyList_GET_SIZE>
    8a75:	48 8b 54 24 18       	mov    0x18(%rsp),%rdx
    8a7a:	48 85 c0             	test   %rax,%rax
    8a7d:	0f 84 e3 00 00 00    	je     8b66 <__pyx_pymod_exec_main+0x173d>
    8a83:	f6 82 ab 00 00 00 02 	testb  $0x2,0xab(%rdx)
    8a8a:	75 1c                	jne    8aa8 <__pyx_pymod_exec_main+0x167f>
    8a8c:	48 8d 0d 8d a2 00 00 	lea    0xa28d(%rip),%rcx        # 12d20 <__PRETTY_FUNCTION__.4>
    8a93:	ba d0 24 00 00       	mov    $0x24d0,%edx
    8a98:	48 8d 35 c5 95 00 00 	lea    0x95c5(%rip),%rsi        # 12064 <_IO_stdin_used+0x64>
    8a9f:	48 8d 3d b6 a0 00 00 	lea    0xa0b6(%rip),%rdi        # 12b5c <_IO_stdin_used+0xb5c>
    8aa6:	eb 53                	jmp    8afb <__pyx_pymod_exec_main+0x16d2>
    8aa8:	49 8b 45 18          	mov    0x18(%r13),%rax
    8aac:	4c 8b 30             	mov    (%rax),%r14
    8aaf:	eb 53                	jmp    8b04 <__pyx_pymod_exec_main+0x16db>
    8ab1:	48 8d 05 68 ea 00 00 	lea    0xea68(%rip),%rax        # 17520 <PyTuple_Type@@Base>
    8ab8:	48 39 c2             	cmp    %rax,%rdx
    8abb:	75 5a                	jne    8b17 <__pyx_pymod_exec_main+0x16ee>
    8abd:	4c 89 ef             	mov    %r13,%rdi
    8ac0:	48 89 54 24 18       	mov    %rdx,0x18(%rsp)
    8ac5:	e8 07 32 00 00       	call   bcd1 <PyTuple_GET_SIZE>
    8aca:	48 8b 54 24 18       	mov    0x18(%rsp),%rdx
    8acf:	48 85 c0             	test   %rax,%rax
    8ad2:	0f 84 8e 00 00 00    	je     8b66 <__pyx_pymod_exec_main+0x173d>
    8ad8:	f6 82 ab 00 00 00 04 	testb  $0x4,0xab(%rdx)
    8adf:	75 1f                	jne    8b00 <__pyx_pymod_exec_main+0x16d7>
    8ae1:	48 8d 0d 38 a2 00 00 	lea    0xa238(%rip),%rcx        # 12d20 <__PRETTY_FUNCTION__.4>
    8ae8:	ba d8 24 00 00       	mov    $0x24d8,%edx
    8aed:	48 8d 35 70 95 00 00 	lea    0x9570(%rip),%rsi        # 12064 <_IO_stdin_used+0x64>
    8af4:	48 8d 3d 71 a0 00 00 	lea    0xa071(%rip),%rdi        # 12b6c <_IO_stdin_used+0xb6c>
    8afb:	e8 20 b6 ff ff       	call   4120 <__assert_fail@plt>
    8b00:	4d 8b 75 18          	mov    0x18(%r13),%r14
    8b04:	41 8b 06             	mov    (%r14),%eax
    8b07:	ff c0                	inc    %eax
    8b09:	0f 84 9f 00 00 00    	je     8bae <__pyx_pymod_exec_main+0x1785>
    8b0f:	41 89 06             	mov    %eax,(%r14)
    8b12:	e9 97 00 00 00       	jmp    8bae <__pyx_pymod_exec_main+0x1785>
    8b17:	4c 8b 72 70          	mov    0x70(%rdx),%r14
    8b1b:	48 8b 42 68          	mov    0x68(%rdx),%rax
    8b1f:	4d 85 f6             	test   %r14,%r14
    8b22:	74 28                	je     8b4c <__pyx_pymod_exec_main+0x1723>
    8b24:	49 83 7e 08 00       	cmpq   $0x0,0x8(%r14)
    8b29:	74 21                	je     8b4c <__pyx_pymod_exec_main+0x1723>
    8b2b:	31 ff                	xor    %edi,%edi
    8b2d:	e8 be bb ff ff       	call   46f0 <PyLong_FromSsize_t@plt>
    8b32:	48 89 c6             	mov    %rax,%rsi
    8b35:	48 85 c0             	test   %rax,%rax
    8b38:	0f 84 9a 23 00 00    	je     aed8 <__pyx_pymod_exec_main+0x3aaf>
    8b3e:	48 89 44 24 18       	mov    %rax,0x18(%rsp)
    8b43:	4c 89 ef             	mov    %r13,%rdi
    8b46:	41 ff 56 08          	call   *0x8(%r14)
    8b4a:	eb 3a                	jmp    8b86 <__pyx_pymod_exec_main+0x175d>
    8b4c:	48 85 c0             	test   %rax,%rax
    8b4f:	74 15                	je     8b66 <__pyx_pymod_exec_main+0x173d>
    8b51:	48 8b 40 18          	mov    0x18(%rax),%rax
    8b55:	48 85 c0             	test   %rax,%rax
    8b58:	74 0c                	je     8b66 <__pyx_pymod_exec_main+0x173d>
    8b5a:	31 f6                	xor    %esi,%esi
    8b5c:	4c 89 ef             	mov    %r13,%rdi
    8b5f:	ff d0                	call   *%rax
    8b61:	49 89 c6             	mov    %rax,%r14
    8b64:	eb 3f                	jmp    8ba5 <__pyx_pymod_exec_main+0x177c>
    8b66:	31 ff                	xor    %edi,%edi
    8b68:	e8 83 bb ff ff       	call   46f0 <PyLong_FromSsize_t@plt>
    8b6d:	48 89 c6             	mov    %rax,%rsi
    8b70:	48 85 c0             	test   %rax,%rax
    8b73:	0f 84 5f 23 00 00    	je     aed8 <__pyx_pymod_exec_main+0x3aaf>
    8b79:	4c 89 ef             	mov    %r13,%rdi
    8b7c:	48 89 44 24 18       	mov    %rax,0x18(%rsp)
    8b81:	e8 aa b6 ff ff       	call   4230 <PyObject_GetItem@plt>
    8b86:	48 8b 74 24 18       	mov    0x18(%rsp),%rsi
    8b8b:	49 89 c6             	mov    %rax,%r14
    8b8e:	48 8b 06             	mov    (%rsi),%rax
    8b91:	85 c0                	test   %eax,%eax
    8b93:	78 10                	js     8ba5 <__pyx_pymod_exec_main+0x177c>
    8b95:	48 ff c8             	dec    %rax
    8b98:	48 89 06             	mov    %rax,(%rsi)
    8b9b:	75 08                	jne    8ba5 <__pyx_pymod_exec_main+0x177c>
    8b9d:	48 89 f7             	mov    %rsi,%rdi
    8ba0:	e8 ab ba ff ff       	call   4650 <_Py_Dealloc@plt>
    8ba5:	4d 85 f6             	test   %r14,%r14
    8ba8:	0f 84 2a 23 00 00    	je     aed8 <__pyx_pymod_exec_main+0x3aaf>
    8bae:	49 8b 45 00          	mov    0x0(%r13),%rax
    8bb2:	85 c0                	test   %eax,%eax
    8bb4:	78 24                	js     8bda <__pyx_pymod_exec_main+0x17b1>
    8bb6:	48 ff c8             	dec    %rax
    8bb9:	49 89 45 00          	mov    %rax,0x0(%r13)
    8bbd:	75 1b                	jne    8bda <__pyx_pymod_exec_main+0x17b1>
    8bbf:	4c 89 ef             	mov    %r13,%rdi
    8bc2:	e8 89 ba ff ff       	call   4650 <_Py_Dealloc@plt>
    8bc7:	eb 11                	jmp    8bda <__pyx_pymod_exec_main+0x17b1>
    8bc9:	4c 8b 35 08 f1 00 00 	mov    0xf108(%rip),%r14        # 17cd8 <__pyx_mstate_global_static+0x78>
    8bd0:	41 8b 06             	mov    (%r14),%eax
    8bd3:	ff c0                	inc    %eax
    8bd5:	74 03                	je     8bda <__pyx_pymod_exec_main+0x17b1>
    8bd7:	41 89 06             	mov    %eax,(%r14)
    8bda:	48 8b 35 c7 f1 00 00 	mov    0xf1c7(%rip),%rsi        # 17da8 <__pyx_mstate_global_static+0x148>
    8be1:	48 8b 7c 24 08       	mov    0x8(%rsp),%rdi
    8be6:	4c 89 f2             	mov    %r14,%rdx
    8be9:	4c 89 74 24 50       	mov    %r14,0x50(%rsp)
    8bee:	e8 bd bb ff ff       	call   47b0 <PyDict_SetItem@plt>
    8bf3:	85 c0                	test   %eax,%eax
    8bf5:	0f 88 8f 09 00 00    	js     958a <__pyx_pymod_exec_main+0x2161>
    8bfb:	49 8b 06             	mov    (%r14),%rax
    8bfe:	85 c0                	test   %eax,%eax
    8c00:	78 10                	js     8c12 <__pyx_pymod_exec_main+0x17e9>
    8c02:	48 ff c8             	dec    %rax
    8c05:	49 89 06             	mov    %rax,(%r14)
    8c08:	75 08                	jne    8c12 <__pyx_pymod_exec_main+0x17e9>
    8c0a:	4c 89 f7             	mov    %r14,%rdi
    8c0d:	e8 3e ba ff ff       	call   4650 <_Py_Dealloc@plt>
    8c12:	48 8b 15 0f f3 00 00 	mov    0xf30f(%rip),%rdx        # 17f28 <__pyx_mstate_global_static+0x2c8>
    8c19:	48 8b 35 48 f3 00 00 	mov    0xf348(%rip),%rsi        # 17f68 <__pyx_mstate_global_static+0x308>
    8c20:	45 31 c0             	xor    %r8d,%r8d
    8c23:	48 8b 7c 24 08       	mov    0x8(%rsp),%rdi
    8c28:	4c 89 44 24 50       	mov    %r8,0x50(%rsp)
    8c2d:	e8 7e bb ff ff       	call   47b0 <PyDict_SetItem@plt>
    8c32:	85 c0                	test   %eax,%eax
    8c34:	0f 88 5e 09 00 00    	js     9598 <__pyx_pymod_exec_main+0x216f>
    8c3a:	48 8b 54 24 08       	mov    0x8(%rsp),%rdx
    8c3f:	4c 89 fe             	mov    %r15,%rsi
    8c42:	4c 89 e7             	mov    %r12,%rdi
    8c45:	e8 fe 27 00 00       	call   b448 <__Pyx_PyObject_Call>
    8c4a:	48 89 44 24 50       	mov    %rax,0x50(%rsp)
    8c4f:	49 89 c5             	mov    %rax,%r13
    8c52:	48 85 c0             	test   %rax,%rax
    8c55:	0f 84 4b 09 00 00    	je     95a6 <__pyx_pymod_exec_main+0x217d>
    8c5b:	49 8b 04 24          	mov    (%r12),%rax
    8c5f:	85 c0                	test   %eax,%eax
    8c61:	78 11                	js     8c74 <__pyx_pymod_exec_main+0x184b>
    8c63:	48 ff c8             	dec    %rax
    8c66:	49 89 04 24          	mov    %rax,(%r12)
    8c6a:	75 08                	jne    8c74 <__pyx_pymod_exec_main+0x184b>
    8c6c:	4c 89 e7             	mov    %r12,%rdi
    8c6f:	e8 dc b9 ff ff       	call   4650 <_Py_Dealloc@plt>
    8c74:	49 8b 07             	mov    (%r15),%rax
    8c77:	85 c0                	test   %eax,%eax
    8c79:	78 10                	js     8c8b <__pyx_pymod_exec_main+0x1862>
    8c7b:	48 ff c8             	dec    %rax
    8c7e:	49 89 07             	mov    %rax,(%r15)
    8c81:	75 08                	jne    8c8b <__pyx_pymod_exec_main+0x1862>
    8c83:	4c 89 ff             	mov    %r15,%rdi
    8c86:	e8 c5 b9 ff ff       	call   4650 <_Py_Dealloc@plt>
    8c8b:	48 8b 44 24 08       	mov    0x8(%rsp),%rax
    8c90:	31 ff                	xor    %edi,%edi
    8c92:	48 89 7c 24 30       	mov    %rdi,0x30(%rsp)
    8c97:	48 8b 00             	mov    (%rax),%rax
    8c9a:	85 c0                	test   %eax,%eax
    8c9c:	78 15                	js     8cb3 <__pyx_pymod_exec_main+0x188a>
    8c9e:	48 8b 4c 24 08       	mov    0x8(%rsp),%rcx
    8ca3:	48 ff c8             	dec    %rax
    8ca6:	48 89 01             	mov    %rax,(%rcx)
    8ca9:	75 08                	jne    8cb3 <__pyx_pymod_exec_main+0x188a>
    8cab:	48 89 cf             	mov    %rcx,%rdi
    8cae:	e8 9d b9 ff ff       	call   4650 <_Py_Dealloc@plt>
    8cb3:	49 8b 45 00          	mov    0x0(%r13),%rax
    8cb7:	31 f6                	xor    %esi,%esi
    8cb9:	48 89 74 24 28       	mov    %rsi,0x28(%rsp)
    8cbe:	85 c0                	test   %eax,%eax
    8cc0:	78 11                	js     8cd3 <__pyx_pymod_exec_main+0x18aa>
    8cc2:	48 ff c8             	dec    %rax
    8cc5:	49 89 45 00          	mov    %rax,0x0(%r13)
    8cc9:	75 08                	jne    8cd3 <__pyx_pymod_exec_main+0x18aa>
    8ccb:	4c 89 ef             	mov    %r13,%rdi
    8cce:	e8 7d b9 ff ff       	call   4650 <_Py_Dealloc@plt>
    8cd3:	48 8b 3d ee f0 00 00 	mov    0xf0ee(%rip),%rdi        # 17dc8 <__pyx_mstate_global_static+0x168>
    8cda:	e8 a5 44 00 00       	call   d184 <__Pyx__GetModuleGlobalName>
    8cdf:	48 89 44 24 50       	mov    %rax,0x50(%rsp)
    8ce4:	49 89 c4             	mov    %rax,%r12
    8ce7:	48 85 c0             	test   %rax,%rax
    8cea:	0f 84 c1 08 00 00    	je     95b1 <__pyx_pymod_exec_main+0x2188>
    8cf0:	48 8b 35 f9 ef 00 00 	mov    0xeff9(%rip),%rsi        # 17cf0 <__pyx_mstate_global_static+0x90>
    8cf7:	48 89 c7             	mov    %rax,%rdi
    8cfa:	e8 7d 28 00 00       	call   b57c <__Pyx_PyObject_GetAttrStr>
    8cff:	48 89 44 24 28       	mov    %rax,0x28(%rsp)
    8d04:	49 89 c6             	mov    %rax,%r14
    8d07:	48 85 c0             	test   %rax,%rax
    8d0a:	0f 84 ac 08 00 00    	je     95bc <__pyx_pymod_exec_main+0x2193>
    8d10:	49 8b 04 24          	mov    (%r12),%rax
    8d14:	85 c0                	test   %eax,%eax
    8d16:	78 11                	js     8d29 <__pyx_pymod_exec_main+0x1900>
    8d18:	48 ff c8             	dec    %rax
    8d1b:	49 89 04 24          	mov    %rax,(%r12)
    8d1f:	75 08                	jne    8d29 <__pyx_pymod_exec_main+0x1900>
    8d21:	4c 89 e7             	mov    %r12,%rdi
    8d24:	e8 27 b9 ff ff       	call   4650 <_Py_Dealloc@plt>
    8d29:	e8 a2 ba ff ff       	call   47d0 <PyDict_New@plt>
    8d2e:	48 89 44 24 50       	mov    %rax,0x50(%rsp)
    8d33:	49 89 c5             	mov    %rax,%r13
    8d36:	48 85 c0             	test   %rax,%rax
    8d39:	0f 84 8b 08 00 00    	je     95ca <__pyx_pymod_exec_main+0x21a1>
    8d3f:	48 8b 3d 2a f0 00 00 	mov    0xf02a(%rip),%rdi        # 17d70 <__pyx_mstate_global_static+0x110>
    8d46:	e8 39 44 00 00       	call   d184 <__Pyx__GetModuleGlobalName>
    8d4b:	48 89 44 24 30       	mov    %rax,0x30(%rsp)
    8d50:	49 89 c4             	mov    %rax,%r12
    8d53:	48 85 c0             	test   %rax,%rax
    8d56:	0f 84 79 08 00 00    	je     95d5 <__pyx_pymod_exec_main+0x21ac>
    8d5c:	48 8b 35 e5 ef 00 00 	mov    0xefe5(%rip),%rsi        # 17d48 <__pyx_mstate_global_static+0xe8>
    8d63:	48 89 c2             	mov    %rax,%rdx
    8d66:	4c 89 ef             	mov    %r13,%rdi
    8d69:	e8 42 ba ff ff       	call   47b0 <PyDict_SetItem@plt>
    8d6e:	85 c0                	test   %eax,%eax
    8d70:	0f 88 6a 08 00 00    	js     95e0 <__pyx_pymod_exec_main+0x21b7>
    8d76:	49 8b 04 24          	mov    (%r12),%rax
    8d7a:	85 c0                	test   %eax,%eax
    8d7c:	78 11                	js     8d8f <__pyx_pymod_exec_main+0x1966>
    8d7e:	48 ff c8             	dec    %rax
    8d81:	49 89 04 24          	mov    %rax,(%r12)
    8d85:	75 08                	jne    8d8f <__pyx_pymod_exec_main+0x1966>
    8d87:	4c 89 e7             	mov    %r12,%rdi
    8d8a:	e8 c1 b8 ff ff       	call   4650 <_Py_Dealloc@plt>
    8d8f:	48 8b 15 d2 ef 00 00 	mov    0xefd2(%rip),%rdx        # 17d68 <__pyx_mstate_global_static+0x108>
    8d96:	48 8b 35 ab f0 00 00 	mov    0xf0ab(%rip),%rsi        # 17e48 <__pyx_mstate_global_static+0x1e8>
    8d9d:	31 c9                	xor    %ecx,%ecx
    8d9f:	4c 89 ef             	mov    %r13,%rdi
    8da2:	48 89 4c 24 30       	mov    %rcx,0x30(%rsp)
    8da7:	e8 04 ba ff ff       	call   47b0 <PyDict_SetItem@plt>
    8dac:	85 c0                	test   %eax,%eax
    8dae:	0f 88 3a 08 00 00    	js     95ee <__pyx_pymod_exec_main+0x21c5>
    8db4:	48 8b 35 bd ee 00 00 	mov    0xeebd(%rip),%rsi        # 17c78 <__pyx_mstate_global_static+0x18>
    8dbb:	4c 89 ea             	mov    %r13,%rdx
    8dbe:	4c 89 f7             	mov    %r14,%rdi
    8dc1:	e8 82 26 00 00       	call   b448 <__Pyx_PyObject_Call>
    8dc6:	48 89 44 24 30       	mov    %rax,0x30(%rsp)
    8dcb:	49 89 c4             	mov    %rax,%r12
    8dce:	48 85 c0             	test   %rax,%rax
    8dd1:	0f 84 25 08 00 00    	je     95fc <__pyx_pymod_exec_main+0x21d3>
    8dd7:	49 8b 06             	mov    (%r14),%rax
    8dda:	85 c0                	test   %eax,%eax
    8ddc:	78 10                	js     8dee <__pyx_pymod_exec_main+0x19c5>
    8dde:	48 ff c8             	dec    %rax
    8de1:	49 89 06             	mov    %rax,(%r14)
    8de4:	75 08                	jne    8dee <__pyx_pymod_exec_main+0x19c5>
    8de6:	4c 89 f7             	mov    %r14,%rdi
    8de9:	e8 62 b8 ff ff       	call   4650 <_Py_Dealloc@plt>
    8dee:	49 8b 45 00          	mov    0x0(%r13),%rax
    8df2:	31 d2                	xor    %edx,%edx
    8df4:	48 89 54 24 28       	mov    %rdx,0x28(%rsp)
    8df9:	85 c0                	test   %eax,%eax
    8dfb:	78 11                	js     8e0e <__pyx_pymod_exec_main+0x19e5>
    8dfd:	48 ff c8             	dec    %rax
    8e00:	49 89 45 00          	mov    %rax,0x0(%r13)
    8e04:	75 08                	jne    8e0e <__pyx_pymod_exec_main+0x19e5>
    8e06:	4c 89 ef             	mov    %r13,%rdi
    8e09:	e8 42 b8 ff ff       	call   4650 <_Py_Dealloc@plt>
    8e0e:	31 c0                	xor    %eax,%eax
    8e10:	48 89 44 24 50       	mov    %rax,0x50(%rsp)
    8e15:	49 8b 04 24          	mov    (%r12),%rax
    8e19:	85 c0                	test   %eax,%eax
    8e1b:	78 11                	js     8e2e <__pyx_pymod_exec_main+0x1a05>
    8e1d:	48 ff c8             	dec    %rax
    8e20:	49 89 04 24          	mov    %rax,(%r12)
    8e24:	75 08                	jne    8e2e <__pyx_pymod_exec_main+0x1a05>
    8e26:	4c 89 e7             	mov    %r12,%rdi
    8e29:	e8 22 b8 ff ff       	call   4650 <_Py_Dealloc@plt>
    8e2e:	48 8b 3d 93 ef 00 00 	mov    0xef93(%rip),%rdi        # 17dc8 <__pyx_mstate_global_static+0x168>
    8e35:	e8 4a 43 00 00       	call   d184 <__Pyx__GetModuleGlobalName>
    8e3a:	48 89 44 24 30       	mov    %rax,0x30(%rsp)
    8e3f:	49 89 c4             	mov    %rax,%r12
    8e42:	48 85 c0             	test   %rax,%rax
    8e45:	0f 84 c5 07 00 00    	je     9610 <__pyx_pymod_exec_main+0x21e7>
    8e4b:	48 8b 35 9e ee 00 00 	mov    0xee9e(%rip),%rsi        # 17cf0 <__pyx_mstate_global_static+0x90>
    8e52:	48 89 c7             	mov    %rax,%rdi
    8e55:	e8 22 27 00 00       	call   b57c <__Pyx_PyObject_GetAttrStr>
    8e5a:	48 89 44 24 50       	mov    %rax,0x50(%rsp)
    8e5f:	49 89 c6             	mov    %rax,%r14
    8e62:	48 85 c0             	test   %rax,%rax
    8e65:	0f 84 b0 07 00 00    	je     961b <__pyx_pymod_exec_main+0x21f2>
    8e6b:	49 8b 04 24          	mov    (%r12),%rax
    8e6f:	85 c0                	test   %eax,%eax
    8e71:	78 11                	js     8e84 <__pyx_pymod_exec_main+0x1a5b>
    8e73:	48 ff c8             	dec    %rax
    8e76:	49 89 04 24          	mov    %rax,(%r12)
    8e7a:	75 08                	jne    8e84 <__pyx_pymod_exec_main+0x1a5b>
    8e7c:	4c 89 e7             	mov    %r12,%rdi
    8e7f:	e8 cc b7 ff ff       	call   4650 <_Py_Dealloc@plt>
    8e84:	e8 47 b9 ff ff       	call   47d0 <PyDict_New@plt>
    8e89:	48 89 44 24 30       	mov    %rax,0x30(%rsp)
    8e8e:	49 89 c5             	mov    %rax,%r13
    8e91:	48 85 c0             	test   %rax,%rax
    8e94:	0f 84 8f 07 00 00    	je     9629 <__pyx_pymod_exec_main+0x2200>
    8e9a:	48 8b 3d 67 f0 00 00 	mov    0xf067(%rip),%rdi        # 17f08 <__pyx_mstate_global_static+0x2a8>
    8ea1:	e8 de 42 00 00       	call   d184 <__Pyx__GetModuleGlobalName>
    8ea6:	48 89 44 24 28       	mov    %rax,0x28(%rsp)
    8eab:	49 89 c4             	mov    %rax,%r12
    8eae:	48 85 c0             	test   %rax,%rax
    8eb1:	0f 84 7d 07 00 00    	je     9634 <__pyx_pymod_exec_main+0x220b>
    8eb7:	48 8b 35 8a ee 00 00 	mov    0xee8a(%rip),%rsi        # 17d48 <__pyx_mstate_global_static+0xe8>
    8ebe:	48 89 c2             	mov    %rax,%rdx
    8ec1:	4c 89 ef             	mov    %r13,%rdi
    8ec4:	e8 e7 b8 ff ff       	call   47b0 <PyDict_SetItem@plt>
    8ec9:	85 c0                	test   %eax,%eax
    8ecb:	0f 88 6e 07 00 00    	js     963f <__pyx_pymod_exec_main+0x2216>
    8ed1:	49 8b 04 24          	mov    (%r12),%rax
    8ed5:	85 c0                	test   %eax,%eax
    8ed7:	78 11                	js     8eea <__pyx_pymod_exec_main+0x1ac1>
    8ed9:	48 ff c8             	dec    %rax
    8edc:	49 89 04 24          	mov    %rax,(%r12)
    8ee0:	75 08                	jne    8eea <__pyx_pymod_exec_main+0x1ac1>
    8ee2:	4c 89 e7             	mov    %r12,%rdi
    8ee5:	e8 66 b7 ff ff       	call   4650 <_Py_Dealloc@plt>
    8eea:	48 8b 15 0f f0 00 00 	mov    0xf00f(%rip),%rdx        # 17f00 <__pyx_mstate_global_static+0x2a0>
    8ef1:	48 8b 35 50 ef 00 00 	mov    0xef50(%rip),%rsi        # 17e48 <__pyx_mstate_global_static+0x1e8>
    8ef8:	31 c0                	xor    %eax,%eax
    8efa:	4c 89 ef             	mov    %r13,%rdi
    8efd:	48 89 44 24 28       	mov    %rax,0x28(%rsp)
    8f02:	e8 a9 b8 ff ff       	call   47b0 <PyDict_SetItem@plt>
    8f07:	85 c0                	test   %eax,%eax
    8f09:	0f 88 3e 07 00 00    	js     964d <__pyx_pymod_exec_main+0x2224>
    8f0f:	48 8b 35 62 ed 00 00 	mov    0xed62(%rip),%rsi        # 17c78 <__pyx_mstate_global_static+0x18>
    8f16:	4c 89 ea             	mov    %r13,%rdx
    8f19:	4c 89 f7             	mov    %r14,%rdi
    8f1c:	e8 27 25 00 00       	call   b448 <__Pyx_PyObject_Call>
    8f21:	48 89 44 24 28       	mov    %rax,0x28(%rsp)
    8f26:	49 89 c4             	mov    %rax,%r12
    8f29:	48 85 c0             	test   %rax,%rax
    8f2c:	0f 84 29 07 00 00    	je     965b <__pyx_pymod_exec_main+0x2232>
    8f32:	49 8b 06             	mov    (%r14),%rax
    8f35:	85 c0                	test   %eax,%eax
    8f37:	78 10                	js     8f49 <__pyx_pymod_exec_main+0x1b20>
    8f39:	48 ff c8             	dec    %rax
    8f3c:	49 89 06             	mov    %rax,(%r14)
    8f3f:	75 08                	jne    8f49 <__pyx_pymod_exec_main+0x1b20>
    8f41:	4c 89 f7             	mov    %r14,%rdi
    8f44:	e8 07 b7 ff ff       	call   4650 <_Py_Dealloc@plt>
    8f49:	31 c0                	xor    %eax,%eax
    8f4b:	48 89 44 24 50       	mov    %rax,0x50(%rsp)
    8f50:	49 8b 45 00          	mov    0x0(%r13),%rax
    8f54:	85 c0                	test   %eax,%eax
    8f56:	78 11                	js     8f69 <__pyx_pymod_exec_main+0x1b40>
    8f58:	48 ff c8             	dec    %rax
    8f5b:	49 89 45 00          	mov    %rax,0x0(%r13)
    8f5f:	75 08                	jne    8f69 <__pyx_pymod_exec_main+0x1b40>
    8f61:	4c 89 ef             	mov    %r13,%rdi
    8f64:	e8 e7 b6 ff ff       	call   4650 <_Py_Dealloc@plt>
    8f69:	31 c0                	xor    %eax,%eax
    8f6b:	48 89 44 24 30       	mov    %rax,0x30(%rsp)
    8f70:	49 8b 04 24          	mov    (%r12),%rax
    8f74:	85 c0                	test   %eax,%eax
    8f76:	78 11                	js     8f89 <__pyx_pymod_exec_main+0x1b60>
    8f78:	48 ff c8             	dec    %rax
    8f7b:	49 89 04 24          	mov    %rax,(%r12)
    8f7f:	75 08                	jne    8f89 <__pyx_pymod_exec_main+0x1b60>
    8f81:	4c 89 e7             	mov    %r12,%rdi
    8f84:	e8 c7 b6 ff ff       	call   4650 <_Py_Dealloc@plt>
    8f89:	48 8b 3d 38 ee 00 00 	mov    0xee38(%rip),%rdi        # 17dc8 <__pyx_mstate_global_static+0x168>
    8f90:	e8 ef 41 00 00       	call   d184 <__Pyx__GetModuleGlobalName>
    8f95:	48 89 44 24 28       	mov    %rax,0x28(%rsp)
    8f9a:	49 89 c4             	mov    %rax,%r12
    8f9d:	48 85 c0             	test   %rax,%rax
    8fa0:	0f 84 c9 06 00 00    	je     966f <__pyx_pymod_exec_main+0x2246>
    8fa6:	48 8b 35 53 ed 00 00 	mov    0xed53(%rip),%rsi        # 17d00 <__pyx_mstate_global_static+0xa0>
    8fad:	48 89 c7             	mov    %rax,%rdi
    8fb0:	e8 c7 25 00 00       	call   b57c <__Pyx_PyObject_GetAttrStr>
    8fb5:	48 89 44 24 30       	mov    %rax,0x30(%rsp)
    8fba:	49 89 c6             	mov    %rax,%r14
    8fbd:	48 85 c0             	test   %rax,%rax
    8fc0:	0f 84 b4 06 00 00    	je     967a <__pyx_pymod_exec_main+0x2251>
    8fc6:	49 8b 04 24          	mov    (%r12),%rax
    8fca:	85 c0                	test   %eax,%eax
    8fcc:	78 11                	js     8fdf <__pyx_pymod_exec_main+0x1bb6>
    8fce:	48 ff c8             	dec    %rax
    8fd1:	49 89 04 24          	mov    %rax,(%r12)
    8fd5:	75 08                	jne    8fdf <__pyx_pymod_exec_main+0x1bb6>
    8fd7:	4c 89 e7             	mov    %r12,%rdi
    8fda:	e8 71 b6 ff ff       	call   4650 <_Py_Dealloc@plt>
    8fdf:	e8 ec b7 ff ff       	call   47d0 <PyDict_New@plt>
    8fe4:	48 89 44 24 28       	mov    %rax,0x28(%rsp)
    8fe9:	49 89 c4             	mov    %rax,%r12
    8fec:	48 85 c0             	test   %rax,%rax
    8fef:	0f 84 93 06 00 00    	je     9688 <__pyx_pymod_exec_main+0x225f>
    8ff5:	48 8b 15 9c ec 00 00 	mov    0xec9c(%rip),%rdx        # 17c98 <__pyx_mstate_global_static+0x38>
    8ffc:	48 8b 35 45 ee 00 00 	mov    0xee45(%rip),%rsi        # 17e48 <__pyx_mstate_global_static+0x1e8>
    9003:	48 89 c7             	mov    %rax,%rdi
    9006:	e8 a5 b7 ff ff       	call   47b0 <PyDict_SetItem@plt>
    900b:	85 c0                	test   %eax,%eax
    900d:	0f 88 80 06 00 00    	js     9693 <__pyx_pymod_exec_main+0x226a>
    9013:	48 8b 15 b6 ef 00 00 	mov    0xefb6(%rip),%rdx        # 17fd0 <__pyx_mstate_global_static+0x370>
    901a:	48 8b 35 87 ed 00 00 	mov    0xed87(%rip),%rsi        # 17da8 <__pyx_mstate_global_static+0x148>
    9021:	4c 89 e7             	mov    %r12,%rdi
    9024:	e8 87 b7 ff ff       	call   47b0 <PyDict_SetItem@plt>
    9029:	85 c0                	test   %eax,%eax
    902b:	0f 88 70 06 00 00    	js     96a1 <__pyx_pymod_exec_main+0x2278>
    9031:	48 8b 15 98 ee 00 00 	mov    0xee98(%rip),%rdx        # 17ed0 <__pyx_mstate_global_static+0x270>
    9038:	48 8b 35 29 ef 00 00 	mov    0xef29(%rip),%rsi        # 17f68 <__pyx_mstate_global_static+0x308>
    903f:	4c 89 e7             	mov    %r12,%rdi
    9042:	e8 69 b7 ff ff       	call   47b0 <PyDict_SetItem@plt>
    9047:	85 c0                	test   %eax,%eax
    9049:	0f 88 60 06 00 00    	js     96af <__pyx_pymod_exec_main+0x2286>
    904f:	48 8b 35 22 ec 00 00 	mov    0xec22(%rip),%rsi        # 17c78 <__pyx_mstate_global_static+0x18>
    9056:	4c 89 e2             	mov    %r12,%rdx
    9059:	4c 89 f7             	mov    %r14,%rdi
    905c:	e8 e7 23 00 00       	call   b448 <__Pyx_PyObject_Call>
    9061:	48 89 44 24 50       	mov    %rax,0x50(%rsp)
    9066:	49 89 c5             	mov    %rax,%r13
    9069:	48 85 c0             	test   %rax,%rax
    906c:	0f 84 4b 06 00 00    	je     96bd <__pyx_pymod_exec_main+0x2294>
    9072:	49 8b 06             	mov    (%r14),%rax
    9075:	85 c0                	test   %eax,%eax
    9077:	78 10                	js     9089 <__pyx_pymod_exec_main+0x1c60>
    9079:	48 ff c8             	dec    %rax
    907c:	49 89 06             	mov    %rax,(%r14)
    907f:	75 08                	jne    9089 <__pyx_pymod_exec_main+0x1c60>
    9081:	4c 89 f7             	mov    %r14,%rdi
    9084:	e8 c7 b5 ff ff       	call   4650 <_Py_Dealloc@plt>
    9089:	31 c0                	xor    %eax,%eax
    908b:	48 89 44 24 30       	mov    %rax,0x30(%rsp)
    9090:	49 8b 04 24          	mov    (%r12),%rax
    9094:	85 c0                	test   %eax,%eax
    9096:	78 11                	js     90a9 <__pyx_pymod_exec_main+0x1c80>
    9098:	48 ff c8             	dec    %rax
    909b:	49 89 04 24          	mov    %rax,(%r12)
    909f:	75 08                	jne    90a9 <__pyx_pymod_exec_main+0x1c80>
    90a1:	4c 89 e7             	mov    %r12,%rdi
    90a4:	e8 a7 b5 ff ff       	call   4650 <_Py_Dealloc@plt>
    90a9:	49 8b 45 00          	mov    0x0(%r13),%rax
    90ad:	45 31 ff             	xor    %r15d,%r15d
    90b0:	4c 89 7c 24 28       	mov    %r15,0x28(%rsp)
    90b5:	85 c0                	test   %eax,%eax
    90b7:	78 11                	js     90ca <__pyx_pymod_exec_main+0x1ca1>
    90b9:	48 ff c8             	dec    %rax
    90bc:	49 89 45 00          	mov    %rax,0x0(%r13)
    90c0:	75 08                	jne    90ca <__pyx_pymod_exec_main+0x1ca1>
    90c2:	4c 89 ef             	mov    %r13,%rdi
    90c5:	e8 86 b5 ff ff       	call   4650 <_Py_Dealloc@plt>
    90ca:	48 8b 3d f7 ec 00 00 	mov    0xecf7(%rip),%rdi        # 17dc8 <__pyx_mstate_global_static+0x168>
    90d1:	e8 ae 40 00 00       	call   d184 <__Pyx__GetModuleGlobalName>
    90d6:	48 89 44 24 50       	mov    %rax,0x50(%rsp)
    90db:	49 89 c4             	mov    %rax,%r12
    90de:	48 85 c0             	test   %rax,%rax
    90e1:	0f 84 ea 05 00 00    	je     96d1 <__pyx_pymod_exec_main+0x22a8>
    90e7:	48 8b 35 12 ec 00 00 	mov    0xec12(%rip),%rsi        # 17d00 <__pyx_mstate_global_static+0xa0>
    90ee:	48 89 c7             	mov    %rax,%rdi
    90f1:	e8 86 24 00 00       	call   b57c <__Pyx_PyObject_GetAttrStr>
    90f6:	48 89 44 24 28       	mov    %rax,0x28(%rsp)
    90fb:	49 89 c6             	mov    %rax,%r14
    90fe:	48 85 c0             	test   %rax,%rax
    9101:	0f 84 d5 05 00 00    	je     96dc <__pyx_pymod_exec_main+0x22b3>
    9107:	49 8b 04 24          	mov    (%r12),%rax
    910b:	85 c0                	test   %eax,%eax
    910d:	78 11                	js     9120 <__pyx_pymod_exec_main+0x1cf7>
    910f:	48 ff c8             	dec    %rax
    9112:	49 89 04 24          	mov    %rax,(%r12)
    9116:	75 08                	jne    9120 <__pyx_pymod_exec_main+0x1cf7>
    9118:	4c 89 e7             	mov    %r12,%rdi
    911b:	e8 30 b5 ff ff       	call   4650 <_Py_Dealloc@plt>
    9120:	e8 ab b6 ff ff       	call   47d0 <PyDict_New@plt>
    9125:	48 89 44 24 50       	mov    %rax,0x50(%rsp)
    912a:	49 89 c4             	mov    %rax,%r12
    912d:	48 85 c0             	test   %rax,%rax
    9130:	0f 84 b4 05 00 00    	je     96ea <__pyx_pymod_exec_main+0x22c1>
    9136:	48 8b 15 63 eb 00 00 	mov    0xeb63(%rip),%rdx        # 17ca0 <__pyx_mstate_global_static+0x40>
    913d:	48 8b 35 04 ed 00 00 	mov    0xed04(%rip),%rsi        # 17e48 <__pyx_mstate_global_static+0x1e8>
    9144:	48 89 c7             	mov    %rax,%rdi
    9147:	e8 64 b6 ff ff       	call   47b0 <PyDict_SetItem@plt>
    914c:	85 c0                	test   %eax,%eax
    914e:	0f 88 a1 05 00 00    	js     96f5 <__pyx_pymod_exec_main+0x22cc>
    9154:	48 8b 15 75 ee 00 00 	mov    0xee75(%rip),%rdx        # 17fd0 <__pyx_mstate_global_static+0x370>
    915b:	48 8b 35 46 ec 00 00 	mov    0xec46(%rip),%rsi        # 17da8 <__pyx_mstate_global_static+0x148>
    9162:	4c 89 e7             	mov    %r12,%rdi
    9165:	e8 46 b6 ff ff       	call   47b0 <PyDict_SetItem@plt>
    916a:	85 c0                	test   %eax,%eax
    916c:	0f 88 91 05 00 00    	js     9703 <__pyx_pymod_exec_main+0x22da>
    9172:	48 8b 15 5f ed 00 00 	mov    0xed5f(%rip),%rdx        # 17ed8 <__pyx_mstate_global_static+0x278>
    9179:	48 8b 35 e8 ed 00 00 	mov    0xede8(%rip),%rsi        # 17f68 <__pyx_mstate_global_static+0x308>
    9180:	4c 89 e7             	mov    %r12,%rdi
    9183:	e8 28 b6 ff ff       	call   47b0 <PyDict_SetItem@plt>
    9188:	85 c0                	test   %eax,%eax
    918a:	0f 88 81 05 00 00    	js     9711 <__pyx_pymod_exec_main+0x22e8>
    9190:	48 8b 35 e1 ea 00 00 	mov    0xeae1(%rip),%rsi        # 17c78 <__pyx_mstate_global_static+0x18>
    9197:	4c 89 e2             	mov    %r12,%rdx
    919a:	4c 89 f7             	mov    %r14,%rdi
    919d:	e8 a6 22 00 00       	call   b448 <__Pyx_PyObject_Call>
    91a2:	48 89 44 24 30       	mov    %rax,0x30(%rsp)
    91a7:	49 89 c5             	mov    %rax,%r13
    91aa:	48 85 c0             	test   %rax,%rax
    91ad:	0f 84 6c 05 00 00    	je     971f <__pyx_pymod_exec_main+0x22f6>
    91b3:	49 8b 06             	mov    (%r14),%rax
    91b6:	85 c0                	test   %eax,%eax
    91b8:	78 10                	js     91ca <__pyx_pymod_exec_main+0x1da1>
    91ba:	48 ff c8             	dec    %rax
    91bd:	49 89 06             	mov    %rax,(%r14)
    91c0:	75 08                	jne    91ca <__pyx_pymod_exec_main+0x1da1>
    91c2:	4c 89 f7             	mov    %r14,%rdi
    91c5:	e8 86 b4 ff ff       	call   4650 <_Py_Dealloc@plt>
    91ca:	49 8b 04 24          	mov    (%r12),%rax
    91ce:	45 31 f6             	xor    %r14d,%r14d
    91d1:	4c 89 74 24 28       	mov    %r14,0x28(%rsp)
    91d6:	85 c0                	test   %eax,%eax
    91d8:	78 11                	js     91eb <__pyx_pymod_exec_main+0x1dc2>
    91da:	48 ff c8             	dec    %rax
    91dd:	49 89 04 24          	mov    %rax,(%r12)
    91e1:	75 08                	jne    91eb <__pyx_pymod_exec_main+0x1dc2>
    91e3:	4c 89 e7             	mov    %r12,%rdi
    91e6:	e8 65 b4 ff ff       	call   4650 <_Py_Dealloc@plt>
    91eb:	49 8b 45 00          	mov    0x0(%r13),%rax
    91ef:	45 31 e4             	xor    %r12d,%r12d
    91f2:	4c 89 64 24 50       	mov    %r12,0x50(%rsp)
    91f7:	85 c0                	test   %eax,%eax
    91f9:	78 11                	js     920c <__pyx_pymod_exec_main+0x1de3>
    91fb:	48 ff c8             	dec    %rax
    91fe:	49 89 45 00          	mov    %rax,0x0(%r13)
    9202:	75 08                	jne    920c <__pyx_pymod_exec_main+0x1de3>
    9204:	4c 89 ef             	mov    %r13,%rdi
    9207:	e8 44 b4 ff ff       	call   4650 <_Py_Dealloc@plt>
    920c:	48 8b 3d b5 eb 00 00 	mov    0xebb5(%rip),%rdi        # 17dc8 <__pyx_mstate_global_static+0x168>
    9213:	e8 6c 3f 00 00       	call   d184 <__Pyx__GetModuleGlobalName>
    9218:	48 89 44 24 30       	mov    %rax,0x30(%rsp)
    921d:	49 89 c4             	mov    %rax,%r12
    9220:	48 85 c0             	test   %rax,%rax
    9223:	0f 84 0a 05 00 00    	je     9733 <__pyx_pymod_exec_main+0x230a>
    9229:	48 8b 35 c0 ea 00 00 	mov    0xeac0(%rip),%rsi        # 17cf0 <__pyx_mstate_global_static+0x90>
    9230:	48 89 c7             	mov    %rax,%rdi
    9233:	e8 44 23 00 00       	call   b57c <__Pyx_PyObject_GetAttrStr>
    9238:	48 89 44 24 50       	mov    %rax,0x50(%rsp)
    923d:	49 89 c6             	mov    %rax,%r14
    9240:	48 85 c0             	test   %rax,%rax
    9243:	0f 84 f5 04 00 00    	je     973e <__pyx_pymod_exec_main+0x2315>
    9249:	49 8b 04 24          	mov    (%r12),%rax
    924d:	85 c0                	test   %eax,%eax
    924f:	78 11                	js     9262 <__pyx_pymod_exec_main+0x1e39>
    9251:	48 ff c8             	dec    %rax
    9254:	49 89 04 24          	mov    %rax,(%r12)
    9258:	75 08                	jne    9262 <__pyx_pymod_exec_main+0x1e39>
    925a:	4c 89 e7             	mov    %r12,%rdi
    925d:	e8 ee b3 ff ff       	call   4650 <_Py_Dealloc@plt>
    9262:	e8 69 b5 ff ff       	call   47d0 <PyDict_New@plt>
    9267:	48 89 44 24 30       	mov    %rax,0x30(%rsp)
    926c:	49 89 c5             	mov    %rax,%r13
    926f:	48 85 c0             	test   %rax,%rax
    9272:	0f 84 d4 04 00 00    	je     974c <__pyx_pymod_exec_main+0x2323>
    9278:	48 8b 3d c1 ea 00 00 	mov    0xeac1(%rip),%rdi        # 17d40 <__pyx_mstate_global_static+0xe0>
    927f:	e8 00 3f 00 00       	call   d184 <__Pyx__GetModuleGlobalName>
    9284:	48 89 44 24 28       	mov    %rax,0x28(%rsp)
    9289:	49 89 c4             	mov    %rax,%r12
    928c:	48 85 c0             	test   %rax,%rax
    928f:	0f 84 c2 04 00 00    	je     9757 <__pyx_pymod_exec_main+0x232e>
    9295:	48 8b 35 ac ea 00 00 	mov    0xeaac(%rip),%rsi        # 17d48 <__pyx_mstate_global_static+0xe8>
    929c:	48 89 c2             	mov    %rax,%rdx
    929f:	4c 89 ef             	mov    %r13,%rdi
    92a2:	e8 09 b5 ff ff       	call   47b0 <PyDict_SetItem@plt>
    92a7:	85 c0                	test   %eax,%eax
    92a9:	0f 88 b3 04 00 00    	js     9762 <__pyx_pymod_exec_main+0x2339>
    92af:	49 8b 04 24          	mov    (%r12),%rax
    92b3:	85 c0                	test   %eax,%eax
    92b5:	78 11                	js     92c8 <__pyx_pymod_exec_main+0x1e9f>
    92b7:	48 ff c8             	dec    %rax
    92ba:	49 89 04 24          	mov    %rax,(%r12)
    92be:	75 08                	jne    92c8 <__pyx_pymod_exec_main+0x1e9f>
    92c0:	4c 89 e7             	mov    %r12,%rdi
    92c3:	e8 88 b3 ff ff       	call   4650 <_Py_Dealloc@plt>
    92c8:	48 8b 15 69 ea 00 00 	mov    0xea69(%rip),%rdx        # 17d38 <__pyx_mstate_global_static+0xd8>
    92cf:	48 8b 35 72 eb 00 00 	mov    0xeb72(%rip),%rsi        # 17e48 <__pyx_mstate_global_static+0x1e8>
    92d6:	45 31 db             	xor    %r11d,%r11d
    92d9:	4c 89 ef             	mov    %r13,%rdi
    92dc:	4c 89 5c 24 28       	mov    %r11,0x28(%rsp)
    92e1:	e8 ca b4 ff ff       	call   47b0 <PyDict_SetItem@plt>
    92e6:	85 c0                	test   %eax,%eax
    92e8:	0f 88 82 04 00 00    	js     9770 <__pyx_pymod_exec_main+0x2347>
    92ee:	48 8b 35 83 e9 00 00 	mov    0xe983(%rip),%rsi        # 17c78 <__pyx_mstate_global_static+0x18>
    92f5:	4c 89 ea             	mov    %r13,%rdx
    92f8:	4c 89 f7             	mov    %r14,%rdi
    92fb:	e8 48 21 00 00       	call   b448 <__Pyx_PyObject_Call>
    9300:	48 89 44 24 28       	mov    %rax,0x28(%rsp)
    9305:	49 89 c4             	mov    %rax,%r12
    9308:	48 85 c0             	test   %rax,%rax
    930b:	0f 84 6d 04 00 00    	je     977e <__pyx_pymod_exec_main+0x2355>
    9311:	49 8b 06             	mov    (%r14),%rax
    9314:	85 c0                	test   %eax,%eax
    9316:	78 10                	js     9328 <__pyx_pymod_exec_main+0x1eff>
    9318:	48 ff c8             	dec    %rax
    931b:	49 89 06             	mov    %rax,(%r14)
    931e:	75 08                	jne    9328 <__pyx_pymod_exec_main+0x1eff>
    9320:	4c 89 f7             	mov    %r14,%rdi
    9323:	e8 28 b3 ff ff       	call   4650 <_Py_Dealloc@plt>
    9328:	49 8b 45 00          	mov    0x0(%r13),%rax
    932c:	45 31 d2             	xor    %r10d,%r10d
    932f:	4c 89 54 24 50       	mov    %r10,0x50(%rsp)
    9334:	85 c0                	test   %eax,%eax
    9336:	78 11                	js     9349 <__pyx_pymod_exec_main+0x1f20>
    9338:	48 ff c8             	dec    %rax
    933b:	49 89 45 00          	mov    %rax,0x0(%r13)
    933f:	75 08                	jne    9349 <__pyx_pymod_exec_main+0x1f20>
    9341:	4c 89 ef             	mov    %r13,%rdi
    9344:	e8 07 b3 ff ff       	call   4650 <_Py_Dealloc@plt>
    9349:	49 8b 04 24          	mov    (%r12),%rax
    934d:	45 31 c9             	xor    %r9d,%r9d
    9350:	4c 89 4c 24 30       	mov    %r9,0x30(%rsp)
    9355:	85 c0                	test   %eax,%eax
    9357:	78 11                	js     936a <__pyx_pymod_exec_main+0x1f41>
    9359:	48 ff c8             	dec    %rax
    935c:	49 89 04 24          	mov    %rax,(%r12)
    9360:	75 08                	jne    936a <__pyx_pymod_exec_main+0x1f41>
    9362:	4c 89 e7             	mov    %r12,%rdi
    9365:	e8 e6 b2 ff ff       	call   4650 <_Py_Dealloc@plt>
    936a:	48 8b 3d 57 ea 00 00 	mov    0xea57(%rip),%rdi        # 17dc8 <__pyx_mstate_global_static+0x168>
    9371:	e8 0e 3e 00 00       	call   d184 <__Pyx__GetModuleGlobalName>
    9376:	48 89 44 24 28       	mov    %rax,0x28(%rsp)
    937b:	49 89 c4             	mov    %rax,%r12
    937e:	48 85 c0             	test   %rax,%rax
    9381:	0f 84 08 04 00 00    	je     978f <__pyx_pymod_exec_main+0x2366>
    9387:	48 8b 35 7a e9 00 00 	mov    0xe97a(%rip),%rsi        # 17d08 <__pyx_mstate_global_static+0xa8>
    938e:	48 89 c7             	mov    %rax,%rdi
    9391:	e8 e6 21 00 00       	call   b57c <__Pyx_PyObject_GetAttrStr>
    9396:	48 89 44 24 30       	mov    %rax,0x30(%rsp)
    939b:	49 89 c6             	mov    %rax,%r14
    939e:	48 85 c0             	test   %rax,%rax
    93a1:	0f 84 f3 03 00 00    	je     979a <__pyx_pymod_exec_main+0x2371>
    93a7:	49 8b 04 24          	mov    (%r12),%rax
    93ab:	85 c0                	test   %eax,%eax
    93ad:	78 11                	js     93c0 <__pyx_pymod_exec_main+0x1f97>
    93af:	48 ff c8             	dec    %rax
    93b2:	49 89 04 24          	mov    %rax,(%r12)
    93b6:	75 08                	jne    93c0 <__pyx_pymod_exec_main+0x1f97>
    93b8:	4c 89 e7             	mov    %r12,%rdi
    93bb:	e8 90 b2 ff ff       	call   4650 <_Py_Dealloc@plt>
    93c0:	e8 0b b4 ff ff       	call   47d0 <PyDict_New@plt>
    93c5:	48 89 44 24 28       	mov    %rax,0x28(%rsp)
    93ca:	49 89 c5             	mov    %rax,%r13
    93cd:	48 85 c0             	test   %rax,%rax
    93d0:	0f 84 d2 03 00 00    	je     97a8 <__pyx_pymod_exec_main+0x237f>
    93d6:	48 8b 15 9b e9 00 00 	mov    0xe99b(%rip),%rdx        # 17d78 <__pyx_mstate_global_static+0x118>
    93dd:	48 8b 35 84 eb 00 00 	mov    0xeb84(%rip),%rsi        # 17f68 <__pyx_mstate_global_static+0x308>
    93e4:	48 89 c7             	mov    %rax,%rdi
    93e7:	e8 c4 b3 ff ff       	call   47b0 <PyDict_SetItem@plt>
    93ec:	85 c0                	test   %eax,%eax
    93ee:	0f 88 bf 03 00 00    	js     97b3 <__pyx_pymod_exec_main+0x238a>
    93f4:	48 8b 35 3d ec 00 00 	mov    0xec3d(%rip),%rsi        # 18038 <__pyx_mstate_global_static+0x3d8>
    93fb:	4c 89 ea             	mov    %r13,%rdx
    93fe:	4c 89 f7             	mov    %r14,%rdi
    9401:	e8 42 20 00 00       	call   b448 <__Pyx_PyObject_Call>
    9406:	48 89 44 24 50       	mov    %rax,0x50(%rsp)
    940b:	49 89 c4             	mov    %rax,%r12
    940e:	48 85 c0             	test   %rax,%rax
    9411:	0f 84 aa 03 00 00    	je     97c1 <__pyx_pymod_exec_main+0x2398>
    9417:	49 8b 06             	mov    (%r14),%rax
    941a:	85 c0                	test   %eax,%eax
    941c:	78 10                	js     942e <__pyx_pymod_exec_main+0x2005>
    941e:	48 ff c8             	dec    %rax
    9421:	49 89 06             	mov    %rax,(%r14)
    9424:	75 08                	jne    942e <__pyx_pymod_exec_main+0x2005>
    9426:	4c 89 f7             	mov    %r14,%rdi
    9429:	e8 22 b2 ff ff       	call   4650 <_Py_Dealloc@plt>
    942e:	49 8b 45 00          	mov    0x0(%r13),%rax
    9432:	45 31 c0             	xor    %r8d,%r8d
    9435:	4c 89 44 24 30       	mov    %r8,0x30(%rsp)
    943a:	85 c0                	test   %eax,%eax
    943c:	78 11                	js     944f <__pyx_pymod_exec_main+0x2026>
    943e:	48 ff c8             	dec    %rax
    9441:	49 89 45 00          	mov    %rax,0x0(%r13)
    9445:	75 08                	jne    944f <__pyx_pymod_exec_main+0x2026>
    9447:	4c 89 ef             	mov    %r13,%rdi
    944a:	e8 01 b2 ff ff       	call   4650 <_Py_Dealloc@plt>
    944f:	49 8b 04 24          	mov    (%r12),%rax
    9453:	31 ff                	xor    %edi,%edi
    9455:	48 89 7c 24 28       	mov    %rdi,0x28(%rsp)
    945a:	85 c0                	test   %eax,%eax
    945c:	78 11                	js     946f <__pyx_pymod_exec_main+0x2046>
    945e:	48 ff c8             	dec    %rax
    9461:	49 89 04 24          	mov    %rax,(%r12)
    9465:	75 08                	jne    946f <__pyx_pymod_exec_main+0x2046>
    9467:	4c 89 e7             	mov    %r12,%rdi
    946a:	e8 e1 b1 ff ff       	call   4650 <_Py_Dealloc@plt>
    946f:	48 8b 7c 24 38       	mov    0x38(%rsp),%rdi
    9474:	31 d2                	xor    %edx,%edx
    9476:	48 89 54 24 50       	mov    %rdx,0x50(%rsp)
    947b:	e8 1e 22 00 00       	call   b69e <Py_XDECREF>
    9480:	48 8b 7c 24 40       	mov    0x40(%rsp),%rdi
    9485:	31 c9                	xor    %ecx,%ecx
    9487:	48 89 4c 24 38       	mov    %rcx,0x38(%rsp)
    948c:	e8 0d 22 00 00       	call   b69e <Py_XDECREF>
    9491:	48 8b 7c 24 48       	mov    0x48(%rsp),%rdi
    9496:	31 f6                	xor    %esi,%esi
    9498:	48 89 74 24 40       	mov    %rsi,0x40(%rsp)
    949d:	e8 fc 21 00 00       	call   b69e <Py_XDECREF>
    94a2:	48 8b 35 a7 eb 00 00 	mov    0xeba7(%rip),%rsi        # 18050 <__pyx_mstate_global_static+0x3f0>
    94a9:	31 d2                	xor    %edx,%edx
    94ab:	48 89 ef             	mov    %rbp,%rdi
    94ae:	e8 95 1f 00 00       	call   b448 <__Pyx_PyObject_Call>
    94b3:	48 89 44 24 48       	mov    %rax,0x48(%rsp)
    94b8:	49 89 c4             	mov    %rax,%r12
    94bb:	48 8b 45 00          	mov    0x0(%rbp),%rax
    94bf:	85 c0                	test   %eax,%eax
    94c1:	0f 89 06 05 00 00    	jns    99cd <__pyx_pymod_exec_main+0x25a4>
    94c7:	e9 12 05 00 00       	jmp    99de <__pyx_pymod_exec_main+0x25b5>
    94cc:	45 31 ed             	xor    %r13d,%r13d
    94cf:	41 bf 06 16 00 00    	mov    $0x1606,%r15d
    94d5:	41 be 5f 00 00 00    	mov    $0x5f,%r14d
    94db:	e9 f0 02 00 00       	jmp    97d0 <__pyx_pymod_exec_main+0x23a7>
    94e0:	45 31 e4             	xor    %r12d,%r12d
    94e3:	41 bf 11 16 00 00    	mov    $0x1611,%r15d
    94e9:	eb 09                	jmp    94f4 <__pyx_pymod_exec_main+0x20cb>
    94eb:	45 31 ed             	xor    %r13d,%r13d
    94ee:	41 bf 13 16 00 00    	mov    $0x1613,%r15d
    94f4:	41 be 60 00 00 00    	mov    $0x60,%r14d
    94fa:	e9 d1 02 00 00       	jmp    97d0 <__pyx_pymod_exec_main+0x23a7>
    94ff:	45 31 ed             	xor    %r13d,%r13d
    9502:	41 bf 16 16 00 00    	mov    $0x1616,%r15d
    9508:	eb ea                	jmp    94f4 <__pyx_pymod_exec_main+0x20cb>
    950a:	45 31 ed             	xor    %r13d,%r13d
    950d:	41 bf 20 16 00 00    	mov    $0x1620,%r15d
    9513:	eb 06                	jmp    951b <__pyx_pymod_exec_main+0x20f2>
    9515:	41 bf 22 16 00 00    	mov    $0x1622,%r15d
    951b:	41 be 61 00 00 00    	mov    $0x61,%r14d
    9521:	e9 aa 02 00 00       	jmp    97d0 <__pyx_pymod_exec_main+0x23a7>
    9526:	45 31 e4             	xor    %r12d,%r12d
    9529:	41 bf 2e 16 00 00    	mov    $0x162e,%r15d
    952f:	e9 aa 19 00 00       	jmp    aede <__pyx_pymod_exec_main+0x3ab5>
    9534:	45 31 ed             	xor    %r13d,%r13d
    9537:	41 bf 30 16 00 00    	mov    $0x1630,%r15d
    953d:	e9 9c 19 00 00       	jmp    aede <__pyx_pymod_exec_main+0x3ab5>
    9542:	41 bf 33 16 00 00    	mov    $0x1633,%r15d
    9548:	e9 91 19 00 00       	jmp    aede <__pyx_pymod_exec_main+0x3ab5>
    954d:	45 31 ed             	xor    %r13d,%r13d
    9550:	41 bf 35 16 00 00    	mov    $0x1635,%r15d
    9556:	e9 83 19 00 00       	jmp    aede <__pyx_pymod_exec_main+0x3ab5>
    955b:	45 31 ed             	xor    %r13d,%r13d
    955e:	41 bf 3a 16 00 00    	mov    $0x163a,%r15d
    9564:	e9 75 19 00 00       	jmp    aede <__pyx_pymod_exec_main+0x3ab5>
    9569:	41 bf 3c 16 00 00    	mov    $0x163c,%r15d
    956f:	e9 6a 19 00 00       	jmp    aede <__pyx_pymod_exec_main+0x3ab5>
    9574:	41 bf 3e 16 00 00    	mov    $0x163e,%r15d
    957a:	e9 5f 19 00 00       	jmp    aede <__pyx_pymod_exec_main+0x3ab5>
    957f:	41 bf 41 16 00 00    	mov    $0x1641,%r15d
    9585:	e9 54 19 00 00       	jmp    aede <__pyx_pymod_exec_main+0x3ab5>
    958a:	45 31 ed             	xor    %r13d,%r13d
    958d:	41 bf 4c 16 00 00    	mov    $0x164c,%r15d
    9593:	e9 46 19 00 00       	jmp    aede <__pyx_pymod_exec_main+0x3ab5>
    9598:	45 31 ed             	xor    %r13d,%r13d
    959b:	41 bf 4e 16 00 00    	mov    $0x164e,%r15d
    95a1:	e9 38 19 00 00       	jmp    aede <__pyx_pymod_exec_main+0x3ab5>
    95a6:	41 bf 4f 16 00 00    	mov    $0x164f,%r15d
    95ac:	e9 2d 19 00 00       	jmp    aede <__pyx_pymod_exec_main+0x3ab5>
    95b1:	45 31 ed             	xor    %r13d,%r13d
    95b4:	41 bf 5d 16 00 00    	mov    $0x165d,%r15d
    95ba:	eb 49                	jmp    9605 <__pyx_pymod_exec_main+0x21dc>
    95bc:	45 31 ed             	xor    %r13d,%r13d
    95bf:	45 31 e4             	xor    %r12d,%r12d
    95c2:	41 bf 5f 16 00 00    	mov    $0x165f,%r15d
    95c8:	eb 3b                	jmp    9605 <__pyx_pymod_exec_main+0x21dc>
    95ca:	45 31 e4             	xor    %r12d,%r12d
    95cd:	41 bf 62 16 00 00    	mov    $0x1662,%r15d
    95d3:	eb 30                	jmp    9605 <__pyx_pymod_exec_main+0x21dc>
    95d5:	45 31 ed             	xor    %r13d,%r13d
    95d8:	41 bf 64 16 00 00    	mov    $0x1664,%r15d
    95de:	eb 25                	jmp    9605 <__pyx_pymod_exec_main+0x21dc>
    95e0:	45 31 ed             	xor    %r13d,%r13d
    95e3:	45 31 e4             	xor    %r12d,%r12d
    95e6:	41 bf 66 16 00 00    	mov    $0x1666,%r15d
    95ec:	eb 17                	jmp    9605 <__pyx_pymod_exec_main+0x21dc>
    95ee:	45 31 ed             	xor    %r13d,%r13d
    95f1:	45 31 e4             	xor    %r12d,%r12d
    95f4:	41 bf 68 16 00 00    	mov    $0x1668,%r15d
    95fa:	eb 09                	jmp    9605 <__pyx_pymod_exec_main+0x21dc>
    95fc:	45 31 ed             	xor    %r13d,%r13d
    95ff:	41 bf 69 16 00 00    	mov    $0x1669,%r15d
    9605:	41 be 65 00 00 00    	mov    $0x65,%r14d
    960b:	e9 c0 01 00 00       	jmp    97d0 <__pyx_pymod_exec_main+0x23a7>
    9610:	45 31 ed             	xor    %r13d,%r13d
    9613:	41 bf 76 16 00 00    	mov    $0x1676,%r15d
    9619:	eb 49                	jmp    9664 <__pyx_pymod_exec_main+0x223b>
    961b:	45 31 ed             	xor    %r13d,%r13d
    961e:	45 31 e4             	xor    %r12d,%r12d
    9621:	41 bf 78 16 00 00    	mov    $0x1678,%r15d
    9627:	eb 3b                	jmp    9664 <__pyx_pymod_exec_main+0x223b>
    9629:	45 31 e4             	xor    %r12d,%r12d
    962c:	41 bf 7b 16 00 00    	mov    $0x167b,%r15d
    9632:	eb 30                	jmp    9664 <__pyx_pymod_exec_main+0x223b>
    9634:	45 31 ed             	xor    %r13d,%r13d
    9637:	41 bf 7d 16 00 00    	mov    $0x167d,%r15d
    963d:	eb 25                	jmp    9664 <__pyx_pymod_exec_main+0x223b>
    963f:	45 31 ed             	xor    %r13d,%r13d
    9642:	45 31 e4             	xor    %r12d,%r12d
    9645:	41 bf 7f 16 00 00    	mov    $0x167f,%r15d
    964b:	eb 17                	jmp    9664 <__pyx_pymod_exec_main+0x223b>
    964d:	45 31 ed             	xor    %r13d,%r13d
    9650:	45 31 e4             	xor    %r12d,%r12d
    9653:	41 bf 81 16 00 00    	mov    $0x1681,%r15d
    9659:	eb 09                	jmp    9664 <__pyx_pymod_exec_main+0x223b>
    965b:	45 31 ed             	xor    %r13d,%r13d
    965e:	41 bf 82 16 00 00    	mov    $0x1682,%r15d
    9664:	41 be 66 00 00 00    	mov    $0x66,%r14d
    966a:	e9 61 01 00 00       	jmp    97d0 <__pyx_pymod_exec_main+0x23a7>
    966f:	45 31 ed             	xor    %r13d,%r13d
    9672:	41 bf 8f 16 00 00    	mov    $0x168f,%r15d
    9678:	eb 4c                	jmp    96c6 <__pyx_pymod_exec_main+0x229d>
    967a:	45 31 ed             	xor    %r13d,%r13d
    967d:	45 31 e4             	xor    %r12d,%r12d
    9680:	41 bf 91 16 00 00    	mov    $0x1691,%r15d
    9686:	eb 3e                	jmp    96c6 <__pyx_pymod_exec_main+0x229d>
    9688:	45 31 ed             	xor    %r13d,%r13d
    968b:	41 bf 94 16 00 00    	mov    $0x1694,%r15d
    9691:	eb 33                	jmp    96c6 <__pyx_pymod_exec_main+0x229d>
    9693:	45 31 ed             	xor    %r13d,%r13d
    9696:	45 31 e4             	xor    %r12d,%r12d
    9699:	41 bf 96 16 00 00    	mov    $0x1696,%r15d
    969f:	eb 25                	jmp    96c6 <__pyx_pymod_exec_main+0x229d>
    96a1:	45 31 ed             	xor    %r13d,%r13d
    96a4:	45 31 e4             	xor    %r12d,%r12d
    96a7:	41 bf 97 16 00 00    	mov    $0x1697,%r15d
    96ad:	eb 17                	jmp    96c6 <__pyx_pymod_exec_main+0x229d>
    96af:	45 31 ed             	xor    %r13d,%r13d
    96b2:	45 31 e4             	xor    %r12d,%r12d
    96b5:	41 bf 98 16 00 00    	mov    $0x1698,%r15d
    96bb:	eb 09                	jmp    96c6 <__pyx_pymod_exec_main+0x229d>
    96bd:	45 31 e4             	xor    %r12d,%r12d
    96c0:	41 bf 99 16 00 00    	mov    $0x1699,%r15d
    96c6:	41 be 6d 00 00 00    	mov    $0x6d,%r14d
    96cc:	e9 ff 00 00 00       	jmp    97d0 <__pyx_pymod_exec_main+0x23a7>
    96d1:	45 31 ed             	xor    %r13d,%r13d
    96d4:	41 bf a6 16 00 00    	mov    $0x16a6,%r15d
    96da:	eb 4c                	jmp    9728 <__pyx_pymod_exec_main+0x22ff>
    96dc:	45 31 ed             	xor    %r13d,%r13d
    96df:	45 31 e4             	xor    %r12d,%r12d
    96e2:	41 bf a8 16 00 00    	mov    $0x16a8,%r15d
    96e8:	eb 3e                	jmp    9728 <__pyx_pymod_exec_main+0x22ff>
    96ea:	45 31 ed             	xor    %r13d,%r13d
    96ed:	41 bf ab 16 00 00    	mov    $0x16ab,%r15d
    96f3:	eb 33                	jmp    9728 <__pyx_pymod_exec_main+0x22ff>
    96f5:	45 31 ed             	xor    %r13d,%r13d
    96f8:	45 31 e4             	xor    %r12d,%r12d
    96fb:	41 bf ad 16 00 00    	mov    $0x16ad,%r15d
    9701:	eb 25                	jmp    9728 <__pyx_pymod_exec_main+0x22ff>
    9703:	45 31 ed             	xor    %r13d,%r13d
    9706:	45 31 e4             	xor    %r12d,%r12d
    9709:	41 bf ae 16 00 00    	mov    $0x16ae,%r15d
    970f:	eb 17                	jmp    9728 <__pyx_pymod_exec_main+0x22ff>
    9711:	45 31 ed             	xor    %r13d,%r13d
    9714:	45 31 e4             	xor    %r12d,%r12d
    9717:	41 bf af 16 00 00    	mov    $0x16af,%r15d
    971d:	eb 09                	jmp    9728 <__pyx_pymod_exec_main+0x22ff>
    971f:	45 31 e4             	xor    %r12d,%r12d
    9722:	41 bf b0 16 00 00    	mov    $0x16b0,%r15d
    9728:	41 be 6e 00 00 00    	mov    $0x6e,%r14d
    972e:	e9 9d 00 00 00       	jmp    97d0 <__pyx_pymod_exec_main+0x23a7>
    9733:	45 31 ed             	xor    %r13d,%r13d
    9736:	41 bf bd 16 00 00    	mov    $0x16bd,%r15d
    973c:	eb 49                	jmp    9787 <__pyx_pymod_exec_main+0x235e>
    973e:	45 31 ed             	xor    %r13d,%r13d
    9741:	45 31 e4             	xor    %r12d,%r12d
    9744:	41 bf bf 16 00 00    	mov    $0x16bf,%r15d
    974a:	eb 3b                	jmp    9787 <__pyx_pymod_exec_main+0x235e>
    974c:	45 31 e4             	xor    %r12d,%r12d
    974f:	41 bf c2 16 00 00    	mov    $0x16c2,%r15d
    9755:	eb 30                	jmp    9787 <__pyx_pymod_exec_main+0x235e>
    9757:	45 31 ed             	xor    %r13d,%r13d
    975a:	41 bf c4 16 00 00    	mov    $0x16c4,%r15d
    9760:	eb 25                	jmp    9787 <__pyx_pymod_exec_main+0x235e>
    9762:	45 31 ed             	xor    %r13d,%r13d
    9765:	45 31 e4             	xor    %r12d,%r12d
    9768:	41 bf c6 16 00 00    	mov    $0x16c6,%r15d
    976e:	eb 17                	jmp    9787 <__pyx_pymod_exec_main+0x235e>
    9770:	45 31 ed             	xor    %r13d,%r13d
    9773:	45 31 e4             	xor    %r12d,%r12d
    9776:	41 bf c8 16 00 00    	mov    $0x16c8,%r15d
    977c:	eb 09                	jmp    9787 <__pyx_pymod_exec_main+0x235e>
    977e:	45 31 ed             	xor    %r13d,%r13d
    9781:	41 bf c9 16 00 00    	mov    $0x16c9,%r15d
    9787:	41 be 70 00 00 00    	mov    $0x70,%r14d
    978d:	eb 41                	jmp    97d0 <__pyx_pymod_exec_main+0x23a7>
    978f:	45 31 ed             	xor    %r13d,%r13d
    9792:	41 bf d6 16 00 00    	mov    $0x16d6,%r15d
    9798:	eb 30                	jmp    97ca <__pyx_pymod_exec_main+0x23a1>
    979a:	45 31 ed             	xor    %r13d,%r13d
    979d:	45 31 e4             	xor    %r12d,%r12d
    97a0:	41 bf d8 16 00 00    	mov    $0x16d8,%r15d
    97a6:	eb 22                	jmp    97ca <__pyx_pymod_exec_main+0x23a1>
    97a8:	45 31 e4             	xor    %r12d,%r12d
    97ab:	41 bf db 16 00 00    	mov    $0x16db,%r15d
    97b1:	eb 17                	jmp    97ca <__pyx_pymod_exec_main+0x23a1>
    97b3:	45 31 ed             	xor    %r13d,%r13d
    97b6:	45 31 e4             	xor    %r12d,%r12d
    97b9:	41 bf dd 16 00 00    	mov    $0x16dd,%r15d
    97bf:	eb 09                	jmp    97ca <__pyx_pymod_exec_main+0x23a1>
    97c1:	45 31 ed             	xor    %r13d,%r13d
    97c4:	41 bf de 16 00 00    	mov    $0x16de,%r15d
    97ca:	41 be 73 00 00 00    	mov    $0x73,%r14d
    97d0:	4c 89 ef             	mov    %r13,%rdi
    97d3:	e8 c6 1e 00 00       	call   b69e <Py_XDECREF>
    97d8:	4c 89 e7             	mov    %r12,%rdi
    97db:	e8 be 1e 00 00       	call   b69e <Py_XDECREF>
    97e0:	48 8b 7c 24 28       	mov    0x28(%rsp),%rdi
    97e5:	e8 b4 1e 00 00       	call   b69e <Py_XDECREF>
    97ea:	48 8b 7c 24 30       	mov    0x30(%rsp),%rdi
    97ef:	31 c0                	xor    %eax,%eax
    97f1:	48 89 44 24 28       	mov    %rax,0x28(%rsp)
    97f6:	e8 a3 1e 00 00       	call   b69e <Py_XDECREF>
    97fb:	48 8b 7c 24 50       	mov    0x50(%rsp),%rdi
    9800:	31 c0                	xor    %eax,%eax
    9802:	48 89 44 24 30       	mov    %rax,0x30(%rsp)
    9807:	e8 92 1e 00 00       	call   b69e <Py_XDECREF>
    980c:	31 c0                	xor    %eax,%eax
    980e:	44 89 f2             	mov    %r14d,%edx
    9811:	44 89 fe             	mov    %r15d,%esi
    9814:	48 8d 0d fd 8f 00 00 	lea    0x8ffd(%rip),%rcx        # 12818 <_IO_stdin_used+0x818>
    981b:	48 8d 3d 60 93 00 00 	lea    0x9360(%rip),%rdi        # 12b82 <_IO_stdin_used+0xb82>
    9822:	48 89 44 24 50       	mov    %rax,0x50(%rsp)
    9827:	e8 76 3b 00 00       	call   d3a2 <__Pyx_AddTraceback>
    982c:	48 8b 7c 24 10       	mov    0x10(%rsp),%rdi
    9831:	48 8d 4c 24 30       	lea    0x30(%rsp),%rcx
    9836:	48 8d 54 24 28       	lea    0x28(%rsp),%rdx
    983b:	48 8d 74 24 50       	lea    0x50(%rsp),%rsi
    9840:	e8 79 30 00 00       	call   c8be <__Pyx__GetException.constprop.0>
    9845:	48 8b 4c 24 30       	mov    0x30(%rsp),%rcx
    984a:	4c 8b 74 24 28       	mov    0x28(%rsp),%r14
    984f:	ff c0                	inc    %eax
    9851:	4c 8b 7c 24 50       	mov    0x50(%rsp),%r15
    9856:	48 89 4c 24 08       	mov    %rcx,0x8(%rsp)
    985b:	0f 84 21 01 00 00    	je     9982 <__pyx_pymod_exec_main+0x2559>
    9861:	4c 89 f2             	mov    %r14,%rdx
    9864:	4c 89 fe             	mov    %r15,%rsi
    9867:	bf 03 00 00 00       	mov    $0x3,%edi
    986c:	31 c0                	xor    %eax,%eax
    986e:	e8 3d ab ff ff       	call   43b0 <PyTuple_Pack@plt>
    9873:	49 89 c5             	mov    %rax,%r13
    9876:	48 85 c0             	test   %rax,%rax
    9879:	0f 84 0b 01 00 00    	je     998a <__pyx_pymod_exec_main+0x2561>
    987f:	31 d2                	xor    %edx,%edx
    9881:	48 89 c6             	mov    %rax,%rsi
    9884:	48 89 ef             	mov    %rbp,%rdi
    9887:	e8 bc 1b 00 00       	call   b448 <__Pyx_PyObject_Call>
    988c:	49 89 c4             	mov    %rax,%r12
    988f:	48 8b 45 00          	mov    0x0(%rbp),%rax
    9893:	85 c0                	test   %eax,%eax
    9895:	78 11                	js     98a8 <__pyx_pymod_exec_main+0x247f>
    9897:	48 ff c8             	dec    %rax
    989a:	48 89 45 00          	mov    %rax,0x0(%rbp)
    989e:	75 08                	jne    98a8 <__pyx_pymod_exec_main+0x247f>
    98a0:	48 89 ef             	mov    %rbp,%rdi
    98a3:	e8 a8 ad ff ff       	call   4650 <_Py_Dealloc@plt>
    98a8:	49 8b 45 00          	mov    0x0(%r13),%rax
    98ac:	85 c0                	test   %eax,%eax
    98ae:	78 11                	js     98c1 <__pyx_pymod_exec_main+0x2498>
    98b0:	48 ff c8             	dec    %rax
    98b3:	49 89 45 00          	mov    %rax,0x0(%r13)
    98b7:	75 08                	jne    98c1 <__pyx_pymod_exec_main+0x2498>
    98b9:	4c 89 ef             	mov    %r13,%rdi
    98bc:	e8 8f ad ff ff       	call   4650 <_Py_Dealloc@plt>
    98c1:	4d 85 e4             	test   %r12,%r12
    98c4:	0f 84 c8 00 00 00    	je     9992 <__pyx_pymod_exec_main+0x2569>
    98ca:	4c 89 e7             	mov    %r12,%rdi
    98cd:	e8 77 1c 00 00       	call   b549 <__Pyx_PyObject_IsTrue>
    98d2:	49 8b 14 24          	mov    (%r12),%rdx
    98d6:	85 d2                	test   %edx,%edx
    98d8:	78 19                	js     98f3 <__pyx_pymod_exec_main+0x24ca>
    98da:	48 ff ca             	dec    %rdx
    98dd:	49 89 14 24          	mov    %rdx,(%r12)
    98e1:	75 10                	jne    98f3 <__pyx_pymod_exec_main+0x24ca>
    98e3:	4c 89 e7             	mov    %r12,%rdi
    98e6:	89 44 24 18          	mov    %eax,0x18(%rsp)
    98ea:	e8 61 ad ff ff       	call   4650 <_Py_Dealloc@plt>
    98ef:	8b 44 24 18          	mov    0x18(%rsp),%eax
    98f3:	4c 8b 64 24 48       	mov    0x48(%rsp),%r12
    98f8:	48 8b 6c 24 40       	mov    0x40(%rsp),%rbp
    98fd:	4c 8b 6c 24 38       	mov    0x38(%rsp),%r13
    9902:	85 c0                	test   %eax,%eax
    9904:	0f 88 90 00 00 00    	js     999a <__pyx_pymod_exec_main+0x2571>
    990a:	75 31                	jne    993d <__pyx_pymod_exec_main+0x2514>
    990c:	e8 af aa ff ff       	call   43c0 <PyThreadState_Get@plt>
    9911:	48 8b 4c 24 08       	mov    0x8(%rsp),%rcx
    9916:	4c 89 f2             	mov    %r14,%rdx
    9919:	4c 89 fe             	mov    %r15,%rsi
    991c:	48 89 c7             	mov    %rax,%rdi
    991f:	41 bc 0e 17 00 00    	mov    $0x170e,%r12d
    9925:	e8 3a 2d 00 00       	call   c664 <__Pyx_ErrRestoreInState>
    992a:	31 c0                	xor    %eax,%eax
    992c:	48 89 44 24 50       	mov    %rax,0x50(%rsp)
    9931:	48 89 44 24 28       	mov    %rax,0x28(%rsp)
    9936:	48 89 44 24 30       	mov    %rax,0x30(%rsp)
    993b:	eb 63                	jmp    99a0 <__pyx_pymod_exec_main+0x2577>
    993d:	4c 89 ff             	mov    %r15,%rdi
    9940:	45 31 ff             	xor    %r15d,%r15d
    9943:	e8 56 1d 00 00       	call   b69e <Py_XDECREF>
    9948:	4c 89 f7             	mov    %r14,%rdi
    994b:	4c 89 7c 24 50       	mov    %r15,0x50(%rsp)
    9950:	e8 49 1d 00 00       	call   b69e <Py_XDECREF>
    9955:	48 8b 7c 24 08       	mov    0x8(%rsp),%rdi
    995a:	31 c0                	xor    %eax,%eax
    995c:	48 89 44 24 28       	mov    %rax,0x28(%rsp)
    9961:	e8 38 1d 00 00       	call   b69e <Py_XDECREF>
    9966:	48 8b 44 24 10       	mov    0x10(%rsp),%rax
    996b:	4c 89 e1             	mov    %r12,%rcx
    996e:	48 89 ea             	mov    %rbp,%rdx
    9971:	4c 89 ee             	mov    %r13,%rsi
    9974:	48 8b 78 68          	mov    0x68(%rax),%rdi
    9978:	e8 cd 2e 00 00       	call   c84a <__Pyx__ExceptionReset.isra.0>
    997d:	e9 86 00 00 00       	jmp    9a08 <__pyx_pymod_exec_main+0x25df>
    9982:	41 bc f9 16 00 00    	mov    $0x16f9,%r12d
    9988:	eb 16                	jmp    99a0 <__pyx_pymod_exec_main+0x2577>
    998a:	41 bc fd 16 00 00    	mov    $0x16fd,%r12d
    9990:	eb 0e                	jmp    99a0 <__pyx_pymod_exec_main+0x2577>
    9992:	41 bc 02 17 00 00    	mov    $0x1702,%r12d
    9998:	eb 06                	jmp    99a0 <__pyx_pymod_exec_main+0x2577>
    999a:	41 bc 06 17 00 00    	mov    $0x1706,%r12d
    99a0:	48 8b 44 24 10       	mov    0x10(%rsp),%rax
    99a5:	48 8b 4c 24 48       	mov    0x48(%rsp),%rcx
    99aa:	bd 01 00 00 00       	mov    $0x1,%ebp
    99af:	41 bd 5c 00 00 00    	mov    $0x5c,%r13d
    99b5:	48 8b 54 24 40       	mov    0x40(%rsp),%rdx
    99ba:	48 8b 74 24 38       	mov    0x38(%rsp),%rsi
    99bf:	48 8b 78 68          	mov    0x68(%rax),%rdi
    99c3:	e8 82 2e 00 00       	call   c84a <__Pyx__ExceptionReset.isra.0>
    99c8:	e9 60 14 00 00       	jmp    ae2d <__pyx_pymod_exec_main+0x3a04>
    99cd:	48 ff c8             	dec    %rax
    99d0:	48 89 45 00          	mov    %rax,0x0(%rbp)
    99d4:	75 08                	jne    99de <__pyx_pymod_exec_main+0x25b5>
    99d6:	48 89 ef             	mov    %rbp,%rdi
    99d9:	e8 72 ac ff ff       	call   4650 <_Py_Dealloc@plt>
    99de:	4d 85 e4             	test   %r12,%r12
    99e1:	0f 84 af 11 00 00    	je     ab96 <__pyx_pymod_exec_main+0x376d>
    99e7:	49 8b 04 24          	mov    (%r12),%rax
    99eb:	85 c0                	test   %eax,%eax
    99ed:	78 11                	js     9a00 <__pyx_pymod_exec_main+0x25d7>
    99ef:	48 ff c8             	dec    %rax
    99f2:	49 89 04 24          	mov    %rax,(%r12)
    99f6:	75 08                	jne    9a00 <__pyx_pymod_exec_main+0x25d7>
    99f8:	4c 89 e7             	mov    %r12,%rdi
    99fb:	e8 50 ac ff ff       	call   4650 <_Py_Dealloc@plt>
    9a00:	45 31 e4             	xor    %r12d,%r12d
    9a03:	4c 89 64 24 48       	mov    %r12,0x48(%rsp)
    9a08:	48 8b 3d b9 e3 00 00 	mov    0xe3b9(%rip),%rdi        # 17dc8 <__pyx_mstate_global_static+0x168>
    9a0f:	e8 70 37 00 00       	call   d184 <__Pyx__GetModuleGlobalName>
    9a14:	48 89 44 24 30       	mov    %rax,0x30(%rsp)
    9a19:	49 89 c4             	mov    %rax,%r12
    9a1c:	48 85 c0             	test   %rax,%rax
    9a1f:	0f 84 89 11 00 00    	je     abae <__pyx_pymod_exec_main+0x3785>
    9a25:	eb 34                	jmp    9a5b <__pyx_pymod_exec_main+0x2632>
    9a27:	41 bc ee 15 00 00    	mov    $0x15ee,%r12d
    9a2d:	eb 06                	jmp    9a35 <__pyx_pymod_exec_main+0x260c>
    9a2f:	41 bc f0 15 00 00    	mov    $0x15f0,%r12d
    9a35:	48 8b 45 00          	mov    0x0(%rbp),%rax
    9a39:	85 c0                	test   %eax,%eax
    9a3b:	0f 88 83 0a 00 00    	js     a4c4 <__pyx_pymod_exec_main+0x309b>
    9a41:	48 ff c8             	dec    %rax
    9a44:	48 89 45 00          	mov    %rax,0x0(%rbp)
    9a48:	0f 85 78 11 00 00    	jne    abc6 <__pyx_pymod_exec_main+0x379d>
    9a4e:	48 89 ef             	mov    %rbp,%rdi
    9a51:	e8 fa ab ff ff       	call   4650 <_Py_Dealloc@plt>
    9a56:	e9 69 0a 00 00       	jmp    a4c4 <__pyx_pymod_exec_main+0x309b>
    9a5b:	48 8b 35 f6 e4 00 00 	mov    0xe4f6(%rip),%rsi        # 17f58 <__pyx_mstate_global_static+0x2f8>
    9a62:	48 89 c7             	mov    %rax,%rdi
    9a65:	e8 12 1b 00 00       	call   b57c <__Pyx_PyObject_GetAttrStr>
    9a6a:	48 89 44 24 28       	mov    %rax,0x28(%rsp)
    9a6f:	48 89 c5             	mov    %rax,%rbp
    9a72:	48 85 c0             	test   %rax,%rax
    9a75:	0f 84 5b 11 00 00    	je     abd6 <__pyx_pymod_exec_main+0x37ad>
    9a7b:	49 8b 04 24          	mov    (%r12),%rax
    9a7f:	85 c0                	test   %eax,%eax
    9a81:	78 11                	js     9a94 <__pyx_pymod_exec_main+0x266b>
    9a83:	48 ff c8             	dec    %rax
    9a86:	49 89 04 24          	mov    %rax,(%r12)
    9a8a:	75 08                	jne    9a94 <__pyx_pymod_exec_main+0x266b>
    9a8c:	4c 89 e7             	mov    %r12,%rdi
    9a8f:	e8 bc ab ff ff       	call   4650 <_Py_Dealloc@plt>
    9a94:	48 89 ef             	mov    %rbp,%rdi
    9a97:	e8 17 d3 ff ff       	call   6db3 <__Pyx_PyObject_CallNoArg>
    9a9c:	48 89 44 24 30       	mov    %rax,0x30(%rsp)
    9aa1:	49 89 c4             	mov    %rax,%r12
    9aa4:	48 85 c0             	test   %rax,%rax
    9aa7:	0f 84 41 11 00 00    	je     abee <__pyx_pymod_exec_main+0x37c5>
    9aad:	48 8b 45 00          	mov    0x0(%rbp),%rax
    9ab1:	85 c0                	test   %eax,%eax
    9ab3:	78 11                	js     9ac6 <__pyx_pymod_exec_main+0x269d>
    9ab5:	48 ff c8             	dec    %rax
    9ab8:	48 89 45 00          	mov    %rax,0x0(%rbp)
    9abc:	75 08                	jne    9ac6 <__pyx_pymod_exec_main+0x269d>
    9abe:	48 89 ef             	mov    %rbp,%rdi
    9ac1:	e8 8a ab ff ff       	call   4650 <_Py_Dealloc@plt>
    9ac6:	49 8b 04 24          	mov    (%r12),%rax
    9aca:	31 ed                	xor    %ebp,%ebp
    9acc:	48 89 6c 24 28       	mov    %rbp,0x28(%rsp)
    9ad1:	85 c0                	test   %eax,%eax
    9ad3:	78 11                	js     9ae6 <__pyx_pymod_exec_main+0x26bd>
    9ad5:	48 ff c8             	dec    %rax
    9ad8:	49 89 04 24          	mov    %rax,(%r12)
    9adc:	75 08                	jne    9ae6 <__pyx_pymod_exec_main+0x26bd>
    9ade:	4c 89 e7             	mov    %r12,%rdi
    9ae1:	e8 6a ab ff ff       	call   4650 <_Py_Dealloc@plt>
    9ae6:	48 8b 3d db e2 00 00 	mov    0xe2db(%rip),%rdi        # 17dc8 <__pyx_mstate_global_static+0x168>
    9aed:	e8 92 36 00 00       	call   d184 <__Pyx__GetModuleGlobalName>
    9af2:	48 89 44 24 30       	mov    %rax,0x30(%rsp)
    9af7:	49 89 c4             	mov    %rax,%r12
    9afa:	48 85 c0             	test   %rax,%rax
    9afd:	0f 84 03 11 00 00    	je     ac06 <__pyx_pymod_exec_main+0x37dd>
    9b03:	48 8b 35 36 e4 00 00 	mov    0xe436(%rip),%rsi        # 17f40 <__pyx_mstate_global_static+0x2e0>
    9b0a:	48 89 c7             	mov    %rax,%rdi
    9b0d:	e8 6a 1a 00 00       	call   b57c <__Pyx_PyObject_GetAttrStr>
    9b12:	48 89 44 24 28       	mov    %rax,0x28(%rsp)
    9b17:	48 89 c5             	mov    %rax,%rbp
    9b1a:	48 85 c0             	test   %rax,%rax
    9b1d:	0f 84 fb 10 00 00    	je     ac1e <__pyx_pymod_exec_main+0x37f5>
    9b23:	49 8b 04 24          	mov    (%r12),%rax
    9b27:	85 c0                	test   %eax,%eax
    9b29:	78 11                	js     9b3c <__pyx_pymod_exec_main+0x2713>
    9b2b:	48 ff c8             	dec    %rax
    9b2e:	49 89 04 24          	mov    %rax,(%r12)
    9b32:	75 08                	jne    9b3c <__pyx_pymod_exec_main+0x2713>
    9b34:	4c 89 e7             	mov    %r12,%rdi
    9b37:	e8 14 ab ff ff       	call   4650 <_Py_Dealloc@plt>
    9b3c:	48 8b 35 15 e5 00 00 	mov    0xe515(%rip),%rsi        # 18058 <__pyx_mstate_global_static+0x3f8>
    9b43:	31 d2                	xor    %edx,%edx
    9b45:	48 89 ef             	mov    %rbp,%rdi
    9b48:	e8 fb 18 00 00       	call   b448 <__Pyx_PyObject_Call>
    9b4d:	48 89 44 24 30       	mov    %rax,0x30(%rsp)
    9b52:	49 89 c4             	mov    %rax,%r12
    9b55:	48 85 c0             	test   %rax,%rax
    9b58:	0f 84 d8 10 00 00    	je     ac36 <__pyx_pymod_exec_main+0x380d>
    9b5e:	48 8b 45 00          	mov    0x0(%rbp),%rax
    9b62:	85 c0                	test   %eax,%eax
    9b64:	78 11                	js     9b77 <__pyx_pymod_exec_main+0x274e>
    9b66:	48 ff c8             	dec    %rax
    9b69:	48 89 45 00          	mov    %rax,0x0(%rbp)
    9b6d:	75 08                	jne    9b77 <__pyx_pymod_exec_main+0x274e>
    9b6f:	48 89 ef             	mov    %rbp,%rdi
    9b72:	e8 d9 aa ff ff       	call   4650 <_Py_Dealloc@plt>
    9b77:	49 8b 04 24          	mov    (%r12),%rax
    9b7b:	45 31 db             	xor    %r11d,%r11d
    9b7e:	4c 89 5c 24 28       	mov    %r11,0x28(%rsp)
    9b83:	85 c0                	test   %eax,%eax
    9b85:	78 11                	js     9b98 <__pyx_pymod_exec_main+0x276f>
    9b87:	48 ff c8             	dec    %rax
    9b8a:	49 89 04 24          	mov    %rax,(%r12)
    9b8e:	75 08                	jne    9b98 <__pyx_pymod_exec_main+0x276f>
    9b90:	4c 89 e7             	mov    %r12,%rdi
    9b93:	e8 b8 aa ff ff       	call   4650 <_Py_Dealloc@plt>
    9b98:	4c 8d 25 41 db 00 00 	lea    0xdb41(%rip),%r12        # 176e0 <PyMethod_Type@@Base>
    9b9f:	48 8b 3d 22 e2 00 00 	mov    0xe222(%rip),%rdi        # 17dc8 <__pyx_mstate_global_static+0x168>
    9ba6:	45 31 d2             	xor    %r10d,%r10d
    9ba9:	4c 89 54 24 30       	mov    %r10,0x30(%rsp)
    9bae:	e8 d1 35 00 00       	call   d184 <__Pyx__GetModuleGlobalName>
    9bb3:	48 89 44 24 28       	mov    %rax,0x28(%rsp)
    9bb8:	49 89 c5             	mov    %rax,%r13
    9bbb:	48 85 c0             	test   %rax,%rax
    9bbe:	0f 84 8a 10 00 00    	je     ac4e <__pyx_pymod_exec_main+0x3825>
    9bc4:	48 8b 35 55 e2 00 00 	mov    0xe255(%rip),%rsi        # 17e20 <__pyx_mstate_global_static+0x1c0>
    9bcb:	48 89 c7             	mov    %rax,%rdi
    9bce:	e8 a9 19 00 00       	call   b57c <__Pyx_PyObject_GetAttrStr>
    9bd3:	48 89 44 24 50       	mov    %rax,0x50(%rsp)
    9bd8:	48 89 c5             	mov    %rax,%rbp
    9bdb:	48 85 c0             	test   %rax,%rax
    9bde:	0f 84 82 10 00 00    	je     ac66 <__pyx_pymod_exec_main+0x383d>
    9be4:	49 8b 45 00          	mov    0x0(%r13),%rax
    9be8:	85 c0                	test   %eax,%eax
    9bea:	78 11                	js     9bfd <__pyx_pymod_exec_main+0x27d4>
    9bec:	48 ff c8             	dec    %rax
    9bef:	49 89 45 00          	mov    %rax,0x0(%r13)
    9bf3:	75 08                	jne    9bfd <__pyx_pymod_exec_main+0x27d4>
    9bf5:	4c 89 ef             	mov    %r13,%rdi
    9bf8:	e8 53 aa ff ff       	call   4650 <_Py_Dealloc@plt>
    9bfd:	4c 39 65 08          	cmp    %r12,0x8(%rbp)
    9c01:	75 60                	jne    9c63 <__pyx_pymod_exec_main+0x283a>
    9c03:	48 89 ef             	mov    %rbp,%rdi
    9c06:	e8 e3 26 00 00       	call   c2ee <PyMethod_GET_SELF>
    9c0b:	48 89 44 24 28       	mov    %rax,0x28(%rsp)
    9c10:	49 89 c6             	mov    %rax,%r14
    9c13:	48 85 c0             	test   %rax,%rax
    9c16:	74 4b                	je     9c63 <__pyx_pymod_exec_main+0x283a>
    9c18:	48 89 ef             	mov    %rbp,%rdi
    9c1b:	e8 00 27 00 00       	call   c320 <PyMethod_GET_FUNCTION>
    9c20:	49 89 c5             	mov    %rax,%r13
    9c23:	41 8b 06             	mov    (%r14),%eax
    9c26:	ff c0                	inc    %eax
    9c28:	74 03                	je     9c2d <__pyx_pymod_exec_main+0x2804>
    9c2a:	41 89 06             	mov    %eax,(%r14)
    9c2d:	41 8b 45 00          	mov    0x0(%r13),%eax
    9c31:	ff c0                	inc    %eax
    9c33:	74 04                	je     9c39 <__pyx_pymod_exec_main+0x2810>
    9c35:	41 89 45 00          	mov    %eax,0x0(%r13)
    9c39:	48 8b 45 00          	mov    0x0(%rbp),%rax
    9c3d:	4c 89 6c 24 50       	mov    %r13,0x50(%rsp)
    9c42:	85 c0                	test   %eax,%eax
    9c44:	79 0a                	jns    9c50 <__pyx_pymod_exec_main+0x2827>
    9c46:	4c 89 ed             	mov    %r13,%rbp
    9c49:	b8 01 00 00 00       	mov    $0x1,%eax
    9c4e:	eb 18                	jmp    9c68 <__pyx_pymod_exec_main+0x283f>
    9c50:	48 ff c8             	dec    %rax
    9c53:	48 89 45 00          	mov    %rax,0x0(%rbp)
    9c57:	75 ed                	jne    9c46 <__pyx_pymod_exec_main+0x281d>
    9c59:	48 89 ef             	mov    %rbp,%rdi
    9c5c:	e8 ef a9 ff ff       	call   4650 <_Py_Dealloc@plt>
    9c61:	eb e3                	jmp    9c46 <__pyx_pymod_exec_main+0x281d>
    9c63:	45 31 f6             	xor    %r14d,%r14d
    9c66:	31 c0                	xor    %eax,%eax
    9c68:	48 63 d0             	movslq %eax,%rdx
    9c6b:	83 f0 01             	xor    $0x1,%eax
    9c6e:	4c 8d 6c 24 58       	lea    0x58(%rsp),%r13
    9c73:	45 31 c0             	xor    %r8d,%r8d
    9c76:	48 98                	cltq
    9c78:	48 89 ef             	mov    %rbp,%rdi
    9c7b:	4c 89 44 24 60       	mov    %r8,0x60(%rsp)
    9c80:	49 8d 74 c5 00       	lea    0x0(%r13,%rax,8),%rsi
    9c85:	4c 89 74 24 58       	mov    %r14,0x58(%rsp)
    9c8a:	e8 0c 36 00 00       	call   d29b <__Pyx_PyObject_FastCallDict.constprop.0>
    9c8f:	4c 89 f7             	mov    %r14,%rdi
    9c92:	48 89 44 24 30       	mov    %rax,0x30(%rsp)
    9c97:	49 89 c7             	mov    %rax,%r15
    9c9a:	e8 ff 19 00 00       	call   b69e <Py_XDECREF>
    9c9f:	45 31 c9             	xor    %r9d,%r9d
    9ca2:	4c 89 4c 24 28       	mov    %r9,0x28(%rsp)
    9ca7:	4d 85 ff             	test   %r15,%r15
    9caa:	75 18                	jne    9cc4 <__pyx_pymod_exec_main+0x289b>
    9cac:	31 db                	xor    %ebx,%ebx
    9cae:	41 bc 78 17 00 00    	mov    $0x1778,%r12d
    9cb4:	41 bd 78 00 00 00    	mov    $0x78,%r13d
    9cba:	bd 01 00 00 00       	mov    $0x1,%ebp
    9cbf:	e9 69 11 00 00       	jmp    ae2d <__pyx_pymod_exec_main+0x3a04>
    9cc4:	48 8b 45 00          	mov    0x0(%rbp),%rax
    9cc8:	85 c0                	test   %eax,%eax
    9cca:	78 11                	js     9cdd <__pyx_pymod_exec_main+0x28b4>
    9ccc:	48 ff c8             	dec    %rax
    9ccf:	48 89 45 00          	mov    %rax,0x0(%rbp)
    9cd3:	75 08                	jne    9cdd <__pyx_pymod_exec_main+0x28b4>
    9cd5:	48 89 ef             	mov    %rbp,%rdi
    9cd8:	e8 73 a9 ff ff       	call   4650 <_Py_Dealloc@plt>
    9cdd:	31 ff                	xor    %edi,%edi
    9cdf:	48 89 7c 24 50       	mov    %rdi,0x50(%rsp)
    9ce4:	4c 89 ff             	mov    %r15,%rdi
    9ce7:	e8 5d 18 00 00       	call   b549 <__Pyx_PyObject_IsTrue>
    9cec:	89 c5                	mov    %eax,%ebp
    9cee:	85 c0                	test   %eax,%eax
    9cf0:	0f 88 88 0f 00 00    	js     ac7e <__pyx_pymod_exec_main+0x3855>
    9cf6:	49 8b 17             	mov    (%r15),%rdx
    9cf9:	85 d2                	test   %edx,%edx
    9cfb:	78 10                	js     9d0d <__pyx_pymod_exec_main+0x28e4>
    9cfd:	48 ff ca             	dec    %rdx
    9d00:	49 89 17             	mov    %rdx,(%r15)
    9d03:	75 08                	jne    9d0d <__pyx_pymod_exec_main+0x28e4>
    9d05:	4c 89 ff             	mov    %r15,%rdi
    9d08:	e8 43 a9 ff ff       	call   4650 <_Py_Dealloc@plt>
    9d0d:	31 f6                	xor    %esi,%esi
    9d0f:	48 89 74 24 30       	mov    %rsi,0x30(%rsp)
    9d14:	85 ed                	test   %ebp,%ebp
    9d16:	0f 84 ab 06 00 00    	je     a3c7 <__pyx_pymod_exec_main+0x2f9e>
    9d1c:	48 8b 3d cd e1 00 00 	mov    0xe1cd(%rip),%rdi        # 17ef0 <__pyx_mstate_global_static+0x290>
    9d23:	e8 5c 34 00 00       	call   d184 <__Pyx__GetModuleGlobalName>
    9d28:	48 89 44 24 50       	mov    %rax,0x50(%rsp)
    9d2d:	48 89 c5             	mov    %rax,%rbp
    9d30:	48 85 c0             	test   %rax,%rax
    9d33:	0f 84 5b 0f 00 00    	je     ac94 <__pyx_pymod_exec_main+0x386b>
    9d39:	4c 39 60 08          	cmp    %r12,0x8(%rax)
    9d3d:	75 5e                	jne    9d9d <__pyx_pymod_exec_main+0x2974>
    9d3f:	48 89 c7             	mov    %rax,%rdi
    9d42:	e8 a7 25 00 00       	call   c2ee <PyMethod_GET_SELF>
    9d47:	48 89 44 24 28       	mov    %rax,0x28(%rsp)
    9d4c:	49 89 c6             	mov    %rax,%r14
    9d4f:	48 85 c0             	test   %rax,%rax
    9d52:	74 49                	je     9d9d <__pyx_pymod_exec_main+0x2974>
    9d54:	48 89 ef             	mov    %rbp,%rdi
    9d57:	e8 c4 25 00 00       	call   c320 <PyMethod_GET_FUNCTION>
    9d5c:	49 89 c7             	mov    %rax,%r15
    9d5f:	41 8b 06             	mov    (%r14),%eax
    9d62:	ff c0                	inc    %eax
    9d64:	74 03                	je     9d69 <__pyx_pymod_exec_main+0x2940>
    9d66:	41 89 06             	mov    %eax,(%r14)
    9d69:	41 8b 07             	mov    (%r15),%eax
    9d6c:	ff c0                	inc    %eax
    9d6e:	74 03                	je     9d73 <__pyx_pymod_exec_main+0x294a>
    9d70:	41 89 07             	mov    %eax,(%r15)
    9d73:	48 8b 45 00          	mov    0x0(%rbp),%rax
    9d77:	4c 89 7c 24 50       	mov    %r15,0x50(%rsp)
    9d7c:	85 c0                	test   %eax,%eax
    9d7e:	79 0a                	jns    9d8a <__pyx_pymod_exec_main+0x2961>
    9d80:	4c 89 fd             	mov    %r15,%rbp
    9d83:	b8 01 00 00 00       	mov    $0x1,%eax
    9d88:	eb 18                	jmp    9da2 <__pyx_pymod_exec_main+0x2979>
    9d8a:	48 ff c8             	dec    %rax
    9d8d:	48 89 45 00          	mov    %rax,0x0(%rbp)
    9d91:	75 ed                	jne    9d80 <__pyx_pymod_exec_main+0x2957>
    9d93:	48 89 ef             	mov    %rbp,%rdi
    9d96:	e8 b5 a8 ff ff       	call   4650 <_Py_Dealloc@plt>
    9d9b:	eb e3                	jmp    9d80 <__pyx_pymod_exec_main+0x2957>
    9d9d:	45 31 f6             	xor    %r14d,%r14d
    9da0:	31 c0                	xor    %eax,%eax
    9da2:	31 d2                	xor    %edx,%edx
    9da4:	48 89 ef             	mov    %rbp,%rdi
    9da7:	4c 89 74 24 58       	mov    %r14,0x58(%rsp)
    9dac:	48 89 54 24 60       	mov    %rdx,0x60(%rsp)
    9db1:	48 63 d0             	movslq %eax,%rdx
    9db4:	83 f0 01             	xor    $0x1,%eax
    9db7:	48 98                	cltq
    9db9:	49 8d 74 c5 00       	lea    0x0(%r13,%rax,8),%rsi
    9dbe:	e8 d8 34 00 00       	call   d29b <__Pyx_PyObject_FastCallDict.constprop.0>
    9dc3:	4c 89 f7             	mov    %r14,%rdi
    9dc6:	48 89 44 24 30       	mov    %rax,0x30(%rsp)
    9dcb:	49 89 c7             	mov    %rax,%r15
    9dce:	e8 cb 18 00 00       	call   b69e <Py_XDECREF>
    9dd3:	31 c9                	xor    %ecx,%ecx
    9dd5:	48 89 4c 24 28       	mov    %rcx,0x28(%rsp)
    9dda:	4d 85 ff             	test   %r15,%r15
    9ddd:	75 18                	jne    9df7 <__pyx_pymod_exec_main+0x29ce>
    9ddf:	31 db                	xor    %ebx,%ebx
    9de1:	41 bc 9b 17 00 00    	mov    $0x179b,%r12d
    9de7:	41 bd 7a 00 00 00    	mov    $0x7a,%r13d
    9ded:	bd 01 00 00 00       	mov    $0x1,%ebp
    9df2:	e9 36 10 00 00       	jmp    ae2d <__pyx_pymod_exec_main+0x3a04>
    9df7:	48 8b 45 00          	mov    0x0(%rbp),%rax
    9dfb:	85 c0                	test   %eax,%eax
    9dfd:	78 11                	js     9e10 <__pyx_pymod_exec_main+0x29e7>
    9dff:	48 ff c8             	dec    %rax
    9e02:	48 89 45 00          	mov    %rax,0x0(%rbp)
    9e06:	75 08                	jne    9e10 <__pyx_pymod_exec_main+0x29e7>
    9e08:	48 89 ef             	mov    %rbp,%rdi
    9e0b:	e8 40 a8 ff ff       	call   4650 <_Py_Dealloc@plt>
    9e10:	31 c0                	xor    %eax,%eax
    9e12:	48 89 44 24 50       	mov    %rax,0x50(%rsp)
    9e17:	49 8b 07             	mov    (%r15),%rax
    9e1a:	85 c0                	test   %eax,%eax
    9e1c:	78 10                	js     9e2e <__pyx_pymod_exec_main+0x2a05>
    9e1e:	48 ff c8             	dec    %rax
    9e21:	49 89 07             	mov    %rax,(%r15)
    9e24:	75 08                	jne    9e2e <__pyx_pymod_exec_main+0x2a05>
    9e26:	4c 89 ff             	mov    %r15,%rdi
    9e29:	e8 22 a8 ff ff       	call   4650 <_Py_Dealloc@plt>
    9e2e:	48 8b 3d 93 df 00 00 	mov    0xdf93(%rip),%rdi        # 17dc8 <__pyx_mstate_global_static+0x168>
    9e35:	45 31 ff             	xor    %r15d,%r15d
    9e38:	4c 89 7c 24 30       	mov    %r15,0x30(%rsp)
    9e3d:	e8 42 33 00 00       	call   d184 <__Pyx__GetModuleGlobalName>
    9e42:	48 89 44 24 50       	mov    %rax,0x50(%rsp)
    9e47:	49 89 c6             	mov    %rax,%r14
    9e4a:	48 85 c0             	test   %rax,%rax
    9e4d:	0f 84 59 0e 00 00    	je     acac <__pyx_pymod_exec_main+0x3883>
    9e53:	48 8b 35 ee e0 00 00 	mov    0xe0ee(%rip),%rsi        # 17f48 <__pyx_mstate_global_static+0x2e8>
    9e5a:	48 89 c7             	mov    %rax,%rdi
    9e5d:	e8 1a 17 00 00       	call   b57c <__Pyx_PyObject_GetAttrStr>
    9e62:	48 89 44 24 28       	mov    %rax,0x28(%rsp)
    9e67:	48 89 c5             	mov    %rax,%rbp
    9e6a:	48 85 c0             	test   %rax,%rax
    9e6d:	0f 84 51 0e 00 00    	je     acc4 <__pyx_pymod_exec_main+0x389b>
    9e73:	49 8b 06             	mov    (%r14),%rax
    9e76:	85 c0                	test   %eax,%eax
    9e78:	78 10                	js     9e8a <__pyx_pymod_exec_main+0x2a61>
    9e7a:	48 ff c8             	dec    %rax
    9e7d:	49 89 06             	mov    %rax,(%r14)
    9e80:	75 08                	jne    9e8a <__pyx_pymod_exec_main+0x2a61>
    9e82:	4c 89 f7             	mov    %r14,%rdi
    9e85:	e8 c6 a7 ff ff       	call   4650 <_Py_Dealloc@plt>
    9e8a:	48 8b 3d a7 df 00 00 	mov    0xdfa7(%rip),%rdi        # 17e38 <__pyx_mstate_global_static+0x1d8>
    9e91:	e8 ee 32 00 00       	call   d184 <__Pyx__GetModuleGlobalName>
    9e96:	48 89 44 24 50       	mov    %rax,0x50(%rsp)
    9e9b:	49 89 c7             	mov    %rax,%r15
    9e9e:	48 85 c0             	test   %rax,%rax
    9ea1:	0f 84 35 0e 00 00    	je     acdc <__pyx_pymod_exec_main+0x38b3>
    9ea7:	48 8b 35 72 de 00 00 	mov    0xde72(%rip),%rsi        # 17d20 <__pyx_mstate_global_static+0xc0>
    9eae:	48 8d 05 8b cf 00 00 	lea    0xcf8b(%rip),%rax        # 16e40 <PyDict_Type@@Base>
    9eb5:	4c 89 ff             	mov    %r15,%rdi
    9eb8:	49 39 47 08          	cmp    %rax,0x8(%r15)
    9ebc:	75 07                	jne    9ec5 <__pyx_pymod_exec_main+0x2a9c>
    9ebe:	e8 31 26 00 00       	call   c4f4 <__Pyx_PyDict_GetItem>
    9ec3:	eb 05                	jmp    9eca <__pyx_pymod_exec_main+0x2aa1>
    9ec5:	e8 66 a3 ff ff       	call   4230 <PyObject_GetItem@plt>
    9eca:	49 89 c6             	mov    %rax,%r14
    9ecd:	48 85 c0             	test   %rax,%rax
    9ed0:	0f 84 1e 0e 00 00    	je     acf4 <__pyx_pymod_exec_main+0x38cb>
    9ed6:	49 8b 07             	mov    (%r15),%rax
    9ed9:	85 c0                	test   %eax,%eax
    9edb:	78 10                	js     9eed <__pyx_pymod_exec_main+0x2ac4>
    9edd:	48 ff c8             	dec    %rax
    9ee0:	49 89 07             	mov    %rax,(%r15)
    9ee3:	75 08                	jne    9eed <__pyx_pymod_exec_main+0x2ac4>
    9ee5:	4c 89 ff             	mov    %r15,%rdi
    9ee8:	e8 63 a7 ff ff       	call   4650 <_Py_Dealloc@plt>
    9eed:	48 8b 35 d4 e0 00 00 	mov    0xe0d4(%rip),%rsi        # 17fc8 <__pyx_mstate_global_static+0x368>
    9ef4:	4c 89 f7             	mov    %r14,%rdi
    9ef7:	e8 57 ad ff ff       	call   4c53 <__Pyx_PyFloat_TrueDivideObjC.constprop.0>
    9efc:	48 89 44 24 50       	mov    %rax,0x50(%rsp)
    9f01:	49 89 c7             	mov    %rax,%r15
    9f04:	48 85 c0             	test   %rax,%rax
    9f07:	0f 84 ff 0d 00 00    	je     ad0c <__pyx_pymod_exec_main+0x38e3>
    9f0d:	49 8b 06             	mov    (%r14),%rax
    9f10:	85 c0                	test   %eax,%eax
    9f12:	78 10                	js     9f24 <__pyx_pymod_exec_main+0x2afb>
    9f14:	48 ff c8             	dec    %rax
    9f17:	49 89 06             	mov    %rax,(%r14)
    9f1a:	75 08                	jne    9f24 <__pyx_pymod_exec_main+0x2afb>
    9f1c:	4c 89 f7             	mov    %r14,%rdi
    9f1f:	e8 2c a7 ff ff       	call   4650 <_Py_Dealloc@plt>
    9f24:	4c 39 65 08          	cmp    %r12,0x8(%rbp)
    9f28:	75 60                	jne    9f8a <__pyx_pymod_exec_main+0x2b61>
    9f2a:	48 89 ef             	mov    %rbp,%rdi
    9f2d:	e8 bc 23 00 00       	call   c2ee <PyMethod_GET_SELF>
    9f32:	49 89 c6             	mov    %rax,%r14
    9f35:	31 c0                	xor    %eax,%eax
    9f37:	4d 85 f6             	test   %r14,%r14
    9f3a:	74 53                	je     9f8f <__pyx_pymod_exec_main+0x2b66>
    9f3c:	48 89 ef             	mov    %rbp,%rdi
    9f3f:	e8 dc 23 00 00       	call   c320 <PyMethod_GET_FUNCTION>
    9f44:	41 8b 16             	mov    (%r14),%edx
    9f47:	ff c2                	inc    %edx
    9f49:	74 03                	je     9f4e <__pyx_pymod_exec_main+0x2b25>
    9f4b:	41 89 16             	mov    %edx,(%r14)
    9f4e:	8b 10                	mov    (%rax),%edx
    9f50:	ff c2                	inc    %edx
    9f52:	74 02                	je     9f56 <__pyx_pymod_exec_main+0x2b2d>
    9f54:	89 10                	mov    %edx,(%rax)
    9f56:	48 8b 55 00          	mov    0x0(%rbp),%rdx
    9f5a:	48 89 44 24 28       	mov    %rax,0x28(%rsp)
    9f5f:	85 d2                	test   %edx,%edx
    9f61:	79 0a                	jns    9f6d <__pyx_pymod_exec_main+0x2b44>
    9f63:	48 89 c5             	mov    %rax,%rbp
    9f66:	b8 01 00 00 00       	mov    $0x1,%eax
    9f6b:	eb 22                	jmp    9f8f <__pyx_pymod_exec_main+0x2b66>
    9f6d:	48 ff ca             	dec    %rdx
    9f70:	48 89 55 00          	mov    %rdx,0x0(%rbp)
    9f74:	75 ed                	jne    9f63 <__pyx_pymod_exec_main+0x2b3a>
    9f76:	48 89 ef             	mov    %rbp,%rdi
    9f79:	48 89 44 24 08       	mov    %rax,0x8(%rsp)
    9f7e:	e8 cd a6 ff ff       	call   4650 <_Py_Dealloc@plt>
    9f83:	48 8b 44 24 08       	mov    0x8(%rsp),%rax
    9f88:	eb d9                	jmp    9f63 <__pyx_pymod_exec_main+0x2b3a>
    9f8a:	45 31 f6             	xor    %r14d,%r14d
    9f8d:	31 c0                	xor    %eax,%eax
    9f8f:	48 8b 15 3a df 00 00 	mov    0xdf3a(%rip),%rdx        # 17ed0 <__pyx_mstate_global_static+0x270>
    9f96:	48 89 ef             	mov    %rbp,%rdi
    9f99:	4c 89 74 24 58       	mov    %r14,0x58(%rsp)
    9f9e:	4c 89 7c 24 68       	mov    %r15,0x68(%rsp)
    9fa3:	48 89 54 24 60       	mov    %rdx,0x60(%rsp)
    9fa8:	8d 50 02             	lea    0x2(%rax),%edx
    9fab:	83 f0 01             	xor    $0x1,%eax
    9fae:	48 98                	cltq
    9fb0:	48 63 d2             	movslq %edx,%rdx
    9fb3:	49 8d 74 c5 00       	lea    0x0(%r13,%rax,8),%rsi
    9fb8:	e8 de 32 00 00       	call   d29b <__Pyx_PyObject_FastCallDict.constprop.0>
    9fbd:	4c 89 f7             	mov    %r14,%rdi
    9fc0:	48 89 44 24 30       	mov    %rax,0x30(%rsp)
    9fc5:	49 89 c5             	mov    %rax,%r13
    9fc8:	e8 d1 16 00 00       	call   b69e <Py_XDECREF>
    9fcd:	49 8b 07             	mov    (%r15),%rax
    9fd0:	85 c0                	test   %eax,%eax
    9fd2:	78 10                	js     9fe4 <__pyx_pymod_exec_main+0x2bbb>
    9fd4:	48 ff c8             	dec    %rax
    9fd7:	49 89 07             	mov    %rax,(%r15)
    9fda:	75 08                	jne    9fe4 <__pyx_pymod_exec_main+0x2bbb>
    9fdc:	4c 89 ff             	mov    %r15,%rdi
    9fdf:	e8 6c a6 ff ff       	call   4650 <_Py_Dealloc@plt>
    9fe4:	45 31 f6             	xor    %r14d,%r14d
    9fe7:	4c 89 74 24 50       	mov    %r14,0x50(%rsp)
    9fec:	4d 85 ed             	test   %r13,%r13
    9fef:	75 18                	jne    a009 <__pyx_pymod_exec_main+0x2be0>
    9ff1:	31 db                	xor    %ebx,%ebx
    9ff3:	41 bc c8 17 00 00    	mov    $0x17c8,%r12d
    9ff9:	41 bd 7e 00 00 00    	mov    $0x7e,%r13d
    9fff:	bd 01 00 00 00       	mov    $0x1,%ebp
    a004:	e9 24 0e 00 00       	jmp    ae2d <__pyx_pymod_exec_main+0x3a04>
    a009:	48 8b 45 00          	mov    0x0(%rbp),%rax
    a00d:	85 c0                	test   %eax,%eax
    a00f:	78 11                	js     a022 <__pyx_pymod_exec_main+0x2bf9>
    a011:	48 ff c8             	dec    %rax
    a014:	48 89 45 00          	mov    %rax,0x0(%rbp)
    a018:	75 08                	jne    a022 <__pyx_pymod_exec_main+0x2bf9>
    a01a:	48 89 ef             	mov    %rbp,%rdi
    a01d:	e8 2e a6 ff ff       	call   4650 <_Py_Dealloc@plt>
    a022:	49 8b 45 00          	mov    0x0(%r13),%rax
    a026:	31 ed                	xor    %ebp,%ebp
    a028:	48 89 6c 24 28       	mov    %rbp,0x28(%rsp)
    a02d:	85 c0                	test   %eax,%eax
    a02f:	78 11                	js     a042 <__pyx_pymod_exec_main+0x2c19>
    a031:	48 ff c8             	dec    %rax
    a034:	49 89 45 00          	mov    %rax,0x0(%r13)
    a038:	75 08                	jne    a042 <__pyx_pymod_exec_main+0x2c19>
    a03a:	4c 89 ef             	mov    %r13,%rdi
    a03d:	e8 0e a6 ff ff       	call   4650 <_Py_Dealloc@plt>
    a042:	48 8b 3d 7f dd 00 00 	mov    0xdd7f(%rip),%rdi        # 17dc8 <__pyx_mstate_global_static+0x168>
    a049:	45 31 db             	xor    %r11d,%r11d
    a04c:	4c 89 5c 24 30       	mov    %r11,0x30(%rsp)
    a051:	e8 2e 31 00 00       	call   d184 <__Pyx__GetModuleGlobalName>
    a056:	48 89 44 24 28       	mov    %rax,0x28(%rsp)
    a05b:	49 89 c5             	mov    %rax,%r13
    a05e:	48 85 c0             	test   %rax,%rax
    a061:	0f 84 be 0c 00 00    	je     ad25 <__pyx_pymod_exec_main+0x38fc>
    a067:	48 8b 35 da de 00 00 	mov    0xdeda(%rip),%rsi        # 17f48 <__pyx_mstate_global_static+0x2e8>
    a06e:	48 89 c7             	mov    %rax,%rdi
    a071:	e8 06 15 00 00       	call   b57c <__Pyx_PyObject_GetAttrStr>
    a076:	48 89 44 24 50       	mov    %rax,0x50(%rsp)
    a07b:	48 89 c5             	mov    %rax,%rbp
    a07e:	48 85 c0             	test   %rax,%rax
    a081:	0f 84 b6 0c 00 00    	je     ad3d <__pyx_pymod_exec_main+0x3914>
    a087:	49 8b 45 00          	mov    0x0(%r13),%rax
    a08b:	85 c0                	test   %eax,%eax
    a08d:	78 11                	js     a0a0 <__pyx_pymod_exec_main+0x2c77>
    a08f:	48 ff c8             	dec    %rax
    a092:	49 89 45 00          	mov    %rax,0x0(%r13)
    a096:	75 08                	jne    a0a0 <__pyx_pymod_exec_main+0x2c77>
    a098:	4c 89 ef             	mov    %r13,%rdi
    a09b:	e8 b0 a5 ff ff       	call   4650 <_Py_Dealloc@plt>
    a0a0:	48 8b 3d 91 dd 00 00 	mov    0xdd91(%rip),%rdi        # 17e38 <__pyx_mstate_global_static+0x1d8>
    a0a7:	e8 d8 30 00 00       	call   d184 <__Pyx__GetModuleGlobalName>
    a0ac:	48 89 44 24 28       	mov    %rax,0x28(%rsp)
    a0b1:	49 89 c7             	mov    %rax,%r15
    a0b4:	48 85 c0             	test   %rax,%rax
    a0b7:	0f 84 98 0c 00 00    	je     ad55 <__pyx_pymod_exec_main+0x392c>
    a0bd:	48 8b 35 6c dc 00 00 	mov    0xdc6c(%rip),%rsi        # 17d30 <__pyx_mstate_global_static+0xd0>
    a0c4:	48 8d 05 75 cd 00 00 	lea    0xcd75(%rip),%rax        # 16e40 <PyDict_Type@@Base>
    a0cb:	4c 89 ff             	mov    %r15,%rdi
    a0ce:	49 39 47 08          	cmp    %rax,0x8(%r15)
    a0d2:	75 07                	jne    a0db <__pyx_pymod_exec_main+0x2cb2>
    a0d4:	e8 1b 24 00 00       	call   c4f4 <__Pyx_PyDict_GetItem>
    a0d9:	eb 05                	jmp    a0e0 <__pyx_pymod_exec_main+0x2cb7>
    a0db:	e8 50 a1 ff ff       	call   4230 <PyObject_GetItem@plt>
    a0e0:	49 89 c5             	mov    %rax,%r13
    a0e3:	48 85 c0             	test   %rax,%rax
    a0e6:	0f 84 81 0c 00 00    	je     ad6d <__pyx_pymod_exec_main+0x3944>
    a0ec:	49 8b 07             	mov    (%r15),%rax
    a0ef:	85 c0                	test   %eax,%eax
    a0f1:	78 10                	js     a103 <__pyx_pymod_exec_main+0x2cda>
    a0f3:	48 ff c8             	dec    %rax
    a0f6:	49 89 07             	mov    %rax,(%r15)
    a0f9:	75 08                	jne    a103 <__pyx_pymod_exec_main+0x2cda>
    a0fb:	4c 89 ff             	mov    %r15,%rdi
    a0fe:	e8 4d a5 ff ff       	call   4650 <_Py_Dealloc@plt>
    a103:	48 8b 35 be de 00 00 	mov    0xdebe(%rip),%rsi        # 17fc8 <__pyx_mstate_global_static+0x368>
    a10a:	4c 89 ef             	mov    %r13,%rdi
    a10d:	e8 41 ab ff ff       	call   4c53 <__Pyx_PyFloat_TrueDivideObjC.constprop.0>
    a112:	48 89 44 24 28       	mov    %rax,0x28(%rsp)
    a117:	49 89 c7             	mov    %rax,%r15
    a11a:	48 85 c0             	test   %rax,%rax
    a11d:	0f 84 62 0c 00 00    	je     ad85 <__pyx_pymod_exec_main+0x395c>
    a123:	49 8b 45 00          	mov    0x0(%r13),%rax
    a127:	85 c0                	test   %eax,%eax
    a129:	78 11                	js     a13c <__pyx_pymod_exec_main+0x2d13>
    a12b:	48 ff c8             	dec    %rax
    a12e:	49 89 45 00          	mov    %rax,0x0(%r13)
    a132:	75 08                	jne    a13c <__pyx_pymod_exec_main+0x2d13>
    a134:	4c 89 ef             	mov    %r13,%rdi
    a137:	e8 14 a5 ff ff       	call   4650 <_Py_Dealloc@plt>
    a13c:	4c 39 65 08          	cmp    %r12,0x8(%rbp)
    a140:	75 5d                	jne    a19f <__pyx_pymod_exec_main+0x2d76>
    a142:	48 89 ef             	mov    %rbp,%rdi
    a145:	e8 a4 21 00 00       	call   c2ee <PyMethod_GET_SELF>
    a14a:	49 89 c6             	mov    %rax,%r14
    a14d:	31 c0                	xor    %eax,%eax
    a14f:	4d 85 f6             	test   %r14,%r14
    a152:	74 50                	je     a1a4 <__pyx_pymod_exec_main+0x2d7b>
    a154:	48 89 ef             	mov    %rbp,%rdi
    a157:	e8 c4 21 00 00       	call   c320 <PyMethod_GET_FUNCTION>
    a15c:	49 89 c5             	mov    %rax,%r13
    a15f:	41 8b 06             	mov    (%r14),%eax
    a162:	ff c0                	inc    %eax
    a164:	74 03                	je     a169 <__pyx_pymod_exec_main+0x2d40>
    a166:	41 89 06             	mov    %eax,(%r14)
    a169:	41 8b 45 00          	mov    0x0(%r13),%eax
    a16d:	ff c0                	inc    %eax
    a16f:	74 04                	je     a175 <__pyx_pymod_exec_main+0x2d4c>
    a171:	41 89 45 00          	mov    %eax,0x0(%r13)
    a175:	48 8b 45 00          	mov    0x0(%rbp),%rax
    a179:	4c 89 6c 24 50       	mov    %r13,0x50(%rsp)
    a17e:	85 c0                	test   %eax,%eax
    a180:	79 0a                	jns    a18c <__pyx_pymod_exec_main+0x2d63>
    a182:	4c 89 ed             	mov    %r13,%rbp
    a185:	b8 01 00 00 00       	mov    $0x1,%eax
    a18a:	eb 18                	jmp    a1a4 <__pyx_pymod_exec_main+0x2d7b>
    a18c:	48 ff c8             	dec    %rax
    a18f:	48 89 45 00          	mov    %rax,0x0(%rbp)
    a193:	75 ed                	jne    a182 <__pyx_pymod_exec_main+0x2d59>
    a195:	48 89 ef             	mov    %rbp,%rdi
    a198:	e8 b3 a4 ff ff       	call   4650 <_Py_Dealloc@plt>
    a19d:	eb e3                	jmp    a182 <__pyx_pymod_exec_main+0x2d59>
    a19f:	45 31 f6             	xor    %r14d,%r14d
    a1a2:	31 c0                	xor    %eax,%eax
    a1a4:	48 8b 15 2d dd 00 00 	mov    0xdd2d(%rip),%rdx        # 17ed8 <__pyx_mstate_global_static+0x278>
    a1ab:	48 8d 4c 24 58       	lea    0x58(%rsp),%rcx
    a1b0:	48 89 ef             	mov    %rbp,%rdi
    a1b3:	4c 89 74 24 58       	mov    %r14,0x58(%rsp)
    a1b8:	48 89 4c 24 08       	mov    %rcx,0x8(%rsp)
    a1bd:	48 89 54 24 60       	mov    %rdx,0x60(%rsp)
    a1c2:	8d 50 02             	lea    0x2(%rax),%edx
    a1c5:	83 f0 01             	xor    $0x1,%eax
    a1c8:	48 98                	cltq
    a1ca:	48 63 d2             	movslq %edx,%rdx
    a1cd:	4c 89 7c 24 68       	mov    %r15,0x68(%rsp)
    a1d2:	48 8d 34 c1          	lea    (%rcx,%rax,8),%rsi
    a1d6:	e8 c0 30 00 00       	call   d29b <__Pyx_PyObject_FastCallDict.constprop.0>
    a1db:	4c 89 f7             	mov    %r14,%rdi
    a1de:	48 89 44 24 30       	mov    %rax,0x30(%rsp)
    a1e3:	49 89 c5             	mov    %rax,%r13
    a1e6:	e8 b3 14 00 00       	call   b69e <Py_XDECREF>
    a1eb:	49 8b 07             	mov    (%r15),%rax
    a1ee:	85 c0                	test   %eax,%eax
    a1f0:	78 10                	js     a202 <__pyx_pymod_exec_main+0x2dd9>
    a1f2:	48 ff c8             	dec    %rax
    a1f5:	49 89 07             	mov    %rax,(%r15)
    a1f8:	75 08                	jne    a202 <__pyx_pymod_exec_main+0x2dd9>
    a1fa:	4c 89 ff             	mov    %r15,%rdi
    a1fd:	e8 4e a4 ff ff       	call   4650 <_Py_Dealloc@plt>
    a202:	45 31 d2             	xor    %r10d,%r10d
    a205:	4c 89 54 24 28       	mov    %r10,0x28(%rsp)
    a20a:	4d 85 ed             	test   %r13,%r13
    a20d:	75 18                	jne    a227 <__pyx_pymod_exec_main+0x2dfe>
    a20f:	31 db                	xor    %ebx,%ebx
    a211:	41 bc f5 17 00 00    	mov    $0x17f5,%r12d
    a217:	41 bd 7f 00 00 00    	mov    $0x7f,%r13d
    a21d:	bd 01 00 00 00       	mov    $0x1,%ebp
    a222:	e9 06 0c 00 00       	jmp    ae2d <__pyx_pymod_exec_main+0x3a04>
    a227:	48 8b 45 00          	mov    0x0(%rbp),%rax
    a22b:	85 c0                	test   %eax,%eax
    a22d:	78 11                	js     a240 <__pyx_pymod_exec_main+0x2e17>
    a22f:	48 ff c8             	dec    %rax
    a232:	48 89 45 00          	mov    %rax,0x0(%rbp)
    a236:	75 08                	jne    a240 <__pyx_pymod_exec_main+0x2e17>
    a238:	48 89 ef             	mov    %rbp,%rdi
    a23b:	e8 10 a4 ff ff       	call   4650 <_Py_Dealloc@plt>
    a240:	49 8b 45 00          	mov    0x0(%r13),%rax
    a244:	45 31 c9             	xor    %r9d,%r9d
    a247:	4c 89 4c 24 50       	mov    %r9,0x50(%rsp)
    a24c:	85 c0                	test   %eax,%eax
    a24e:	78 11                	js     a261 <__pyx_pymod_exec_main+0x2e38>
    a250:	48 ff c8             	dec    %rax
    a253:	49 89 45 00          	mov    %rax,0x0(%r13)
    a257:	75 08                	jne    a261 <__pyx_pymod_exec_main+0x2e38>
    a259:	4c 89 ef             	mov    %r13,%rdi
    a25c:	e8 ef a3 ff ff       	call   4650 <_Py_Dealloc@plt>
    a261:	48 8b 3d 60 db 00 00 	mov    0xdb60(%rip),%rdi        # 17dc8 <__pyx_mstate_global_static+0x168>
    a268:	45 31 c0             	xor    %r8d,%r8d
    a26b:	4c 89 44 24 30       	mov    %r8,0x30(%rsp)
    a270:	e8 0f 2f 00 00       	call   d184 <__Pyx__GetModuleGlobalName>
    a275:	48 89 44 24 50       	mov    %rax,0x50(%rsp)
    a27a:	49 89 c5             	mov    %rax,%r13
    a27d:	48 85 c0             	test   %rax,%rax
    a280:	0f 84 18 0b 00 00    	je     ad9e <__pyx_pymod_exec_main+0x3975>
    a286:	48 8b 35 83 dc 00 00 	mov    0xdc83(%rip),%rsi        # 17f10 <__pyx_mstate_global_static+0x2b0>
    a28d:	48 89 c7             	mov    %rax,%rdi
    a290:	e8 e7 12 00 00       	call   b57c <__Pyx_PyObject_GetAttrStr>
    a295:	48 89 44 24 28       	mov    %rax,0x28(%rsp)
    a29a:	48 89 c5             	mov    %rax,%rbp
    a29d:	48 85 c0             	test   %rax,%rax
    a2a0:	0f 84 0d 0b 00 00    	je     adb3 <__pyx_pymod_exec_main+0x398a>
    a2a6:	49 8b 45 00          	mov    0x0(%r13),%rax
    a2aa:	85 c0                	test   %eax,%eax
    a2ac:	78 11                	js     a2bf <__pyx_pymod_exec_main+0x2e96>
    a2ae:	48 ff c8             	dec    %rax
    a2b1:	49 89 45 00          	mov    %rax,0x0(%r13)
    a2b5:	75 08                	jne    a2bf <__pyx_pymod_exec_main+0x2e96>
    a2b7:	4c 89 ef             	mov    %r13,%rdi
    a2ba:	e8 91 a3 ff ff       	call   4650 <_Py_Dealloc@plt>
    a2bf:	4c 39 65 08          	cmp    %r12,0x8(%rbp)
    a2c3:	75 60                	jne    a325 <__pyx_pymod_exec_main+0x2efc>
    a2c5:	48 89 ef             	mov    %rbp,%rdi
    a2c8:	e8 21 20 00 00       	call   c2ee <PyMethod_GET_SELF>
    a2cd:	48 89 44 24 50       	mov    %rax,0x50(%rsp)
    a2d2:	49 89 c5             	mov    %rax,%r13
    a2d5:	48 85 c0             	test   %rax,%rax
    a2d8:	74 4b                	je     a325 <__pyx_pymod_exec_main+0x2efc>
    a2da:	48 89 ef             	mov    %rbp,%rdi
    a2dd:	e8 3e 20 00 00       	call   c320 <PyMethod_GET_FUNCTION>
    a2e2:	49 89 c7             	mov    %rax,%r15
    a2e5:	41 8b 45 00          	mov    0x0(%r13),%eax
    a2e9:	ff c0                	inc    %eax
    a2eb:	74 04                	je     a2f1 <__pyx_pymod_exec_main+0x2ec8>
    a2ed:	41 89 45 00          	mov    %eax,0x0(%r13)
    a2f1:	41 8b 07             	mov    (%r15),%eax
    a2f4:	ff c0                	inc    %eax
    a2f6:	74 03                	je     a2fb <__pyx_pymod_exec_main+0x2ed2>
    a2f8:	41 89 07             	mov    %eax,(%r15)
    a2fb:	48 8b 45 00          	mov    0x0(%rbp),%rax
    a2ff:	4c 89 7c 24 28       	mov    %r15,0x28(%rsp)
    a304:	85 c0                	test   %eax,%eax
    a306:	79 0a                	jns    a312 <__pyx_pymod_exec_main+0x2ee9>
    a308:	4c 89 fd             	mov    %r15,%rbp
    a30b:	b8 01 00 00 00       	mov    $0x1,%eax
    a310:	eb 18                	jmp    a32a <__pyx_pymod_exec_main+0x2f01>
    a312:	48 ff c8             	dec    %rax
    a315:	48 89 45 00          	mov    %rax,0x0(%rbp)
    a319:	75 ed                	jne    a308 <__pyx_pymod_exec_main+0x2edf>
    a31b:	48 89 ef             	mov    %rbp,%rdi
    a31e:	e8 2d a3 ff ff       	call   4650 <_Py_Dealloc@plt>
    a323:	eb e3                	jmp    a308 <__pyx_pymod_exec_main+0x2edf>
    a325:	45 31 ed             	xor    %r13d,%r13d
    a328:	31 c0                	xor    %eax,%eax
    a32a:	48 8b 4c 24 08       	mov    0x8(%rsp),%rcx
    a32f:	48 63 d0             	movslq %eax,%rdx
    a332:	83 f0 01             	xor    $0x1,%eax
    a335:	31 f6                	xor    %esi,%esi
    a337:	48 98                	cltq
    a339:	48 89 74 24 60       	mov    %rsi,0x60(%rsp)
    a33e:	48 89 ef             	mov    %rbp,%rdi
    a341:	48 8d 34 c1          	lea    (%rcx,%rax,8),%rsi
    a345:	4c 89 6c 24 58       	mov    %r13,0x58(%rsp)
    a34a:	e8 4c 2f 00 00       	call   d29b <__Pyx_PyObject_FastCallDict.constprop.0>
    a34f:	4c 89 ef             	mov    %r13,%rdi
    a352:	48 89 44 24 30       	mov    %rax,0x30(%rsp)
    a357:	49 89 c6             	mov    %rax,%r14
    a35a:	e8 3f 13 00 00       	call   b69e <Py_XDECREF>
    a35f:	31 ff                	xor    %edi,%edi
    a361:	48 89 7c 24 50       	mov    %rdi,0x50(%rsp)
    a366:	4d 85 f6             	test   %r14,%r14
    a369:	75 18                	jne    a383 <__pyx_pymod_exec_main+0x2f5a>
    a36b:	31 db                	xor    %ebx,%ebx
    a36d:	41 bc 19 18 00 00    	mov    $0x1819,%r12d
    a373:	41 bd 80 00 00 00    	mov    $0x80,%r13d
    a379:	bd 01 00 00 00       	mov    $0x1,%ebp
    a37e:	e9 aa 0a 00 00       	jmp    ae2d <__pyx_pymod_exec_main+0x3a04>
    a383:	48 8b 45 00          	mov    0x0(%rbp),%rax
    a387:	85 c0                	test   %eax,%eax
    a389:	78 11                	js     a39c <__pyx_pymod_exec_main+0x2f73>
    a38b:	48 ff c8             	dec    %rax
    a38e:	48 89 45 00          	mov    %rax,0x0(%rbp)
    a392:	75 08                	jne    a39c <__pyx_pymod_exec_main+0x2f73>
    a394:	48 89 ef             	mov    %rbp,%rdi
    a397:	e8 b4 a2 ff ff       	call   4650 <_Py_Dealloc@plt>
    a39c:	49 8b 06             	mov    (%r14),%rax
    a39f:	31 c9                	xor    %ecx,%ecx
    a3a1:	48 89 4c 24 28       	mov    %rcx,0x28(%rsp)
    a3a6:	85 c0                	test   %eax,%eax
    a3a8:	0f 88 f1 f7 ff ff    	js     9b9f <__pyx_pymod_exec_main+0x2776>
    a3ae:	48 ff c8             	dec    %rax
    a3b1:	49 89 06             	mov    %rax,(%r14)
    a3b4:	0f 85 e5 f7 ff ff    	jne    9b9f <__pyx_pymod_exec_main+0x2776>
    a3ba:	4c 89 f7             	mov    %r14,%rdi
    a3bd:	e8 8e a2 ff ff       	call   4650 <_Py_Dealloc@plt>
    a3c2:	e9 d8 f7 ff ff       	jmp    9b9f <__pyx_pymod_exec_main+0x2776>
    a3c7:	48 8b 3d fa d9 00 00 	mov    0xd9fa(%rip),%rdi        # 17dc8 <__pyx_mstate_global_static+0x168>
    a3ce:	e8 b1 2d 00 00       	call   d184 <__Pyx__GetModuleGlobalName>
    a3d3:	48 89 44 24 30       	mov    %rax,0x30(%rsp)
    a3d8:	49 89 c4             	mov    %rax,%r12
    a3db:	48 85 c0             	test   %rax,%rax
    a3de:	0f 84 e4 09 00 00    	je     adc8 <__pyx_pymod_exec_main+0x399f>
    a3e4:	48 8b 35 cd d9 00 00 	mov    0xd9cd(%rip),%rsi        # 17db8 <__pyx_mstate_global_static+0x158>
    a3eb:	48 89 c7             	mov    %rax,%rdi
    a3ee:	e8 89 11 00 00       	call   b57c <__Pyx_PyObject_GetAttrStr>
    a3f3:	48 89 44 24 28       	mov    %rax,0x28(%rsp)
    a3f8:	48 89 c5             	mov    %rax,%rbp
    a3fb:	48 85 c0             	test   %rax,%rax
    a3fe:	0f 84 d9 09 00 00    	je     addd <__pyx_pymod_exec_main+0x39b4>
    a404:	49 8b 04 24          	mov    (%r12),%rax
    a408:	85 c0                	test   %eax,%eax
    a40a:	78 11                	js     a41d <__pyx_pymod_exec_main+0x2ff4>
    a40c:	48 ff c8             	dec    %rax
    a40f:	49 89 04 24          	mov    %rax,(%r12)
    a413:	75 08                	jne    a41d <__pyx_pymod_exec_main+0x2ff4>
    a415:	4c 89 e7             	mov    %r12,%rdi
    a418:	e8 33 a2 ff ff       	call   4650 <_Py_Dealloc@plt>
    a41d:	48 89 ef             	mov    %rbp,%rdi
    a420:	e8 8e c9 ff ff       	call   6db3 <__Pyx_PyObject_CallNoArg>
    a425:	48 89 44 24 30       	mov    %rax,0x30(%rsp)
    a42a:	49 89 c4             	mov    %rax,%r12
    a42d:	48 85 c0             	test   %rax,%rax
    a430:	0f 84 bc 09 00 00    	je     adf2 <__pyx_pymod_exec_main+0x39c9>
    a436:	48 8b 45 00          	mov    0x0(%rbp),%rax
    a43a:	85 c0                	test   %eax,%eax
    a43c:	78 11                	js     a44f <__pyx_pymod_exec_main+0x3026>
    a43e:	48 ff c8             	dec    %rax
    a441:	48 89 45 00          	mov    %rax,0x0(%rbp)
    a445:	75 08                	jne    a44f <__pyx_pymod_exec_main+0x3026>
    a447:	48 89 ef             	mov    %rbp,%rdi
    a44a:	e8 01 a2 ff ff       	call   4650 <_Py_Dealloc@plt>
    a44f:	49 8b 04 24          	mov    (%r12),%rax
    a453:	31 d2                	xor    %edx,%edx
    a455:	48 89 54 24 28       	mov    %rdx,0x28(%rsp)
    a45a:	85 c0                	test   %eax,%eax
    a45c:	78 11                	js     a46f <__pyx_pymod_exec_main+0x3046>
    a45e:	48 ff c8             	dec    %rax
    a461:	49 89 04 24          	mov    %rax,(%r12)
    a465:	75 08                	jne    a46f <__pyx_pymod_exec_main+0x3046>
    a467:	4c 89 e7             	mov    %r12,%rdi
    a46a:	e8 e1 a1 ff ff       	call   4650 <_Py_Dealloc@plt>
    a46f:	e8 5c a3 ff ff       	call   47d0 <PyDict_New@plt>
    a474:	48 89 44 24 30       	mov    %rax,0x30(%rsp)
    a479:	48 89 c5             	mov    %rax,%rbp
    a47c:	48 85 c0             	test   %rax,%rax
    a47f:	0f 84 82 09 00 00    	je     ae07 <__pyx_pymod_exec_main+0x39de>
    a485:	48 8b 35 e4 da 00 00 	mov    0xdae4(%rip),%rsi        # 17f70 <__pyx_mstate_global_static+0x310>
    a48c:	48 8b 3d cd d7 00 00 	mov    0xd7cd(%rip),%rdi        # 17c60 <__pyx_mstate_global_static>
    a493:	48 89 c2             	mov    %rax,%rdx
    a496:	e8 15 a3 ff ff       	call   47b0 <PyDict_SetItem@plt>
    a49b:	85 c0                	test   %eax,%eax
    a49d:	0f 88 79 09 00 00    	js     ae1c <__pyx_pymod_exec_main+0x39f3>
    a4a3:	48 8b 45 00          	mov    0x0(%rbp),%rax
    a4a7:	85 c0                	test   %eax,%eax
    a4a9:	0f 88 1d 0a 00 00    	js     aecc <__pyx_pymod_exec_main+0x3aa3>
    a4af:	48 ff c8             	dec    %rax
    a4b2:	48 89 ef             	mov    %rbp,%rdi
    a4b5:	48 89 45 00          	mov    %rax,0x0(%rbp)
    a4b9:	0f 85 0d 0a 00 00    	jne    aecc <__pyx_pymod_exec_main+0x3aa3>
    a4bf:	e9 e4 09 00 00       	jmp    aea8 <__pyx_pymod_exec_main+0x3a7f>
    a4c4:	41 bd 5c 00 00 00    	mov    $0x5c,%r13d
    a4ca:	bd 01 00 00 00       	mov    $0x1,%ebp
    a4cf:	e9 59 09 00 00       	jmp    ae2d <__pyx_pymod_exec_main+0x3a04>
    a4d4:	31 db                	xor    %ebx,%ebx
    a4d6:	41 bc 65 14 00 00    	mov    $0x1465,%r12d
    a4dc:	41 bd 01 00 00 00    	mov    $0x1,%r13d
    a4e2:	31 ed                	xor    %ebp,%ebp
    a4e4:	e9 44 09 00 00       	jmp    ae2d <__pyx_pymod_exec_main+0x3a04>
    a4e9:	31 db                	xor    %ebx,%ebx
    a4eb:	41 bc 67 14 00 00    	mov    $0x1467,%r12d
    a4f1:	41 bd 01 00 00 00    	mov    $0x1,%r13d
    a4f7:	31 ed                	xor    %ebp,%ebp
    a4f9:	e9 2f 09 00 00       	jmp    ae2d <__pyx_pymod_exec_main+0x3a04>
    a4fe:	31 db                	xor    %ebx,%ebx
    a500:	41 bc 68 14 00 00    	mov    $0x1468,%r12d
    a506:	41 bd 01 00 00 00    	mov    $0x1,%r13d
    a50c:	31 ed                	xor    %ebp,%ebp
    a50e:	e9 1a 09 00 00       	jmp    ae2d <__pyx_pymod_exec_main+0x3a04>
    a513:	41 bc 69 14 00 00    	mov    $0x1469,%r12d
    a519:	41 bd 01 00 00 00    	mov    $0x1,%r13d
    a51f:	31 ed                	xor    %ebp,%ebp
    a521:	e9 07 09 00 00       	jmp    ae2d <__pyx_pymod_exec_main+0x3a04>
    a526:	31 db                	xor    %ebx,%ebx
    a528:	41 bc 78 14 00 00    	mov    $0x1478,%r12d
    a52e:	41 bd 01 00 00 00    	mov    $0x1,%r13d
    a534:	31 ed                	xor    %ebp,%ebp
    a536:	e9 f2 08 00 00       	jmp    ae2d <__pyx_pymod_exec_main+0x3a04>
    a53b:	31 db                	xor    %ebx,%ebx
    a53d:	41 bc 79 14 00 00    	mov    $0x1479,%r12d
    a543:	41 bd 01 00 00 00    	mov    $0x1,%r13d
    a549:	31 ed                	xor    %ebp,%ebp
    a54b:	e9 dd 08 00 00       	jmp    ae2d <__pyx_pymod_exec_main+0x3a04>
    a550:	31 db                	xor    %ebx,%ebx
    a552:	41 bc 7a 14 00 00    	mov    $0x147a,%r12d
    a558:	41 bd 01 00 00 00    	mov    $0x1,%r13d
    a55e:	31 ed                	xor    %ebp,%ebp
    a560:	e9 c8 08 00 00       	jmp    ae2d <__pyx_pymod_exec_main+0x3a04>
    a565:	31 db                	xor    %ebx,%ebx
    a567:	41 bc 7c 14 00 00    	mov    $0x147c,%r12d
    a56d:	41 bd 01 00 00 00    	mov    $0x1,%r13d
    a573:	31 ed                	xor    %ebp,%ebp
    a575:	e9 b3 08 00 00       	jmp    ae2d <__pyx_pymod_exec_main+0x3a04>
    a57a:	31 db                	xor    %ebx,%ebx
    a57c:	41 bc 9e 14 00 00    	mov    $0x149e,%r12d
    a582:	41 bd 01 00 00 00    	mov    $0x1,%r13d
    a588:	bd 01 00 00 00       	mov    $0x1,%ebp
    a58d:	e9 9b 08 00 00       	jmp    ae2d <__pyx_pymod_exec_main+0x3a04>
    a592:	31 db                	xor    %ebx,%ebx
    a594:	41 bc a5 14 00 00    	mov    $0x14a5,%r12d
    a59a:	41 bd 01 00 00 00    	mov    $0x1,%r13d
    a5a0:	bd 01 00 00 00       	mov    $0x1,%ebp
    a5a5:	e9 83 08 00 00       	jmp    ae2d <__pyx_pymod_exec_main+0x3a04>
    a5aa:	31 db                	xor    %ebx,%ebx
    a5ac:	41 bc a7 14 00 00    	mov    $0x14a7,%r12d
    a5b2:	41 bd 01 00 00 00    	mov    $0x1,%r13d
    a5b8:	bd 01 00 00 00       	mov    $0x1,%ebp
    a5bd:	e9 6b 08 00 00       	jmp    ae2d <__pyx_pymod_exec_main+0x3a04>
    a5c2:	31 db                	xor    %ebx,%ebx
    a5c4:	41 bc ba 14 00 00    	mov    $0x14ba,%r12d
    a5ca:	41 bd 01 00 00 00    	mov    $0x1,%r13d
    a5d0:	bd 01 00 00 00       	mov    $0x1,%ebp
    a5d5:	e9 53 08 00 00       	jmp    ae2d <__pyx_pymod_exec_main+0x3a04>
    a5da:	48 89 eb             	mov    %rbp,%rbx
    a5dd:	41 bc bc 14 00 00    	mov    $0x14bc,%r12d
    a5e3:	41 bd 01 00 00 00    	mov    $0x1,%r13d
    a5e9:	bd 01 00 00 00       	mov    $0x1,%ebp
    a5ee:	e9 3a 08 00 00       	jmp    ae2d <__pyx_pymod_exec_main+0x3a04>
    a5f3:	31 db                	xor    %ebx,%ebx
    a5f5:	41 bc c5 14 00 00    	mov    $0x14c5,%r12d
    a5fb:	41 bd 02 00 00 00    	mov    $0x2,%r13d
    a601:	bd 01 00 00 00       	mov    $0x1,%ebp
    a606:	e9 22 08 00 00       	jmp    ae2d <__pyx_pymod_exec_main+0x3a04>
    a60b:	48 89 eb             	mov    %rbp,%rbx
    a60e:	41 bc c7 14 00 00    	mov    $0x14c7,%r12d
    a614:	41 bd 02 00 00 00    	mov    $0x2,%r13d
    a61a:	bd 01 00 00 00       	mov    $0x1,%ebp
    a61f:	e9 09 08 00 00       	jmp    ae2d <__pyx_pymod_exec_main+0x3a04>
    a624:	31 db                	xor    %ebx,%ebx
    a626:	41 bc d1 14 00 00    	mov    $0x14d1,%r12d
    a62c:	41 bd 03 00 00 00    	mov    $0x3,%r13d
    a632:	bd 01 00 00 00       	mov    $0x1,%ebp
    a637:	e9 f1 07 00 00       	jmp    ae2d <__pyx_pymod_exec_main+0x3a04>
    a63c:	48 89 eb             	mov    %rbp,%rbx
    a63f:	41 bc d3 14 00 00    	mov    $0x14d3,%r12d
    a645:	41 bd 03 00 00 00    	mov    $0x3,%r13d
    a64b:	bd 01 00 00 00       	mov    $0x1,%ebp
    a650:	e9 d8 07 00 00       	jmp    ae2d <__pyx_pymod_exec_main+0x3a04>
    a655:	31 db                	xor    %ebx,%ebx
    a657:	41 bc dd 14 00 00    	mov    $0x14dd,%r12d
    a65d:	41 bd 04 00 00 00    	mov    $0x4,%r13d
    a663:	bd 01 00 00 00       	mov    $0x1,%ebp
    a668:	e9 c0 07 00 00       	jmp    ae2d <__pyx_pymod_exec_main+0x3a04>
    a66d:	48 89 eb             	mov    %rbp,%rbx
    a670:	41 bc df 14 00 00    	mov    $0x14df,%r12d
    a676:	41 bd 04 00 00 00    	mov    $0x4,%r13d
    a67c:	bd 01 00 00 00       	mov    $0x1,%ebp
    a681:	e9 a7 07 00 00       	jmp    ae2d <__pyx_pymod_exec_main+0x3a04>
    a686:	31 db                	xor    %ebx,%ebx
    a688:	41 bc e9 14 00 00    	mov    $0x14e9,%r12d
    a68e:	41 bd 05 00 00 00    	mov    $0x5,%r13d
    a694:	bd 01 00 00 00       	mov    $0x1,%ebp
    a699:	e9 8f 07 00 00       	jmp    ae2d <__pyx_pymod_exec_main+0x3a04>
    a69e:	48 89 eb             	mov    %rbp,%rbx
    a6a1:	41 bc eb 14 00 00    	mov    $0x14eb,%r12d
    a6a7:	41 bd 05 00 00 00    	mov    $0x5,%r13d
    a6ad:	bd 01 00 00 00       	mov    $0x1,%ebp
    a6b2:	e9 76 07 00 00       	jmp    ae2d <__pyx_pymod_exec_main+0x3a04>
    a6b7:	41 bc f5 14 00 00    	mov    $0x14f5,%r12d
    a6bd:	41 bd 08 00 00 00    	mov    $0x8,%r13d
    a6c3:	bd 01 00 00 00       	mov    $0x1,%ebp
    a6c8:	e9 60 07 00 00       	jmp    ae2d <__pyx_pymod_exec_main+0x3a04>
    a6cd:	31 db                	xor    %ebx,%ebx
    a6cf:	41 bc fe 14 00 00    	mov    $0x14fe,%r12d
    a6d5:	41 bd 09 00 00 00    	mov    $0x9,%r13d
    a6db:	bd 01 00 00 00       	mov    $0x1,%ebp
    a6e0:	e9 48 07 00 00       	jmp    ae2d <__pyx_pymod_exec_main+0x3a04>
    a6e5:	48 89 eb             	mov    %rbp,%rbx
    a6e8:	41 bc 00 15 00 00    	mov    $0x1500,%r12d
    a6ee:	41 bd 09 00 00 00    	mov    $0x9,%r13d
    a6f4:	bd 01 00 00 00       	mov    $0x1,%ebp
    a6f9:	e9 2f 07 00 00       	jmp    ae2d <__pyx_pymod_exec_main+0x3a04>
    a6fe:	31 db                	xor    %ebx,%ebx
    a700:	41 bc 03 15 00 00    	mov    $0x1503,%r12d
    a706:	41 bd 09 00 00 00    	mov    $0x9,%r13d
    a70c:	bd 01 00 00 00       	mov    $0x1,%ebp
    a711:	e9 17 07 00 00       	jmp    ae2d <__pyx_pymod_exec_main+0x3a04>
    a716:	48 89 eb             	mov    %rbp,%rbx
    a719:	41 bc 06 15 00 00    	mov    $0x1506,%r12d
    a71f:	41 bd 09 00 00 00    	mov    $0x9,%r13d
    a725:	bd 01 00 00 00       	mov    $0x1,%ebp
    a72a:	e9 fe 06 00 00       	jmp    ae2d <__pyx_pymod_exec_main+0x3a04>
    a72f:	31 db                	xor    %ebx,%ebx
    a731:	41 bc 10 15 00 00    	mov    $0x1510,%r12d
    a737:	41 bd 0a 00 00 00    	mov    $0xa,%r13d
    a73d:	bd 01 00 00 00       	mov    $0x1,%ebp
    a742:	e9 e6 06 00 00       	jmp    ae2d <__pyx_pymod_exec_main+0x3a04>
    a747:	48 89 eb             	mov    %rbp,%rbx
    a74a:	41 bc 12 15 00 00    	mov    $0x1512,%r12d
    a750:	41 bd 0a 00 00 00    	mov    $0xa,%r13d
    a756:	bd 01 00 00 00       	mov    $0x1,%ebp
    a75b:	e9 cd 06 00 00       	jmp    ae2d <__pyx_pymod_exec_main+0x3a04>
    a760:	48 89 eb             	mov    %rbp,%rbx
    a763:	41 bc 13 15 00 00    	mov    $0x1513,%r12d
    a769:	41 bd 0a 00 00 00    	mov    $0xa,%r13d
    a76f:	bd 01 00 00 00       	mov    $0x1,%ebp
    a774:	e9 b4 06 00 00       	jmp    ae2d <__pyx_pymod_exec_main+0x3a04>
    a779:	48 89 eb             	mov    %rbp,%rbx
    a77c:	41 bc 14 15 00 00    	mov    $0x1514,%r12d
    a782:	41 bd 0a 00 00 00    	mov    $0xa,%r13d
    a788:	bd 01 00 00 00       	mov    $0x1,%ebp
    a78d:	e9 9b 06 00 00       	jmp    ae2d <__pyx_pymod_exec_main+0x3a04>
    a792:	48 89 eb             	mov    %rbp,%rbx
    a795:	41 bc 15 15 00 00    	mov    $0x1515,%r12d
    a79b:	41 bd 0a 00 00 00    	mov    $0xa,%r13d
    a7a1:	bd 01 00 00 00       	mov    $0x1,%ebp
    a7a6:	e9 82 06 00 00       	jmp    ae2d <__pyx_pymod_exec_main+0x3a04>
    a7ab:	48 89 eb             	mov    %rbp,%rbx
    a7ae:	41 bc 16 15 00 00    	mov    $0x1516,%r12d
    a7b4:	41 bd 0a 00 00 00    	mov    $0xa,%r13d
    a7ba:	bd 01 00 00 00       	mov    $0x1,%ebp
    a7bf:	e9 69 06 00 00       	jmp    ae2d <__pyx_pymod_exec_main+0x3a04>
    a7c4:	31 db                	xor    %ebx,%ebx
    a7c6:	41 bc 20 15 00 00    	mov    $0x1520,%r12d
    a7cc:	41 bd 0b 00 00 00    	mov    $0xb,%r13d
    a7d2:	bd 01 00 00 00       	mov    $0x1,%ebp
    a7d7:	e9 51 06 00 00       	jmp    ae2d <__pyx_pymod_exec_main+0x3a04>
    a7dc:	48 89 eb             	mov    %rbp,%rbx
    a7df:	41 bc 22 15 00 00    	mov    $0x1522,%r12d
    a7e5:	41 bd 0b 00 00 00    	mov    $0xb,%r13d
    a7eb:	bd 01 00 00 00       	mov    $0x1,%ebp
    a7f0:	e9 38 06 00 00       	jmp    ae2d <__pyx_pymod_exec_main+0x3a04>
    a7f5:	31 db                	xor    %ebx,%ebx
    a7f7:	41 bc 2d 15 00 00    	mov    $0x152d,%r12d
    a7fd:	41 bd 0c 00 00 00    	mov    $0xc,%r13d
    a803:	bd 01 00 00 00       	mov    $0x1,%ebp
    a808:	e9 20 06 00 00       	jmp    ae2d <__pyx_pymod_exec_main+0x3a04>
    a80d:	48 89 eb             	mov    %rbp,%rbx
    a810:	41 bc 2f 15 00 00    	mov    $0x152f,%r12d
    a816:	41 bd 0c 00 00 00    	mov    $0xc,%r13d
    a81c:	bd 01 00 00 00       	mov    $0x1,%ebp
    a821:	e9 07 06 00 00       	jmp    ae2d <__pyx_pymod_exec_main+0x3a04>
    a826:	31 db                	xor    %ebx,%ebx
    a828:	41 bc 3a 15 00 00    	mov    $0x153a,%r12d
    a82e:	41 bd 0d 00 00 00    	mov    $0xd,%r13d
    a834:	bd 01 00 00 00       	mov    $0x1,%ebp
    a839:	e9 ef 05 00 00       	jmp    ae2d <__pyx_pymod_exec_main+0x3a04>
    a83e:	48 89 eb             	mov    %rbp,%rbx
    a841:	41 bc 3c 15 00 00    	mov    $0x153c,%r12d
    a847:	41 bd 0d 00 00 00    	mov    $0xd,%r13d
    a84d:	bd 01 00 00 00       	mov    $0x1,%ebp
    a852:	e9 d6 05 00 00       	jmp    ae2d <__pyx_pymod_exec_main+0x3a04>
    a857:	31 db                	xor    %ebx,%ebx
    a859:	41 bc 47 15 00 00    	mov    $0x1547,%r12d
    a85f:	41 bd 0e 00 00 00    	mov    $0xe,%r13d
    a865:	bd 01 00 00 00       	mov    $0x1,%ebp
    a86a:	e9 be 05 00 00       	jmp    ae2d <__pyx_pymod_exec_main+0x3a04>
    a86f:	48 89 eb             	mov    %rbp,%rbx
    a872:	41 bc 49 15 00 00    	mov    $0x1549,%r12d
    a878:	41 bd 0e 00 00 00    	mov    $0xe,%r13d
    a87e:	bd 01 00 00 00       	mov    $0x1,%ebp
    a883:	e9 a5 05 00 00       	jmp    ae2d <__pyx_pymod_exec_main+0x3a04>
    a888:	31 db                	xor    %ebx,%ebx
    a88a:	41 bc 54 15 00 00    	mov    $0x1554,%r12d
    a890:	41 bd 0f 00 00 00    	mov    $0xf,%r13d
    a896:	bd 01 00 00 00       	mov    $0x1,%ebp
    a89b:	e9 8d 05 00 00       	jmp    ae2d <__pyx_pymod_exec_main+0x3a04>
    a8a0:	48 89 eb             	mov    %rbp,%rbx
    a8a3:	41 bc 56 15 00 00    	mov    $0x1556,%r12d
    a8a9:	41 bd 0f 00 00 00    	mov    $0xf,%r13d
    a8af:	bd 01 00 00 00       	mov    $0x1,%ebp
    a8b4:	e9 74 05 00 00       	jmp    ae2d <__pyx_pymod_exec_main+0x3a04>
    a8b9:	41 bc 60 15 00 00    	mov    $0x1560,%r12d
    a8bf:	41 bd 10 00 00 00    	mov    $0x10,%r13d
    a8c5:	bd 01 00 00 00       	mov    $0x1,%ebp
    a8ca:	e9 5e 05 00 00       	jmp    ae2d <__pyx_pymod_exec_main+0x3a04>
    a8cf:	31 db                	xor    %ebx,%ebx
    a8d1:	41 bc 69 15 00 00    	mov    $0x1569,%r12d
    a8d7:	41 bd 12 00 00 00    	mov    $0x12,%r13d
    a8dd:	bd 01 00 00 00       	mov    $0x1,%ebp
    a8e2:	e9 46 05 00 00       	jmp    ae2d <__pyx_pymod_exec_main+0x3a04>
    a8e7:	48 89 eb             	mov    %rbp,%rbx
    a8ea:	41 bc 6b 15 00 00    	mov    $0x156b,%r12d
    a8f0:	41 bd 12 00 00 00    	mov    $0x12,%r13d
    a8f6:	bd 01 00 00 00       	mov    $0x1,%ebp
    a8fb:	e9 2d 05 00 00       	jmp    ae2d <__pyx_pymod_exec_main+0x3a04>
    a900:	31 db                	xor    %ebx,%ebx
    a902:	41 bc 75 15 00 00    	mov    $0x1575,%r12d
    a908:	41 bd 17 00 00 00    	mov    $0x17,%r13d
    a90e:	bd 01 00 00 00       	mov    $0x1,%ebp
    a913:	e9 15 05 00 00       	jmp    ae2d <__pyx_pymod_exec_main+0x3a04>
    a918:	48 89 eb             	mov    %rbp,%rbx
    a91b:	41 bc 77 15 00 00    	mov    $0x1577,%r12d
    a921:	41 bd 17 00 00 00    	mov    $0x17,%r13d
    a927:	bd 01 00 00 00       	mov    $0x1,%ebp
    a92c:	e9 fc 04 00 00       	jmp    ae2d <__pyx_pymod_exec_main+0x3a04>
    a931:	31 db                	xor    %ebx,%ebx
    a933:	41 bc 81 15 00 00    	mov    $0x1581,%r12d
    a939:	41 bd 21 00 00 00    	mov    $0x21,%r13d
    a93f:	bd 01 00 00 00       	mov    $0x1,%ebp
    a944:	e9 e4 04 00 00       	jmp    ae2d <__pyx_pymod_exec_main+0x3a04>
    a949:	48 89 eb             	mov    %rbp,%rbx
    a94c:	41 bc 83 15 00 00    	mov    $0x1583,%r12d
    a952:	41 bd 21 00 00 00    	mov    $0x21,%r13d
    a958:	bd 01 00 00 00       	mov    $0x1,%ebp
    a95d:	e9 cb 04 00 00       	jmp    ae2d <__pyx_pymod_exec_main+0x3a04>
    a962:	31 db                	xor    %ebx,%ebx
    a964:	41 bc 8d 15 00 00    	mov    $0x158d,%r12d
    a96a:	41 bd 25 00 00 00    	mov    $0x25,%r13d
    a970:	bd 01 00 00 00       	mov    $0x1,%ebp
    a975:	e9 b3 04 00 00       	jmp    ae2d <__pyx_pymod_exec_main+0x3a04>
    a97a:	48 89 eb             	mov    %rbp,%rbx
    a97d:	41 bc 90 15 00 00    	mov    $0x1590,%r12d
    a983:	41 bd 25 00 00 00    	mov    $0x25,%r13d
    a989:	bd 01 00 00 00       	mov    $0x1,%ebp
    a98e:	e9 9a 04 00 00       	jmp    ae2d <__pyx_pymod_exec_main+0x3a04>
    a993:	31 db                	xor    %ebx,%ebx
    a995:	41 bc 9a 15 00 00    	mov    $0x159a,%r12d
    a99b:	41 bd 4b 00 00 00    	mov    $0x4b,%r13d
    a9a1:	bd 01 00 00 00       	mov    $0x1,%ebp
    a9a6:	e9 82 04 00 00       	jmp    ae2d <__pyx_pymod_exec_main+0x3a04>
    a9ab:	48 89 eb             	mov    %rbp,%rbx
    a9ae:	41 bc 9c 15 00 00    	mov    $0x159c,%r12d
    a9b4:	41 bd 4b 00 00 00    	mov    $0x4b,%r13d
    a9ba:	bd 01 00 00 00       	mov    $0x1,%ebp
    a9bf:	e9 69 04 00 00       	jmp    ae2d <__pyx_pymod_exec_main+0x3a04>
    a9c4:	31 db                	xor    %ebx,%ebx
    a9c6:	41 bc a6 15 00 00    	mov    $0x15a6,%r12d
    a9cc:	41 bd 58 00 00 00    	mov    $0x58,%r13d
    a9d2:	bd 01 00 00 00       	mov    $0x1,%ebp
    a9d7:	e9 51 04 00 00       	jmp    ae2d <__pyx_pymod_exec_main+0x3a04>
    a9dc:	48 89 eb             	mov    %rbp,%rbx
    a9df:	41 bc a8 15 00 00    	mov    $0x15a8,%r12d
    a9e5:	41 bd 58 00 00 00    	mov    $0x58,%r13d
    a9eb:	bd 01 00 00 00       	mov    $0x1,%ebp
    a9f0:	e9 38 04 00 00       	jmp    ae2d <__pyx_pymod_exec_main+0x3a04>
    a9f5:	31 db                	xor    %ebx,%ebx
    a9f7:	41 bc ab 15 00 00    	mov    $0x15ab,%r12d
    a9fd:	41 bd 58 00 00 00    	mov    $0x58,%r13d
    aa03:	bd 01 00 00 00       	mov    $0x1,%ebp
    aa08:	e9 20 04 00 00       	jmp    ae2d <__pyx_pymod_exec_main+0x3a04>
    aa0d:	31 db                	xor    %ebx,%ebx
    aa0f:	41 bc b7 15 00 00    	mov    $0x15b7,%r12d
    aa15:	41 bd 59 00 00 00    	mov    $0x59,%r13d
    aa1b:	bd 01 00 00 00       	mov    $0x1,%ebp
    aa20:	e9 08 04 00 00       	jmp    ae2d <__pyx_pymod_exec_main+0x3a04>
    aa25:	48 89 eb             	mov    %rbp,%rbx
    aa28:	41 bc b9 15 00 00    	mov    $0x15b9,%r12d
    aa2e:	41 bd 59 00 00 00    	mov    $0x59,%r13d
    aa34:	bd 01 00 00 00       	mov    $0x1,%ebp
    aa39:	e9 ef 03 00 00       	jmp    ae2d <__pyx_pymod_exec_main+0x3a04>
    aa3e:	31 db                	xor    %ebx,%ebx
    aa40:	41 bc bc 15 00 00    	mov    $0x15bc,%r12d
    aa46:	41 bd 59 00 00 00    	mov    $0x59,%r13d
    aa4c:	bd 01 00 00 00       	mov    $0x1,%ebp
    aa51:	e9 d7 03 00 00       	jmp    ae2d <__pyx_pymod_exec_main+0x3a04>
    aa56:	48 89 eb             	mov    %rbp,%rbx
    aa59:	41 bc be 15 00 00    	mov    $0x15be,%r12d
    aa5f:	41 bd 59 00 00 00    	mov    $0x59,%r13d
    aa65:	bd 01 00 00 00       	mov    $0x1,%ebp
    aa6a:	e9 be 03 00 00       	jmp    ae2d <__pyx_pymod_exec_main+0x3a04>
    aa6f:	48 89 eb             	mov    %rbp,%rbx
    aa72:	41 bc bf 15 00 00    	mov    $0x15bf,%r12d
    aa78:	41 bd 59 00 00 00    	mov    $0x59,%r13d
    aa7e:	bd 01 00 00 00       	mov    $0x1,%ebp
    aa83:	e9 a5 03 00 00       	jmp    ae2d <__pyx_pymod_exec_main+0x3a04>
    aa88:	48 89 eb             	mov    %rbp,%rbx
    aa8b:	41 bc c0 15 00 00    	mov    $0x15c0,%r12d
    aa91:	41 bd 59 00 00 00    	mov    $0x59,%r13d
    aa97:	bd 01 00 00 00       	mov    $0x1,%ebp
    aa9c:	e9 8c 03 00 00       	jmp    ae2d <__pyx_pymod_exec_main+0x3a04>
    aaa1:	48 89 eb             	mov    %rbp,%rbx
    aaa4:	41 bc c1 15 00 00    	mov    $0x15c1,%r12d
    aaaa:	41 bd 59 00 00 00    	mov    $0x59,%r13d
    aab0:	bd 01 00 00 00       	mov    $0x1,%ebp
    aab5:	e9 73 03 00 00       	jmp    ae2d <__pyx_pymod_exec_main+0x3a04>
    aaba:	31 db                	xor    %ebx,%ebx
    aabc:	41 bc ce 15 00 00    	mov    $0x15ce,%r12d
    aac2:	41 bd 5a 00 00 00    	mov    $0x5a,%r13d
    aac8:	bd 01 00 00 00       	mov    $0x1,%ebp
    aacd:	e9 5b 03 00 00       	jmp    ae2d <__pyx_pymod_exec_main+0x3a04>
    aad2:	31 db                	xor    %ebx,%ebx
    aad4:	41 bc d0 15 00 00    	mov    $0x15d0,%r12d
    aada:	41 bd 5a 00 00 00    	mov    $0x5a,%r13d
    aae0:	bd 01 00 00 00       	mov    $0x1,%ebp
    aae5:	e9 43 03 00 00       	jmp    ae2d <__pyx_pymod_exec_main+0x3a04>
    aaea:	48 89 eb             	mov    %rbp,%rbx
    aaed:	41 bc d3 15 00 00    	mov    $0x15d3,%r12d
    aaf3:	41 bd 5a 00 00 00    	mov    $0x5a,%r13d
    aaf9:	bd 01 00 00 00       	mov    $0x1,%ebp
    aafe:	e9 2a 03 00 00       	jmp    ae2d <__pyx_pymod_exec_main+0x3a04>
    ab03:	31 db                	xor    %ebx,%ebx
    ab05:	41 bc e0 15 00 00    	mov    $0x15e0,%r12d
    ab0b:	41 bd 5c 00 00 00    	mov    $0x5c,%r13d
    ab11:	bd 01 00 00 00       	mov    $0x1,%ebp
    ab16:	e9 12 03 00 00       	jmp    ae2d <__pyx_pymod_exec_main+0x3a04>
    ab1b:	31 db                	xor    %ebx,%ebx
    ab1d:	41 bc e2 15 00 00    	mov    $0x15e2,%r12d
    ab23:	41 bd 5c 00 00 00    	mov    $0x5c,%r13d
    ab29:	bd 01 00 00 00       	mov    $0x1,%ebp
    ab2e:	e9 fa 02 00 00       	jmp    ae2d <__pyx_pymod_exec_main+0x3a04>
    ab33:	48 89 eb             	mov    %rbp,%rbx
    ab36:	41 bc e5 15 00 00    	mov    $0x15e5,%r12d
    ab3c:	41 bd 5c 00 00 00    	mov    $0x5c,%r13d
    ab42:	bd 01 00 00 00       	mov    $0x1,%ebp
    ab47:	e9 e1 02 00 00       	jmp    ae2d <__pyx_pymod_exec_main+0x3a04>
    ab4c:	48 89 eb             	mov    %rbp,%rbx
    ab4f:	41 bc e7 15 00 00    	mov    $0x15e7,%r12d
    ab55:	41 bd 5c 00 00 00    	mov    $0x5c,%r13d
    ab5b:	bd 01 00 00 00       	mov    $0x1,%ebp
    ab60:	e9 c8 02 00 00       	jmp    ae2d <__pyx_pymod_exec_main+0x3a04>
    ab65:	48 89 eb             	mov    %rbp,%rbx
    ab68:	41 bc e8 15 00 00    	mov    $0x15e8,%r12d
    ab6e:	41 bd 5c 00 00 00    	mov    $0x5c,%r13d
    ab74:	bd 01 00 00 00       	mov    $0x1,%ebp
    ab79:	e9 af 02 00 00       	jmp    ae2d <__pyx_pymod_exec_main+0x3a04>
    ab7e:	31 db                	xor    %ebx,%ebx
    ab80:	41 bc ec 15 00 00    	mov    $0x15ec,%r12d
    ab86:	41 bd 5c 00 00 00    	mov    $0x5c,%r13d
    ab8c:	bd 01 00 00 00       	mov    $0x1,%ebp
    ab91:	e9 97 02 00 00       	jmp    ae2d <__pyx_pymod_exec_main+0x3a04>
    ab96:	31 db                	xor    %ebx,%ebx
    ab98:	41 bc 28 17 00 00    	mov    $0x1728,%r12d
    ab9e:	41 bd 5c 00 00 00    	mov    $0x5c,%r13d
    aba4:	bd 01 00 00 00       	mov    $0x1,%ebp
    aba9:	e9 7f 02 00 00       	jmp    ae2d <__pyx_pymod_exec_main+0x3a04>
    abae:	31 db                	xor    %ebx,%ebx
    abb0:	41 bc 3e 17 00 00    	mov    $0x173e,%r12d
    abb6:	41 bd 75 00 00 00    	mov    $0x75,%r13d
    abbc:	bd 01 00 00 00       	mov    $0x1,%ebp
    abc1:	e9 67 02 00 00       	jmp    ae2d <__pyx_pymod_exec_main+0x3a04>
    abc6:	41 bd 5c 00 00 00    	mov    $0x5c,%r13d
    abcc:	bd 01 00 00 00       	mov    $0x1,%ebp
    abd1:	e9 57 02 00 00       	jmp    ae2d <__pyx_pymod_exec_main+0x3a04>
    abd6:	31 db                	xor    %ebx,%ebx
    abd8:	41 bc 40 17 00 00    	mov    $0x1740,%r12d
    abde:	41 bd 75 00 00 00    	mov    $0x75,%r13d
    abe4:	bd 01 00 00 00       	mov    $0x1,%ebp
    abe9:	e9 3f 02 00 00       	jmp    ae2d <__pyx_pymod_exec_main+0x3a04>
    abee:	31 db                	xor    %ebx,%ebx
    abf0:	41 bc 43 17 00 00    	mov    $0x1743,%r12d
    abf6:	41 bd 75 00 00 00    	mov    $0x75,%r13d
    abfc:	bd 01 00 00 00       	mov    $0x1,%ebp
    ac01:	e9 27 02 00 00       	jmp    ae2d <__pyx_pymod_exec_main+0x3a04>
    ac06:	31 db                	xor    %ebx,%ebx
    ac08:	41 bc 4f 17 00 00    	mov    $0x174f,%r12d
    ac0e:	41 bd 76 00 00 00    	mov    $0x76,%r13d
    ac14:	bd 01 00 00 00       	mov    $0x1,%ebp
    ac19:	e9 0f 02 00 00       	jmp    ae2d <__pyx_pymod_exec_main+0x3a04>
    ac1e:	31 db                	xor    %ebx,%ebx
    ac20:	41 bc 51 17 00 00    	mov    $0x1751,%r12d
    ac26:	41 bd 76 00 00 00    	mov    $0x76,%r13d
    ac2c:	bd 01 00 00 00       	mov    $0x1,%ebp
    ac31:	e9 f7 01 00 00       	jmp    ae2d <__pyx_pymod_exec_main+0x3a04>
    ac36:	31 db                	xor    %ebx,%ebx
    ac38:	41 bc 54 17 00 00    	mov    $0x1754,%r12d
    ac3e:	41 bd 76 00 00 00    	mov    $0x76,%r13d
    ac44:	bd 01 00 00 00       	mov    $0x1,%ebp
    ac49:	e9 df 01 00 00       	jmp    ae2d <__pyx_pymod_exec_main+0x3a04>
    ac4e:	31 db                	xor    %ebx,%ebx
    ac50:	41 bc 61 17 00 00    	mov    $0x1761,%r12d
    ac56:	41 bd 78 00 00 00    	mov    $0x78,%r13d
    ac5c:	bd 01 00 00 00       	mov    $0x1,%ebp
    ac61:	e9 c7 01 00 00       	jmp    ae2d <__pyx_pymod_exec_main+0x3a04>
    ac66:	31 db                	xor    %ebx,%ebx
    ac68:	41 bc 63 17 00 00    	mov    $0x1763,%r12d
    ac6e:	41 bd 78 00 00 00    	mov    $0x78,%r13d
    ac74:	bd 01 00 00 00       	mov    $0x1,%ebp
    ac79:	e9 af 01 00 00       	jmp    ae2d <__pyx_pymod_exec_main+0x3a04>
    ac7e:	41 bc 7c 17 00 00    	mov    $0x177c,%r12d
    ac84:	41 bd 78 00 00 00    	mov    $0x78,%r13d
    ac8a:	bd 01 00 00 00       	mov    $0x1,%ebp
    ac8f:	e9 99 01 00 00       	jmp    ae2d <__pyx_pymod_exec_main+0x3a04>
    ac94:	31 db                	xor    %ebx,%ebx
    ac96:	41 bc 87 17 00 00    	mov    $0x1787,%r12d
    ac9c:	41 bd 7a 00 00 00    	mov    $0x7a,%r13d
    aca2:	bd 01 00 00 00       	mov    $0x1,%ebp
    aca7:	e9 81 01 00 00       	jmp    ae2d <__pyx_pymod_exec_main+0x3a04>
    acac:	31 db                	xor    %ebx,%ebx
    acae:	41 bc a8 17 00 00    	mov    $0x17a8,%r12d
    acb4:	41 bd 7e 00 00 00    	mov    $0x7e,%r13d
    acba:	bd 01 00 00 00       	mov    $0x1,%ebp
    acbf:	e9 69 01 00 00       	jmp    ae2d <__pyx_pymod_exec_main+0x3a04>
    acc4:	31 db                	xor    %ebx,%ebx
    acc6:	41 bc aa 17 00 00    	mov    $0x17aa,%r12d
    accc:	41 bd 7e 00 00 00    	mov    $0x7e,%r13d
    acd2:	bd 01 00 00 00       	mov    $0x1,%ebp
    acd7:	e9 51 01 00 00       	jmp    ae2d <__pyx_pymod_exec_main+0x3a04>
    acdc:	31 db                	xor    %ebx,%ebx
    acde:	41 bc ad 17 00 00    	mov    $0x17ad,%r12d
    ace4:	41 bd 7e 00 00 00    	mov    $0x7e,%r13d
    acea:	bd 01 00 00 00       	mov    $0x1,%ebp
    acef:	e9 39 01 00 00       	jmp    ae2d <__pyx_pymod_exec_main+0x3a04>
    acf4:	31 db                	xor    %ebx,%ebx
    acf6:	41 bc af 17 00 00    	mov    $0x17af,%r12d
    acfc:	41 bd 7e 00 00 00    	mov    $0x7e,%r13d
    ad02:	bd 01 00 00 00       	mov    $0x1,%ebp
    ad07:	e9 21 01 00 00       	jmp    ae2d <__pyx_pymod_exec_main+0x3a04>
    ad0c:	4c 89 f3             	mov    %r14,%rbx
    ad0f:	41 bc b2 17 00 00    	mov    $0x17b2,%r12d
    ad15:	41 bd 7e 00 00 00    	mov    $0x7e,%r13d
    ad1b:	bd 01 00 00 00       	mov    $0x1,%ebp
    ad20:	e9 08 01 00 00       	jmp    ae2d <__pyx_pymod_exec_main+0x3a04>
    ad25:	31 db                	xor    %ebx,%ebx
    ad27:	41 bc d5 17 00 00    	mov    $0x17d5,%r12d
    ad2d:	41 bd 7f 00 00 00    	mov    $0x7f,%r13d
    ad33:	bd 01 00 00 00       	mov    $0x1,%ebp
    ad38:	e9 f0 00 00 00       	jmp    ae2d <__pyx_pymod_exec_main+0x3a04>
    ad3d:	31 db                	xor    %ebx,%ebx
    ad3f:	41 bc d7 17 00 00    	mov    $0x17d7,%r12d
    ad45:	41 bd 7f 00 00 00    	mov    $0x7f,%r13d
    ad4b:	bd 01 00 00 00       	mov    $0x1,%ebp
    ad50:	e9 d8 00 00 00       	jmp    ae2d <__pyx_pymod_exec_main+0x3a04>
    ad55:	31 db                	xor    %ebx,%ebx
    ad57:	41 bc da 17 00 00    	mov    $0x17da,%r12d
    ad5d:	41 bd 7f 00 00 00    	mov    $0x7f,%r13d
    ad63:	bd 01 00 00 00       	mov    $0x1,%ebp
    ad68:	e9 c0 00 00 00       	jmp    ae2d <__pyx_pymod_exec_main+0x3a04>
    ad6d:	31 db                	xor    %ebx,%ebx
    ad6f:	41 bc dc 17 00 00    	mov    $0x17dc,%r12d
    ad75:	41 bd 7f 00 00 00    	mov    $0x7f,%r13d
    ad7b:	bd 01 00 00 00       	mov    $0x1,%ebp
    ad80:	e9 a8 00 00 00       	jmp    ae2d <__pyx_pymod_exec_main+0x3a04>
    ad85:	4c 89 eb             	mov    %r13,%rbx
    ad88:	41 bc df 17 00 00    	mov    $0x17df,%r12d
    ad8e:	41 bd 7f 00 00 00    	mov    $0x7f,%r13d
    ad94:	bd 01 00 00 00       	mov    $0x1,%ebp
    ad99:	e9 8f 00 00 00       	jmp    ae2d <__pyx_pymod_exec_main+0x3a04>
    ad9e:	31 db                	xor    %ebx,%ebx
    ada0:	41 bc 02 18 00 00    	mov    $0x1802,%r12d
    ada6:	41 bd 80 00 00 00    	mov    $0x80,%r13d
    adac:	bd 01 00 00 00       	mov    $0x1,%ebp
    adb1:	eb 7a                	jmp    ae2d <__pyx_pymod_exec_main+0x3a04>
    adb3:	31 db                	xor    %ebx,%ebx
    adb5:	41 bc 04 18 00 00    	mov    $0x1804,%r12d
    adbb:	41 bd 80 00 00 00    	mov    $0x80,%r13d
    adc1:	bd 01 00 00 00       	mov    $0x1,%ebp
    adc6:	eb 65                	jmp    ae2d <__pyx_pymod_exec_main+0x3a04>
    adc8:	31 db                	xor    %ebx,%ebx
    adca:	41 bc 27 18 00 00    	mov    $0x1827,%r12d
    add0:	41 bd 81 00 00 00    	mov    $0x81,%r13d
    add6:	bd 01 00 00 00       	mov    $0x1,%ebp
    addb:	eb 50                	jmp    ae2d <__pyx_pymod_exec_main+0x3a04>
    addd:	31 db                	xor    %ebx,%ebx
    addf:	41 bc 29 18 00 00    	mov    $0x1829,%r12d
    ade5:	41 bd 81 00 00 00    	mov    $0x81,%r13d
    adeb:	bd 01 00 00 00       	mov    $0x1,%ebp
    adf0:	eb 3b                	jmp    ae2d <__pyx_pymod_exec_main+0x3a04>
    adf2:	31 db                	xor    %ebx,%ebx
    adf4:	41 bc 2c 18 00 00    	mov    $0x182c,%r12d
    adfa:	41 bd 81 00 00 00    	mov    $0x81,%r13d
    ae00:	bd 01 00 00 00       	mov    $0x1,%ebp
    ae05:	eb 26                	jmp    ae2d <__pyx_pymod_exec_main+0x3a04>
    ae07:	31 db                	xor    %ebx,%ebx
    ae09:	41 bc 36 18 00 00    	mov    $0x1836,%r12d
    ae0f:	41 bd 01 00 00 00    	mov    $0x1,%r13d
    ae15:	bd 01 00 00 00       	mov    $0x1,%ebp
    ae1a:	eb 11                	jmp    ae2d <__pyx_pymod_exec_main+0x3a04>
    ae1c:	41 bc 38 18 00 00    	mov    $0x1838,%r12d
    ae22:	41 bd 01 00 00 00    	mov    $0x1,%r13d
    ae28:	bd 01 00 00 00       	mov    $0x1,%ebp
    ae2d:	48 89 df             	mov    %rbx,%rdi
    ae30:	e8 69 08 00 00       	call   b69e <Py_XDECREF>
    ae35:	48 8b 7c 24 28       	mov    0x28(%rsp),%rdi
    ae3a:	e8 5f 08 00 00       	call   b69e <Py_XDECREF>
    ae3f:	48 8b 7c 24 30       	mov    0x30(%rsp),%rdi
    ae44:	e8 55 08 00 00       	call   b69e <Py_XDECREF>
    ae49:	48 8b 7c 24 50       	mov    0x50(%rsp),%rdi
    ae4e:	e8 4b 08 00 00       	call   b69e <Py_XDECREF>
    ae53:	48 83 3d 45 d2 00 00 	cmpq   $0x0,0xd245(%rip)        # 180a0 <__pyx_m>
    ae5a:	00 
    ae5b:	74 52                	je     aeaf <__pyx_pymod_exec_main+0x3a86>
    ae5d:	48 83 3d fb cd 00 00 	cmpq   $0x0,0xcdfb(%rip)        # 17c60 <__pyx_mstate_global_static>
    ae64:	00 
    ae65:	74 1d                	je     ae84 <__pyx_pymod_exec_main+0x3a5b>
    ae67:	85 ed                	test   %ebp,%ebp
    ae69:	74 19                	je     ae84 <__pyx_pymod_exec_main+0x3a5b>
    ae6b:	48 8d 0d a6 79 00 00 	lea    0x79a6(%rip),%rcx        # 12818 <_IO_stdin_used+0x818>
    ae72:	44 89 ea             	mov    %r13d,%edx
    ae75:	44 89 e6             	mov    %r12d,%esi
    ae78:	48 8d 3d fe 7c 00 00 	lea    0x7cfe(%rip),%rdi        # 12b7d <_IO_stdin_used+0xb7d>
    ae7f:	e8 1e 25 00 00       	call   d3a2 <__Pyx_AddTraceback>
    ae84:	48 8b 3d 15 d2 00 00 	mov    0xd215(%rip),%rdi        # 180a0 <__pyx_m>
    ae8b:	48 85 ff             	test   %rdi,%rdi
    ae8e:	74 3c                	je     aecc <__pyx_pymod_exec_main+0x3aa3>
    ae90:	31 c0                	xor    %eax,%eax
    ae92:	48 89 05 07 d2 00 00 	mov    %rax,0xd207(%rip)        # 180a0 <__pyx_m>
    ae99:	48 8b 07             	mov    (%rdi),%rax
    ae9c:	85 c0                	test   %eax,%eax
    ae9e:	78 2c                	js     aecc <__pyx_pymod_exec_main+0x3aa3>
    aea0:	48 ff c8             	dec    %rax
    aea3:	48 89 07             	mov    %rax,(%rdi)
    aea6:	75 24                	jne    aecc <__pyx_pymod_exec_main+0x3aa3>
    aea8:	e8 a3 97 ff ff       	call   4650 <_Py_Dealloc@plt>
    aead:	eb 1d                	jmp    aecc <__pyx_pymod_exec_main+0x3aa3>
    aeaf:	e8 3c 94 ff ff       	call   42f0 <PyErr_Occurred@plt>
    aeb4:	48 85 c0             	test   %rax,%rax
    aeb7:	75 13                	jne    aecc <__pyx_pymod_exec_main+0x3aa3>
    aeb9:	48 8b 3d e0 bb 00 00 	mov    0xbbe0(%rip),%rdi        # 16aa0 <PyExc_ImportError@@Base>
    aec0:	48 8d 35 b6 7c 00 00 	lea    0x7cb6(%rip),%rsi        # 12b7d <_IO_stdin_used+0xb7d>
    aec7:	e8 34 98 ff ff       	call   4700 <PyErr_SetString@plt>
    aecc:	48 83 3d cc d1 00 00 	cmpq   $0x1,0xd1cc(%rip)        # 180a0 <__pyx_m>
    aed3:	01 
    aed4:	19 c0                	sbb    %eax,%eax
    aed6:	eb 4a                	jmp    af22 <__pyx_pymod_exec_main+0x3af9>
    aed8:	41 bf 43 16 00 00    	mov    $0x1643,%r15d
    aede:	41 be 62 00 00 00    	mov    $0x62,%r14d
    aee4:	e9 e7 e8 ff ff       	jmp    97d0 <__pyx_pymod_exec_main+0x23a7>
    aee9:	41 bc a7 14 00 00    	mov    $0x14a7,%r12d
    aeef:	41 bd 01 00 00 00    	mov    $0x1,%r13d
    aef5:	bd 01 00 00 00       	mov    $0x1,%ebp
    aefa:	e9 2e ff ff ff       	jmp    ae2d <__pyx_pymod_exec_main+0x3a04>
    aeff:	41 bc 93 14 00 00    	mov    $0x1493,%r12d
    af05:	41 bd 01 00 00 00    	mov    $0x1,%r13d
    af0b:	31 ed                	xor    %ebp,%ebp
    af0d:	e9 1b ff ff ff       	jmp    ae2d <__pyx_pymod_exec_main+0x3a04>
    af12:	4c 89 e7             	mov    %r12,%rdi
    af15:	45 31 e4             	xor    %r12d,%r12d
    af18:	e8 81 07 00 00       	call   b69e <Py_XDECREF>
    af1d:	e9 ea c7 ff ff       	jmp    770c <__pyx_pymod_exec_main+0x2e3>
    af22:	48 8b 94 24 38 01 00 	mov    0x138(%rsp),%rdx
    af29:	00 
    af2a:	64 48 2b 14 25 28 00 	sub    %fs:0x28,%rdx
    af31:	00 00 
    af33:	74 05                	je     af3a <__pyx_pymod_exec_main+0x3b11>
    af35:	e8 f6 95 ff ff       	call   4530 <__stack_chk_fail@plt>
    af3a:	48 81 c4 48 01 00 00 	add    $0x148,%rsp
    af41:	5b                   	pop    %rbx
    af42:	5d                   	pop    %rbp
    af43:	41 5c                	pop    %r12
    af45:	41 5d                	pop    %r13
    af47:	41 5e                	pop    %r14
    af49:	41 5f                	pop    %r15
    af4b:	c3                   	ret

000000000000af4c <main>:
    af4c:	85 ff                	test   %edi,%edi
    af4e:	75 09                	jne    af59 <main+0xd>
    af50:	31 f6                	xor    %esi,%esi
    af52:	31 ff                	xor    %edi,%edi
    af54:	e9 05 0b 00 00       	jmp    ba5e <__Pyx_main>
    af59:	41 57                	push   %r15
    af5b:	49 89 f7             	mov    %rsi,%r15
    af5e:	41 56                	push   %r14
    af60:	41 55                	push   %r13
    af62:	41 89 fd             	mov    %edi,%r13d
    af65:	41 54                	push   %r12
    af67:	55                   	push   %rbp
    af68:	53                   	push   %rbx
    af69:	48 63 df             	movslq %edi,%rbx
    af6c:	48 c1 e3 03          	shl    $0x3,%rbx
    af70:	48 89 df             	mov    %rbx,%rdi
    af73:	48 83 ec 18          	sub    $0x18,%rsp
    af77:	e8 24 92 ff ff       	call   41a0 <malloc@plt>
    af7c:	48 89 df             	mov    %rbx,%rdi
    af7f:	49 89 c4             	mov    %rax,%r12
    af82:	e8 19 92 ff ff       	call   41a0 <malloc@plt>
    af87:	31 f6                	xor    %esi,%esi
    af89:	bf 06 00 00 00       	mov    $0x6,%edi
    af8e:	48 89 c5             	mov    %rax,%rbp
    af91:	e8 ba 97 ff ff       	call   4750 <setlocale@plt>
    af96:	48 89 c7             	mov    %rax,%rdi
    af99:	e8 82 95 ff ff       	call   4520 <strdup@plt>
    af9e:	4d 85 e4             	test   %r12,%r12
    afa1:	49 89 c6             	mov    %rax,%r14
    afa4:	0f 94 c0             	sete   %al
    afa7:	48 85 ed             	test   %rbp,%rbp
    afaa:	0f 94 c2             	sete   %dl
    afad:	08 d0                	or     %dl,%al
    afaf:	75 05                	jne    afb6 <main+0x6a>
    afb1:	4d 85 f6             	test   %r14,%r14
    afb4:	75 35                	jne    afeb <main+0x9f>
    afb6:	48 8b 35 43 cc 00 00 	mov    0xcc43(%rip),%rsi        # 17c00 <stderr@GLIBC_2.2.5>
    afbd:	48 8d 3d c3 7b 00 00 	lea    0x7bc3(%rip),%rdi        # 12b87 <_IO_stdin_used+0xb87>
    afc4:	bb 01 00 00 00       	mov    $0x1,%ebx
    afc9:	e8 a2 94 ff ff       	call   4470 <fputs@plt>
    afce:	4c 89 e7             	mov    %r12,%rdi
    afd1:	e8 4a 93 ff ff       	call   4320 <free@plt>
    afd6:	48 89 ef             	mov    %rbp,%rdi
    afd9:	e8 42 93 ff ff       	call   4320 <free@plt>
    afde:	4c 89 f7             	mov    %r14,%rdi
    afe1:	e8 3a 93 ff ff       	call   4320 <free@plt>
    afe6:	e9 95 00 00 00       	jmp    b080 <main+0x134>
    afeb:	48 8d 35 bb 77 00 00 	lea    0x77bb(%rip),%rsi        # 127ad <_IO_stdin_used+0x7ad>
    aff2:	bf 06 00 00 00       	mov    $0x6,%edi
    aff7:	31 db                	xor    %ebx,%ebx
    aff9:	e8 52 97 ff ff       	call   4750 <setlocale@plt>
    affe:	31 d2                	xor    %edx,%edx
    b000:	41 39 d5             	cmp    %edx,%r13d
    b003:	7e 2e                	jle    b033 <main+0xe7>
    b005:	49 8b 3c d7          	mov    (%r15,%rdx,8),%rdi
    b009:	31 f6                	xor    %esi,%esi
    b00b:	48 89 54 24 08       	mov    %rdx,0x8(%rsp)
    b010:	e8 eb 92 ff ff       	call   4300 <Py_DecodeLocale@plt>
    b015:	48 8b 54 24 08       	mov    0x8(%rsp),%rdx
    b01a:	48 85 c0             	test   %rax,%rax
    b01d:	49 89 04 d4          	mov    %rax,(%r12,%rdx,8)
    b021:	48 89 44 d5 00       	mov    %rax,0x0(%rbp,%rdx,8)
    b026:	0f 94 c0             	sete   %al
    b029:	48 ff c2             	inc    %rdx
    b02c:	0f b6 c0             	movzbl %al,%eax
    b02f:	09 c3                	or     %eax,%ebx
    b031:	eb cd                	jmp    b000 <main+0xb4>
    b033:	bf 06 00 00 00       	mov    $0x6,%edi
    b038:	4c 89 f6             	mov    %r14,%rsi
    b03b:	e8 10 97 ff ff       	call   4750 <setlocale@plt>
    b040:	4c 89 f7             	mov    %r14,%rdi
    b043:	e8 d8 92 ff ff       	call   4320 <free@plt>
    b048:	85 db                	test   %ebx,%ebx
    b04a:	75 0d                	jne    b059 <main+0x10d>
    b04c:	4c 89 e6             	mov    %r12,%rsi
    b04f:	44 89 ef             	mov    %r13d,%edi
    b052:	e8 07 0a 00 00       	call   ba5e <__Pyx_main>
    b057:	89 c3                	mov    %eax,%ebx
    b059:	45 31 f6             	xor    %r14d,%r14d
    b05c:	45 39 f5             	cmp    %r14d,%r13d
    b05f:	7e 0f                	jle    b070 <main+0x124>
    b061:	4a 8b 7c f5 00       	mov    0x0(%rbp,%r14,8),%rdi
    b066:	49 ff c6             	inc    %r14
    b069:	e8 72 93 ff ff       	call   43e0 <PyMem_RawFree@plt>
    b06e:	eb ec                	jmp    b05c <main+0x110>
    b070:	4c 89 e7             	mov    %r12,%rdi
    b073:	e8 a8 92 ff ff       	call   4320 <free@plt>
    b078:	48 89 ef             	mov    %rbp,%rdi
    b07b:	e8 a0 92 ff ff       	call   4320 <free@plt>
    b080:	48 83 c4 18          	add    $0x18,%rsp
    b084:	89 d8                	mov    %ebx,%eax
    b086:	5b                   	pop    %rbx
    b087:	5d                   	pop    %rbp
    b088:	41 5c                	pop    %r12
    b08a:	41 5d                	pop    %r13
    b08c:	41 5e                	pop    %r14
    b08e:	41 5f                	pop    %r15
    b090:	c3                   	ret
    b091:	66 2e 0f 1f 84 00 00 	cs nopw 0x0(%rax,%rax,1)
    b098:	00 00 00 
    b09b:	0f 1f 44 00 00       	nopl   0x0(%rax,%rax,1)

000000000000b0a0 <_start>:
    b0a0:	f3 0f 1e fa          	endbr64
    b0a4:	31 ed                	xor    %ebp,%ebp
    b0a6:	49 89 d1             	mov    %rdx,%r9
    b0a9:	5e                   	pop    %rsi
    b0aa:	48 89 e2             	mov    %rsp,%rdx
    b0ad:	48 83 e4 f0          	and    $0xfffffffffffffff0,%rsp
    b0b1:	50                   	push   %rax
    b0b2:	54                   	push   %rsp
    b0b3:	45 31 c0             	xor    %r8d,%r8d
    b0b6:	31 c9                	xor    %ecx,%ecx
    b0b8:	48 8d 3d 8d fe ff ff 	lea    -0x173(%rip),%rdi        # af4c <main>
    b0bf:	ff 15 03 af 00 00    	call   *0xaf03(%rip)        # 15fc8 <__libc_start_main@GLIBC_2.34>
    b0c5:	f4                   	hlt
    b0c6:	66 2e 0f 1f 84 00 00 	cs nopw 0x0(%rax,%rax,1)
    b0cd:	00 00 00 
    b0d0:	48 8d 3d c9 b9 00 00 	lea    0xb9c9(%rip),%rdi        # 16aa0 <PyExc_ImportError@@Base>
    b0d7:	48 8d 05 c2 b9 00 00 	lea    0xb9c2(%rip),%rax        # 16aa0 <PyExc_ImportError@@Base>
    b0de:	48 39 f8             	cmp    %rdi,%rax
    b0e1:	74 15                	je     b0f8 <_start+0x58>
    b0e3:	48 8b 05 be ae 00 00 	mov    0xaebe(%rip),%rax        # 15fa8 <_ITM_deregisterTMCloneTable@Base>
    b0ea:	48 85 c0             	test   %rax,%rax
    b0ed:	74 09                	je     b0f8 <_start+0x58>
    b0ef:	ff e0                	jmp    *%rax
    b0f1:	0f 1f 80 00 00 00 00 	nopl   0x0(%rax)
    b0f8:	c3                   	ret
    b0f9:	0f 1f 80 00 00 00 00 	nopl   0x0(%rax)
    b100:	48 8d 3d 99 b9 00 00 	lea    0xb999(%rip),%rdi        # 16aa0 <PyExc_ImportError@@Base>
    b107:	48 8d 35 92 b9 00 00 	lea    0xb992(%rip),%rsi        # 16aa0 <PyExc_ImportError@@Base>
    b10e:	48 29 fe             	sub    %rdi,%rsi
    b111:	48 89 f0             	mov    %rsi,%rax
    b114:	48 c1 ee 3f          	shr    $0x3f,%rsi
    b118:	48 c1 f8 03          	sar    $0x3,%rax
    b11c:	48 01 c6             	add    %rax,%rsi
    b11f:	48 d1 fe             	sar    $1,%rsi
    b122:	74 14                	je     b138 <_start+0x98>
    b124:	48 8b 05 85 ae 00 00 	mov    0xae85(%rip),%rax        # 15fb0 <_ITM_registerTMCloneTable@Base>
    b12b:	48 85 c0             	test   %rax,%rax
    b12e:	74 08                	je     b138 <_start+0x98>
    b130:	ff e0                	jmp    *%rax
    b132:	66 0f 1f 44 00 00    	nopw   0x0(%rax,%rax,1)
    b138:	c3                   	ret
    b139:	0f 1f 80 00 00 00 00 	nopl   0x0(%rax)
    b140:	f3 0f 1e fa          	endbr64
    b144:	80 3d bd ca 00 00 00 	cmpb   $0x0,0xcabd(%rip)        # 17c08 <stderr@GLIBC_2.2.5+0x8>
    b14b:	75 33                	jne    b180 <_start+0xe0>
    b14d:	55                   	push   %rbp
    b14e:	48 83 3d 62 ae 00 00 	cmpq   $0x0,0xae62(%rip)        # 15fb8 <__cxa_finalize@GLIBC_2.2.5>
    b155:	00 
    b156:	48 89 e5             	mov    %rsp,%rbp
    b159:	74 0d                	je     b168 <_start+0xc8>
    b15b:	48 8b 3d 86 b2 00 00 	mov    0xb286(%rip),%rdi        # 163e8 <__dso_handle>
    b162:	ff 15 50 ae 00 00    	call   *0xae50(%rip)        # 15fb8 <__cxa_finalize@GLIBC_2.2.5>
    b168:	e8 63 ff ff ff       	call   b0d0 <_start+0x30>
    b16d:	c6 05 94 ca 00 00 01 	movb   $0x1,0xca94(%rip)        # 17c08 <stderr@GLIBC_2.2.5+0x8>
    b174:	5d                   	pop    %rbp
    b175:	c3                   	ret
    b176:	66 2e 0f 1f 84 00 00 	cs nopw 0x0(%rax,%rax,1)
    b17d:	00 00 00 
    b180:	c3                   	ret
    b181:	66 66 2e 0f 1f 84 00 	data16 cs nopw 0x0(%rax,%rax,1)
    b188:	00 00 00 00 
    b18c:	0f 1f 40 00          	nopl   0x0(%rax)
    b190:	f3 0f 1e fa          	endbr64
    b194:	e9 67 ff ff ff       	jmp    b100 <_start+0x60>

000000000000b199 <Py_XINCREF>:
    b199:	48 85 ff             	test   %rdi,%rdi
    b19c:	74 08                	je     b1a6 <Py_XINCREF+0xd>
    b19e:	8b 07                	mov    (%rdi),%eax
    b1a0:	ff c0                	inc    %eax
    b1a2:	74 02                	je     b1a6 <Py_XINCREF+0xd>
    b1a4:	89 07                	mov    %eax,(%rdi)
    b1a6:	c3                   	ret

000000000000b1a7 <__Pyx_CyFunction_get_qualname>:
    b1a7:	48 8b 57 50          	mov    0x50(%rdi),%rdx
    b1ab:	8b 02                	mov    (%rdx),%eax
    b1ad:	ff c0                	inc    %eax
    b1af:	74 02                	je     b1b3 <__Pyx_CyFunction_get_qualname+0xc>
    b1b1:	89 02                	mov    %eax,(%rdx)
    b1b3:	48 89 d0             	mov    %rdx,%rax
    b1b6:	c3                   	ret

000000000000b1b7 <__Pyx_CyFunction_get_globals>:
    b1b7:	48 8b 57 60          	mov    0x60(%rdi),%rdx
    b1bb:	8b 02                	mov    (%rdx),%eax
    b1bd:	ff c0                	inc    %eax
    b1bf:	74 02                	je     b1c3 <__Pyx_CyFunction_get_globals+0xc>
    b1c1:	89 02                	mov    %eax,(%rdx)
    b1c3:	48 89 d0             	mov    %rdx,%rax
    b1c6:	c3                   	ret

000000000000b1c7 <__Pyx_CyFunction_get_closure>:
    b1c7:	8b 05 53 c8 00 00    	mov    0xc853(%rip),%eax        # 17a20 <_Py_NoneStruct@@Base>
    b1cd:	ff c0                	inc    %eax
    b1cf:	74 06                	je     b1d7 <__Pyx_CyFunction_get_closure+0x10>
    b1d1:	89 05 49 c8 00 00    	mov    %eax,0xc849(%rip)        # 17a20 <_Py_NoneStruct@@Base>
    b1d7:	48 8d 05 42 c8 00 00 	lea    0xc842(%rip),%rax        # 17a20 <_Py_NoneStruct@@Base>
    b1de:	c3                   	ret

000000000000b1df <__Pyx_CyFunction_get_code>:
    b1df:	48 8b 47 68          	mov    0x68(%rdi),%rax
    b1e3:	48 85 c0             	test   %rax,%rax
    b1e6:	75 07                	jne    b1ef <__Pyx_CyFunction_get_code+0x10>
    b1e8:	48 8d 05 31 c8 00 00 	lea    0xc831(%rip),%rax        # 17a20 <_Py_NoneStruct@@Base>
    b1ef:	8b 10                	mov    (%rax),%edx
    b1f1:	ff c2                	inc    %edx
    b1f3:	74 02                	je     b1f7 <__Pyx_CyFunction_get_code+0x18>
    b1f5:	89 10                	mov    %edx,(%rax)
    b1f7:	c3                   	ret

000000000000b1f8 <__Pyx_CyFunction_reduce>:
    b1f8:	eb ad                	jmp    b1a7 <__Pyx_CyFunction_get_qualname>

000000000000b1fa <__Pyx_CyFunction_traverse>:
    b1fa:	41 56                	push   %r14
    b1fc:	41 55                	push   %r13
    b1fe:	41 54                	push   %r12
    b200:	49 89 d4             	mov    %rdx,%r12
    b203:	55                   	push   %rbp
    b204:	48 89 f5             	mov    %rsi,%rbp
    b207:	53                   	push   %rbx
    b208:	48 89 fb             	mov    %rdi,%rbx
    b20b:	48 8b 7f 70          	mov    0x70(%rdi),%rdi
    b20f:	48 85 ff             	test   %rdi,%rdi
    b212:	75 0b                	jne    b21f <__Pyx_CyFunction_traverse+0x25>
    b214:	48 8b 7b 20          	mov    0x20(%rbx),%rdi
    b218:	48 85 ff             	test   %rdi,%rdi
    b21b:	75 10                	jne    b22d <__Pyx_CyFunction_traverse+0x33>
    b21d:	eb 1b                	jmp    b23a <__Pyx_CyFunction_traverse+0x40>
    b21f:	48 89 d6             	mov    %rdx,%rsi
    b222:	ff d5                	call   *%rbp
    b224:	85 c0                	test   %eax,%eax
    b226:	74 ec                	je     b214 <__Pyx_CyFunction_traverse+0x1a>
    b228:	e9 12 01 00 00       	jmp    b33f <__Pyx_CyFunction_traverse+0x145>
    b22d:	4c 89 e6             	mov    %r12,%rsi
    b230:	ff d5                	call   *%rbp
    b232:	85 c0                	test   %eax,%eax
    b234:	0f 85 05 01 00 00    	jne    b33f <__Pyx_CyFunction_traverse+0x145>
    b23a:	48 8b 7b 40          	mov    0x40(%rbx),%rdi
    b23e:	48 85 ff             	test   %rdi,%rdi
    b241:	74 0d                	je     b250 <__Pyx_CyFunction_traverse+0x56>
    b243:	4c 89 e6             	mov    %r12,%rsi
    b246:	ff d5                	call   *%rbp
    b248:	85 c0                	test   %eax,%eax
    b24a:	0f 85 ef 00 00 00    	jne    b33f <__Pyx_CyFunction_traverse+0x145>
    b250:	48 8b 7b 48          	mov    0x48(%rbx),%rdi
    b254:	48 85 ff             	test   %rdi,%rdi
    b257:	74 0d                	je     b266 <__Pyx_CyFunction_traverse+0x6c>
    b259:	4c 89 e6             	mov    %r12,%rsi
    b25c:	ff d5                	call   *%rbp
    b25e:	85 c0                	test   %eax,%eax
    b260:	0f 85 d9 00 00 00    	jne    b33f <__Pyx_CyFunction_traverse+0x145>
    b266:	48 8b 7b 50          	mov    0x50(%rbx),%rdi
    b26a:	48 85 ff             	test   %rdi,%rdi
    b26d:	74 0d                	je     b27c <__Pyx_CyFunction_traverse+0x82>
    b26f:	4c 89 e6             	mov    %r12,%rsi
    b272:	ff d5                	call   *%rbp
    b274:	85 c0                	test   %eax,%eax
    b276:	0f 85 c3 00 00 00    	jne    b33f <__Pyx_CyFunction_traverse+0x145>
    b27c:	48 8b 7b 58          	mov    0x58(%rbx),%rdi
    b280:	48 85 ff             	test   %rdi,%rdi
    b283:	74 0d                	je     b292 <__Pyx_CyFunction_traverse+0x98>
    b285:	4c 89 e6             	mov    %r12,%rsi
    b288:	ff d5                	call   *%rbp
    b28a:	85 c0                	test   %eax,%eax
    b28c:	0f 85 ad 00 00 00    	jne    b33f <__Pyx_CyFunction_traverse+0x145>
    b292:	48 8b 7b 60          	mov    0x60(%rbx),%rdi
    b296:	48 85 ff             	test   %rdi,%rdi
    b299:	74 0d                	je     b2a8 <__Pyx_CyFunction_traverse+0xae>
    b29b:	4c 89 e6             	mov    %r12,%rsi
    b29e:	ff d5                	call   *%rbp
    b2a0:	85 c0                	test   %eax,%eax
    b2a2:	0f 85 97 00 00 00    	jne    b33f <__Pyx_CyFunction_traverse+0x145>
    b2a8:	48 8b 7b 68          	mov    0x68(%rbx),%rdi
    b2ac:	48 85 ff             	test   %rdi,%rdi
    b2af:	74 0d                	je     b2be <__Pyx_CyFunction_traverse+0xc4>
    b2b1:	4c 89 e6             	mov    %r12,%rsi
    b2b4:	ff d5                	call   *%rbp
    b2b6:	85 c0                	test   %eax,%eax
    b2b8:	0f 85 81 00 00 00    	jne    b33f <__Pyx_CyFunction_traverse+0x145>
    b2be:	48 8b 7b 38          	mov    0x38(%rbx),%rdi
    b2c2:	48 85 ff             	test   %rdi,%rdi
    b2c5:	74 09                	je     b2d0 <__Pyx_CyFunction_traverse+0xd6>
    b2c7:	4c 89 e6             	mov    %r12,%rsi
    b2ca:	ff d5                	call   *%rbp
    b2cc:	85 c0                	test   %eax,%eax
    b2ce:	75 6f                	jne    b33f <__Pyx_CyFunction_traverse+0x145>
    b2d0:	48 8b bb 98 00 00 00 	mov    0x98(%rbx),%rdi
    b2d7:	48 85 ff             	test   %rdi,%rdi
    b2da:	74 09                	je     b2e5 <__Pyx_CyFunction_traverse+0xeb>
    b2dc:	4c 89 e6             	mov    %r12,%rsi
    b2df:	ff d5                	call   *%rbp
    b2e1:	85 c0                	test   %eax,%eax
    b2e3:	75 5a                	jne    b33f <__Pyx_CyFunction_traverse+0x145>
    b2e5:	48 8b bb a0 00 00 00 	mov    0xa0(%rbx),%rdi
    b2ec:	48 85 ff             	test   %rdi,%rdi
    b2ef:	74 09                	je     b2fa <__Pyx_CyFunction_traverse+0x100>
    b2f1:	4c 89 e6             	mov    %r12,%rsi
    b2f4:	ff d5                	call   *%rbp
    b2f6:	85 c0                	test   %eax,%eax
    b2f8:	75 45                	jne    b33f <__Pyx_CyFunction_traverse+0x145>
    b2fa:	48 8b bb b8 00 00 00 	mov    0xb8(%rbx),%rdi
    b301:	48 85 ff             	test   %rdi,%rdi
    b304:	74 09                	je     b30f <__Pyx_CyFunction_traverse+0x115>
    b306:	4c 89 e6             	mov    %r12,%rsi
    b309:	ff d5                	call   *%rbp
    b30b:	85 c0                	test   %eax,%eax
    b30d:	75 30                	jne    b33f <__Pyx_CyFunction_traverse+0x145>
    b30f:	4c 8b 73 78          	mov    0x78(%rbx),%r14
    b313:	45 31 ed             	xor    %r13d,%r13d
    b316:	4d 85 f6             	test   %r14,%r14
    b319:	75 0e                	jne    b329 <__Pyx_CyFunction_traverse+0x12f>
    b31b:	eb 15                	jmp    b332 <__Pyx_CyFunction_traverse+0x138>
    b31d:	4b 8b 3c ee          	mov    (%r14,%r13,8),%rdi
    b321:	48 85 ff             	test   %rdi,%rdi
    b324:	75 10                	jne    b336 <__Pyx_CyFunction_traverse+0x13c>
    b326:	49 ff c5             	inc    %r13
    b329:	44 39 ab 80 00 00 00 	cmp    %r13d,0x80(%rbx)
    b330:	7f eb                	jg     b31d <__Pyx_CyFunction_traverse+0x123>
    b332:	31 c0                	xor    %eax,%eax
    b334:	eb 09                	jmp    b33f <__Pyx_CyFunction_traverse+0x145>
    b336:	4c 89 e6             	mov    %r12,%rsi
    b339:	ff d5                	call   *%rbp
    b33b:	85 c0                	test   %eax,%eax
    b33d:	74 e7                	je     b326 <__Pyx_CyFunction_traverse+0x12c>
    b33f:	5b                   	pop    %rbx
    b340:	5d                   	pop    %rbp
    b341:	41 5c                	pop    %r12
    b343:	41 5d                	pop    %r13
    b345:	41 5e                	pop    %r14
    b347:	c3                   	ret

000000000000b348 <__pyx_bisect_code_objects>:
    b348:	48 89 f9             	mov    %rdi,%rcx
    b34b:	89 f0                	mov    %esi,%eax
    b34d:	ff ce                	dec    %esi
    b34f:	78 36                	js     b387 <__pyx_bisect_code_objects+0x3f>
    b351:	48 63 fe             	movslq %esi,%rdi
    b354:	48 c1 e7 04          	shl    $0x4,%rdi
    b358:	39 54 39 08          	cmp    %edx,0x8(%rcx,%rdi,1)
    b35c:	7c 3a                	jl     b398 <__pyx_bisect_code_objects+0x50>
    b35e:	31 c0                	xor    %eax,%eax
    b360:	31 ff                	xor    %edi,%edi
    b362:	39 f7                	cmp    %esi,%edi
    b364:	7d 23                	jge    b389 <__pyx_bisect_code_objects+0x41>
    b366:	89 f0                	mov    %esi,%eax
    b368:	29 f8                	sub    %edi,%eax
    b36a:	d1 f8                	sar    $1,%eax
    b36c:	01 f8                	add    %edi,%eax
    b36e:	4c 63 c0             	movslq %eax,%r8
    b371:	49 c1 e0 04          	shl    $0x4,%r8
    b375:	42 39 54 01 08       	cmp    %edx,0x8(%rcx,%r8,1)
    b37a:	7f 07                	jg     b383 <__pyx_bisect_code_objects+0x3b>
    b37c:	7d 1a                	jge    b398 <__pyx_bisect_code_objects+0x50>
    b37e:	8d 78 01             	lea    0x1(%rax),%edi
    b381:	eb df                	jmp    b362 <__pyx_bisect_code_objects+0x1a>
    b383:	89 c6                	mov    %eax,%esi
    b385:	eb db                	jmp    b362 <__pyx_bisect_code_objects+0x1a>
    b387:	31 c0                	xor    %eax,%eax
    b389:	48 63 f0             	movslq %eax,%rsi
    b38c:	48 c1 e6 04          	shl    $0x4,%rsi
    b390:	39 54 31 08          	cmp    %edx,0x8(%rcx,%rsi,1)
    b394:	7d 02                	jge    b398 <__pyx_bisect_code_objects+0x50>
    b396:	ff c0                	inc    %eax
    b398:	c3                   	ret

000000000000b399 <__Pyx_CyFunction_get_annotations>:
    b399:	48 8b 87 b0 00 00 00 	mov    0xb0(%rdi),%rax
    b3a0:	48 85 c0             	test   %rax,%rax
    b3a3:	75 1f                	jne    b3c4 <__Pyx_CyFunction_get_annotations+0x2b>
    b3a5:	53                   	push   %rbx
    b3a6:	48 89 fb             	mov    %rdi,%rbx
    b3a9:	e8 22 94 ff ff       	call   47d0 <PyDict_New@plt>
    b3ae:	48 85 c0             	test   %rax,%rax
    b3b1:	74 0f                	je     b3c2 <__Pyx_CyFunction_get_annotations+0x29>
    b3b3:	8b 10                	mov    (%rax),%edx
    b3b5:	48 89 83 b0 00 00 00 	mov    %rax,0xb0(%rbx)
    b3bc:	ff c2                	inc    %edx
    b3be:	74 02                	je     b3c2 <__Pyx_CyFunction_get_annotations+0x29>
    b3c0:	89 10                	mov    %edx,(%rax)
    b3c2:	5b                   	pop    %rbx
    b3c3:	c3                   	ret
    b3c4:	8b 10                	mov    (%rax),%edx
    b3c6:	ff c2                	inc    %edx
    b3c8:	74 03                	je     b3cd <__Pyx_CyFunction_get_annotations+0x34>
    b3ca:	89 10                	mov    %edx,(%rax)
    b3cc:	c3                   	ret
    b3cd:	c3                   	ret

000000000000b3ce <__Pyx_CyFunction_get_dict>:
    b3ce:	48 8b 47 40          	mov    0x40(%rdi),%rax
    b3d2:	48 85 c0             	test   %rax,%rax
    b3d5:	75 1c                	jne    b3f3 <__Pyx_CyFunction_get_dict+0x25>
    b3d7:	53                   	push   %rbx
    b3d8:	48 89 fb             	mov    %rdi,%rbx
    b3db:	e8 f0 93 ff ff       	call   47d0 <PyDict_New@plt>
    b3e0:	48 89 43 40          	mov    %rax,0x40(%rbx)
    b3e4:	48 85 c0             	test   %rax,%rax
    b3e7:	74 08                	je     b3f1 <__Pyx_CyFunction_get_dict+0x23>
    b3e9:	8b 10                	mov    (%rax),%edx
    b3eb:	ff c2                	inc    %edx
    b3ed:	74 02                	je     b3f1 <__Pyx_CyFunction_get_dict+0x23>
    b3ef:	89 10                	mov    %edx,(%rax)
    b3f1:	5b                   	pop    %rbx
    b3f2:	c3                   	ret
    b3f3:	8b 10                	mov    (%rax),%edx
    b3f5:	ff c2                	inc    %edx
    b3f7:	74 03                	je     b3fc <__Pyx_CyFunction_get_dict+0x2e>
    b3f9:	89 10                	mov    %edx,(%rax)
    b3fb:	c3                   	ret
    b3fc:	c3                   	ret

000000000000b3fd <__Pyx_CyFunction_get_name>:
    b3fd:	48 8b 47 48          	mov    0x48(%rdi),%rax
    b401:	48 85 c0             	test   %rax,%rax
    b404:	75 23                	jne    b429 <__Pyx_CyFunction_get_name+0x2c>
    b406:	53                   	push   %rbx
    b407:	48 8b 47 10          	mov    0x10(%rdi),%rax
    b40b:	48 89 fb             	mov    %rdi,%rbx
    b40e:	48 8b 38             	mov    (%rax),%rdi
    b411:	e8 5a 8f ff ff       	call   4370 <PyUnicode_InternFromString@plt>
    b416:	48 89 43 48          	mov    %rax,0x48(%rbx)
    b41a:	48 85 c0             	test   %rax,%rax
    b41d:	74 08                	je     b427 <__Pyx_CyFunction_get_name+0x2a>
    b41f:	8b 10                	mov    (%rax),%edx
    b421:	ff c2                	inc    %edx
    b423:	74 02                	je     b427 <__Pyx_CyFunction_get_name+0x2a>
    b425:	89 10                	mov    %edx,(%rax)
    b427:	5b                   	pop    %rbx
    b428:	c3                   	ret
    b429:	8b 10                	mov    (%rax),%edx
    b42b:	ff c2                	inc    %edx
    b42d:	74 03                	je     b432 <__Pyx_CyFunction_get_name+0x35>
    b42f:	89 10                	mov    %edx,(%rax)
    b431:	c3                   	ret
    b432:	c3                   	ret

000000000000b433 <__Pyx_CyFunction_repr>:
    b433:	48 8b 77 50          	mov    0x50(%rdi),%rsi
    b437:	48 89 fa             	mov    %rdi,%rdx
    b43a:	31 c0                	xor    %eax,%eax
    b43c:	48 8d 3d c1 6b 00 00 	lea    0x6bc1(%rip),%rdi        # 12004 <_IO_stdin_used+0x4>
    b443:	e9 f8 8d ff ff       	jmp    4240 <PyUnicode_FromFormat@plt>

000000000000b448 <__Pyx_PyObject_Call>:
    b448:	55                   	push   %rbp
    b449:	53                   	push   %rbx
    b44a:	48 89 fb             	mov    %rdi,%rbx
    b44d:	48 83 ec 18          	sub    $0x18,%rsp
    b451:	48 8b 47 08          	mov    0x8(%rdi),%rax
    b455:	48 8b a8 80 00 00 00 	mov    0x80(%rax),%rbp
    b45c:	48 85 ed             	test   %rbp,%rbp
    b45f:	75 0b                	jne    b46c <__Pyx_PyObject_Call+0x24>
    b461:	48 83 c4 18          	add    $0x18,%rsp
    b465:	5b                   	pop    %rbx
    b466:	5d                   	pop    %rbp
    b467:	e9 54 91 ff ff       	jmp    45c0 <PyObject_Call@plt>
    b46c:	48 8d 3d a7 6b 00 00 	lea    0x6ba7(%rip),%rdi        # 1201a <_IO_stdin_used+0x1a>
    b473:	48 89 54 24 08       	mov    %rdx,0x8(%rsp)
    b478:	48 89 34 24          	mov    %rsi,(%rsp)
    b47c:	e8 ef 8d ff ff       	call   4270 <Py_EnterRecursiveCall@plt>
    b481:	48 8b 34 24          	mov    (%rsp),%rsi
    b485:	48 8b 54 24 08       	mov    0x8(%rsp),%rdx
    b48a:	85 c0                	test   %eax,%eax
    b48c:	74 04                	je     b492 <__Pyx_PyObject_Call+0x4a>
    b48e:	31 c0                	xor    %eax,%eax
    b490:	eb 36                	jmp    b4c8 <__Pyx_PyObject_Call+0x80>
    b492:	48 89 df             	mov    %rbx,%rdi
    b495:	ff d5                	call   *%rbp
    b497:	48 89 04 24          	mov    %rax,(%rsp)
    b49b:	e8 e0 8f ff ff       	call   4480 <Py_LeaveRecursiveCall@plt>
    b4a0:	48 8b 04 24          	mov    (%rsp),%rax
    b4a4:	48 85 c0             	test   %rax,%rax
    b4a7:	75 1f                	jne    b4c8 <__Pyx_PyObject_Call+0x80>
    b4a9:	e8 42 8e ff ff       	call   42f0 <PyErr_Occurred@plt>
    b4ae:	48 85 c0             	test   %rax,%rax
    b4b1:	75 db                	jne    b48e <__Pyx_PyObject_Call+0x46>
    b4b3:	48 8b 3d a6 b7 00 00 	mov    0xb7a6(%rip),%rdi        # 16c60 <PyExc_SystemError@@Base>
    b4ba:	48 8d 35 78 6b 00 00 	lea    0x6b78(%rip),%rsi        # 12039 <_IO_stdin_used+0x39>
    b4c1:	e8 3a 92 ff ff       	call   4700 <PyErr_SetString@plt>
    b4c6:	eb c6                	jmp    b48e <__Pyx_PyObject_Call+0x46>
    b4c8:	48 83 c4 18          	add    $0x18,%rsp
    b4cc:	5b                   	pop    %rbx
    b4cd:	5d                   	pop    %rbp
    b4ce:	c3                   	ret

000000000000b4cf <__Pyx_PyObject_CallMethO>:
    b4cf:	41 54                	push   %r12
    b4d1:	55                   	push   %rbp
    b4d2:	31 ed                	xor    %ebp,%ebp
    b4d4:	48 83 ec 18          	sub    $0x18,%rsp
    b4d8:	48 8b 47 10          	mov    0x10(%rdi),%rax
    b4dc:	4c 8b 60 08          	mov    0x8(%rax),%r12
    b4e0:	f6 40 10 20          	testb  $0x20,0x10(%rax)
    b4e4:	75 04                	jne    b4ea <__Pyx_PyObject_CallMethO+0x1b>
    b4e6:	48 8b 6f 18          	mov    0x18(%rdi),%rbp
    b4ea:	48 8d 3d 29 6b 00 00 	lea    0x6b29(%rip),%rdi        # 1201a <_IO_stdin_used+0x1a>
    b4f1:	48 89 74 24 08       	mov    %rsi,0x8(%rsp)
    b4f6:	e8 75 8d ff ff       	call   4270 <Py_EnterRecursiveCall@plt>
    b4fb:	48 8b 74 24 08       	mov    0x8(%rsp),%rsi
    b500:	85 c0                	test   %eax,%eax
    b502:	74 04                	je     b508 <__Pyx_PyObject_CallMethO+0x39>
    b504:	31 c0                	xor    %eax,%eax
    b506:	eb 39                	jmp    b541 <__Pyx_PyObject_CallMethO+0x72>
    b508:	48 89 ef             	mov    %rbp,%rdi
    b50b:	41 ff d4             	call   *%r12
    b50e:	48 89 44 24 08       	mov    %rax,0x8(%rsp)
    b513:	e8 68 8f ff ff       	call   4480 <Py_LeaveRecursiveCall@plt>
    b518:	48 8b 44 24 08       	mov    0x8(%rsp),%rax
    b51d:	48 85 c0             	test   %rax,%rax
    b520:	75 1f                	jne    b541 <__Pyx_PyObject_CallMethO+0x72>
    b522:	e8 c9 8d ff ff       	call   42f0 <PyErr_Occurred@plt>
    b527:	48 85 c0             	test   %rax,%rax
    b52a:	75 d8                	jne    b504 <__Pyx_PyObject_CallMethO+0x35>
    b52c:	48 8b 3d 2d b7 00 00 	mov    0xb72d(%rip),%rdi        # 16c60 <PyExc_SystemError@@Base>
    b533:	48 8d 35 ff 6a 00 00 	lea    0x6aff(%rip),%rsi        # 12039 <_IO_stdin_used+0x39>
    b53a:	e8 c1 91 ff ff       	call   4700 <PyErr_SetString@plt>
    b53f:	eb c3                	jmp    b504 <__Pyx_PyObject_CallMethO+0x35>
    b541:	48 83 c4 18          	add    $0x18,%rsp
    b545:	5d                   	pop    %rbp
    b546:	41 5c                	pop    %r12
    b548:	c3                   	ret

000000000000b549 <__Pyx_PyObject_IsTrue>:
    b549:	48 8d 05 b0 bf 00 00 	lea    0xbfb0(%rip),%rax        # 17500 <_Py_TrueStruct@@Base>
    b550:	48 8d 15 e9 bd 00 00 	lea    0xbde9(%rip),%rdx        # 17340 <_Py_FalseStruct@@Base>
    b557:	48 39 c7             	cmp    %rax,%rdi
    b55a:	0f 94 c0             	sete   %al
    b55d:	48 39 d7             	cmp    %rdx,%rdi
    b560:	0f 94 c2             	sete   %dl
    b563:	08 c2                	or     %al,%dl
    b565:	75 11                	jne    b578 <__Pyx_PyObject_IsTrue+0x2f>
    b567:	48 8d 15 b2 c4 00 00 	lea    0xc4b2(%rip),%rdx        # 17a20 <_Py_NoneStruct@@Base>
    b56e:	48 39 d7             	cmp    %rdx,%rdi
    b571:	74 05                	je     b578 <__Pyx_PyObject_IsTrue+0x2f>
    b573:	e9 18 8c ff ff       	jmp    4190 <PyObject_IsTrue@plt>
    b578:	0f b6 c0             	movzbl %al,%eax
    b57b:	c3                   	ret

000000000000b57c <__Pyx_PyObject_GetAttrStr>:
    b57c:	48 8b 47 08          	mov    0x8(%rdi),%rax
    b580:	48 8b 80 90 00 00 00 	mov    0x90(%rax),%rax
    b587:	48 85 c0             	test   %rax,%rax
    b58a:	74 02                	je     b58e <__Pyx_PyObject_GetAttrStr+0x12>
    b58c:	ff e0                	jmp    *%rax
    b58e:	e9 3d 8d ff ff       	jmp    42d0 <PyObject_GetAttr@plt>

000000000000b593 <__Pyx_CyFunction_init_defaults>:
    b593:	53                   	push   %rbx
    b594:	48 89 fb             	mov    %rdi,%rbx
    b597:	ff 97 a8 00 00 00    	call   *0xa8(%rdi)
    b59d:	48 85 c0             	test   %rax,%rax
    b5a0:	74 6f                	je     b611 <__Pyx_CyFunction_init_defaults+0x7e>
    b5a2:	48 89 c7             	mov    %rax,%rdi
    b5a5:	48 8b 40 08          	mov    0x8(%rax),%rax
    b5a9:	f6 80 ab 00 00 00 04 	testb  $0x4,0xab(%rax)
    b5b0:	75 1f                	jne    b5d1 <__Pyx_CyFunction_init_defaults+0x3e>
    b5b2:	48 8d 0d a7 78 00 00 	lea    0x78a7(%rip),%rcx        # 12e60 <__PRETTY_FUNCTION__.12>
    b5b9:	ba 46 21 00 00       	mov    $0x2146,%edx
    b5be:	48 8d 35 9f 6a 00 00 	lea    0x6a9f(%rip),%rsi        # 12064 <_IO_stdin_used+0x64>
    b5c5:	48 8d 3d a5 6a 00 00 	lea    0x6aa5(%rip),%rdi        # 12071 <_IO_stdin_used+0x71>
    b5cc:	e8 4f 8b ff ff       	call   4120 <__assert_fail@plt>
    b5d1:	48 8b 57 18          	mov    0x18(%rdi),%rdx
    b5d5:	8b 02                	mov    (%rdx),%eax
    b5d7:	48 89 93 98 00 00 00 	mov    %rdx,0x98(%rbx)
    b5de:	ff c0                	inc    %eax
    b5e0:	74 02                	je     b5e4 <__Pyx_CyFunction_init_defaults+0x51>
    b5e2:	89 02                	mov    %eax,(%rdx)
    b5e4:	48 8b 57 20          	mov    0x20(%rdi),%rdx
    b5e8:	8b 02                	mov    (%rdx),%eax
    b5ea:	48 89 93 a0 00 00 00 	mov    %rdx,0xa0(%rbx)
    b5f1:	ff c0                	inc    %eax
    b5f3:	74 02                	je     b5f7 <__Pyx_CyFunction_init_defaults+0x64>
    b5f5:	89 02                	mov    %eax,(%rdx)
    b5f7:	48 8b 07             	mov    (%rdi),%rax
    b5fa:	85 c0                	test   %eax,%eax
    b5fc:	79 04                	jns    b602 <__Pyx_CyFunction_init_defaults+0x6f>
    b5fe:	31 c0                	xor    %eax,%eax
    b600:	eb 12                	jmp    b614 <__Pyx_CyFunction_init_defaults+0x81>
    b602:	48 ff c8             	dec    %rax
    b605:	48 89 07             	mov    %rax,(%rdi)
    b608:	75 f4                	jne    b5fe <__Pyx_CyFunction_init_defaults+0x6b>
    b60a:	e8 41 90 ff ff       	call   4650 <_Py_Dealloc@plt>
    b60f:	eb ed                	jmp    b5fe <__Pyx_CyFunction_init_defaults+0x6b>
    b611:	83 c8 ff             	or     $0xffffffff,%eax
    b614:	5b                   	pop    %rbx
    b615:	c3                   	ret

000000000000b616 <__Pyx_CyFunction_get_kwdefaults>:
    b616:	55                   	push   %rbp
    b617:	53                   	push   %rbx
    b618:	51                   	push   %rcx
    b619:	48 8b 9f a0 00 00 00 	mov    0xa0(%rdi),%rbx
    b620:	48 85 db             	test   %rbx,%rbx
    b623:	75 26                	jne    b64b <__Pyx_CyFunction_get_kwdefaults+0x35>
    b625:	48 83 bf a8 00 00 00 	cmpq   $0x0,0xa8(%rdi)
    b62c:	00 
    b62d:	48 89 fd             	mov    %rdi,%rbp
    b630:	74 12                	je     b644 <__Pyx_CyFunction_get_kwdefaults+0x2e>
    b632:	e8 5c ff ff ff       	call   b593 <__Pyx_CyFunction_init_defaults>
    b637:	ff c0                	inc    %eax
    b639:	74 18                	je     b653 <__Pyx_CyFunction_get_kwdefaults+0x3d>
    b63b:	48 8b 9d a0 00 00 00 	mov    0xa0(%rbp),%rbx
    b642:	eb 07                	jmp    b64b <__Pyx_CyFunction_get_kwdefaults+0x35>
    b644:	48 8d 1d d5 c3 00 00 	lea    0xc3d5(%rip),%rbx        # 17a20 <_Py_NoneStruct@@Base>
    b64b:	8b 03                	mov    (%rbx),%eax
    b64d:	ff c0                	inc    %eax
    b64f:	74 02                	je     b653 <__Pyx_CyFunction_get_kwdefaults+0x3d>
    b651:	89 03                	mov    %eax,(%rbx)
    b653:	48 89 d8             	mov    %rbx,%rax
    b656:	5a                   	pop    %rdx
    b657:	5b                   	pop    %rbx
    b658:	5d                   	pop    %rbp
    b659:	c3                   	ret

000000000000b65a <__Pyx_CyFunction_get_defaults>:
    b65a:	55                   	push   %rbp
    b65b:	53                   	push   %rbx
    b65c:	51                   	push   %rcx
    b65d:	48 8b 9f 98 00 00 00 	mov    0x98(%rdi),%rbx
    b664:	48 85 db             	test   %rbx,%rbx
    b667:	75 26                	jne    b68f <__Pyx_CyFunction_get_defaults+0x35>
    b669:	48 83 bf a8 00 00 00 	cmpq   $0x0,0xa8(%rdi)
    b670:	00 
    b671:	48 89 fd             	mov    %rdi,%rbp
    b674:	74 12                	je     b688 <__Pyx_CyFunction_get_defaults+0x2e>
    b676:	e8 18 ff ff ff       	call   b593 <__Pyx_CyFunction_init_defaults>
    b67b:	ff c0                	inc    %eax
    b67d:	74 18                	je     b697 <__Pyx_CyFunction_get_defaults+0x3d>
    b67f:	48 8b 9d 98 00 00 00 	mov    0x98(%rbp),%rbx
    b686:	eb 07                	jmp    b68f <__Pyx_CyFunction_get_defaults+0x35>
    b688:	48 8d 1d 91 c3 00 00 	lea    0xc391(%rip),%rbx        # 17a20 <_Py_NoneStruct@@Base>
    b68f:	8b 03                	mov    (%rbx),%eax
    b691:	ff c0                	inc    %eax
    b693:	74 02                	je     b697 <__Pyx_CyFunction_get_defaults+0x3d>
    b695:	89 03                	mov    %eax,(%rbx)
    b697:	48 89 d8             	mov    %rbx,%rax
    b69a:	5a                   	pop    %rdx
    b69b:	5b                   	pop    %rbx
    b69c:	5d                   	pop    %rbp
    b69d:	c3                   	ret

000000000000b69e <Py_XDECREF>:
    b69e:	48 85 ff             	test   %rdi,%rdi
    b6a1:	74 14                	je     b6b7 <Py_XDECREF+0x19>
    b6a3:	48 8b 07             	mov    (%rdi),%rax
    b6a6:	85 c0                	test   %eax,%eax
    b6a8:	78 0d                	js     b6b7 <Py_XDECREF+0x19>
    b6aa:	48 ff c8             	dec    %rax
    b6ad:	48 89 07             	mov    %rax,(%rdi)
    b6b0:	75 05                	jne    b6b7 <Py_XDECREF+0x19>
    b6b2:	e9 99 8f ff ff       	jmp    4650 <_Py_Dealloc@plt>
    b6b7:	c3                   	ret

000000000000b6b8 <__Pyx_CyFunction_set_kwdefaults>:
    b6b8:	48 85 f6             	test   %rsi,%rsi
    b6bb:	55                   	push   %rbp
    b6bc:	48 89 fd             	mov    %rdi,%rbp
    b6bf:	48 8d 05 5a c3 00 00 	lea    0xc35a(%rip),%rax        # 17a20 <_Py_NoneStruct@@Base>
    b6c6:	53                   	push   %rbx
    b6c7:	51                   	push   %rcx
    b6c8:	74 2d                	je     b6f7 <__Pyx_CyFunction_set_kwdefaults+0x3f>
    b6ca:	48 89 f3             	mov    %rsi,%rbx
    b6cd:	48 39 c6             	cmp    %rax,%rsi
    b6d0:	74 28                	je     b6fa <__Pyx_CyFunction_set_kwdefaults+0x42>
    b6d2:	48 8b 46 08          	mov    0x8(%rsi),%rax
    b6d6:	f6 80 ab 00 00 00 20 	testb  $0x20,0xab(%rax)
    b6dd:	75 1b                	jne    b6fa <__Pyx_CyFunction_set_kwdefaults+0x42>
    b6df:	48 8b 3d 3a b7 00 00 	mov    0xb73a(%rip),%rdi        # 16e20 <PyExc_TypeError@@Base>
    b6e6:	48 8d 35 97 69 00 00 	lea    0x6997(%rip),%rsi        # 12084 <_IO_stdin_used+0x84>
    b6ed:	e8 0e 90 ff ff       	call   4700 <PyErr_SetString@plt>
    b6f2:	83 c8 ff             	or     $0xffffffff,%eax
    b6f5:	eb 38                	jmp    b72f <__Pyx_CyFunction_set_kwdefaults+0x77>
    b6f7:	48 89 c3             	mov    %rax,%rbx
    b6fa:	48 8b 3d e7 b8 00 00 	mov    0xb8e7(%rip),%rdi        # 16fe8 <PyExc_RuntimeWarning@@Base>
    b701:	ba 01 00 00 00       	mov    $0x1,%edx
    b706:	48 8d 35 a3 69 00 00 	lea    0x69a3(%rip),%rsi        # 120b0 <_IO_stdin_used+0xb0>
    b70d:	e8 9e 8d ff ff       	call   44b0 <PyErr_WarnEx@plt>
    b712:	8b 03                	mov    (%rbx),%eax
    b714:	ff c0                	inc    %eax
    b716:	74 02                	je     b71a <__Pyx_CyFunction_set_kwdefaults+0x62>
    b718:	89 03                	mov    %eax,(%rbx)
    b71a:	48 8b bd a0 00 00 00 	mov    0xa0(%rbp),%rdi
    b721:	48 89 9d a0 00 00 00 	mov    %rbx,0xa0(%rbp)
    b728:	e8 71 ff ff ff       	call   b69e <Py_XDECREF>
    b72d:	31 c0                	xor    %eax,%eax
    b72f:	5a                   	pop    %rdx
    b730:	5b                   	pop    %rbx
    b731:	5d                   	pop    %rbp
    b732:	c3                   	ret

000000000000b733 <__Pyx_CyFunction_set_defaults>:
    b733:	48 85 f6             	test   %rsi,%rsi
    b736:	55                   	push   %rbp
    b737:	48 89 fd             	mov    %rdi,%rbp
    b73a:	48 8d 05 df c2 00 00 	lea    0xc2df(%rip),%rax        # 17a20 <_Py_NoneStruct@@Base>
    b741:	53                   	push   %rbx
    b742:	51                   	push   %rcx
    b743:	74 2d                	je     b772 <__Pyx_CyFunction_set_defaults+0x3f>
    b745:	48 89 f3             	mov    %rsi,%rbx
    b748:	48 39 c6             	cmp    %rax,%rsi
    b74b:	74 28                	je     b775 <__Pyx_CyFunction_set_defaults+0x42>
    b74d:	48 8b 46 08          	mov    0x8(%rsi),%rax
    b751:	f6 80 ab 00 00 00 04 	testb  $0x4,0xab(%rax)
    b758:	75 1b                	jne    b775 <__Pyx_CyFunction_set_defaults+0x42>
    b75a:	48 8b 3d bf b6 00 00 	mov    0xb6bf(%rip),%rdi        # 16e20 <PyExc_TypeError@@Base>
    b761:	48 8d 35 a9 69 00 00 	lea    0x69a9(%rip),%rsi        # 12111 <_IO_stdin_used+0x111>
    b768:	e8 93 8f ff ff       	call   4700 <PyErr_SetString@plt>
    b76d:	83 c8 ff             	or     $0xffffffff,%eax
    b770:	eb 38                	jmp    b7aa <__Pyx_CyFunction_set_defaults+0x77>
    b772:	48 89 c3             	mov    %rax,%rbx
    b775:	48 8b 3d 6c b8 00 00 	mov    0xb86c(%rip),%rdi        # 16fe8 <PyExc_RuntimeWarning@@Base>
    b77c:	ba 01 00 00 00       	mov    $0x1,%edx
    b781:	48 8d 35 b4 69 00 00 	lea    0x69b4(%rip),%rsi        # 1213c <_IO_stdin_used+0x13c>
    b788:	e8 23 8d ff ff       	call   44b0 <PyErr_WarnEx@plt>
    b78d:	8b 03                	mov    (%rbx),%eax
    b78f:	ff c0                	inc    %eax
    b791:	74 02                	je     b795 <__Pyx_CyFunction_set_defaults+0x62>
    b793:	89 03                	mov    %eax,(%rbx)
    b795:	48 8b bd 98 00 00 00 	mov    0x98(%rbp),%rdi
    b79c:	48 89 9d 98 00 00 00 	mov    %rbx,0x98(%rbp)
    b7a3:	e8 f6 fe ff ff       	call   b69e <Py_XDECREF>
    b7a8:	31 c0                	xor    %eax,%eax
    b7aa:	5a                   	pop    %rdx
    b7ab:	5b                   	pop    %rbx
    b7ac:	5d                   	pop    %rbp
    b7ad:	c3                   	ret

000000000000b7ae <__Pyx_CyFunction_set_dict>:
    b7ae:	51                   	push   %rcx
    b7af:	48 85 f6             	test   %rsi,%rsi
    b7b2:	75 09                	jne    b7bd <__Pyx_CyFunction_set_dict+0xf>
    b7b4:	48 8d 35 e0 69 00 00 	lea    0x69e0(%rip),%rsi        # 1219b <_IO_stdin_used+0x19b>
    b7bb:	eb 14                	jmp    b7d1 <__Pyx_CyFunction_set_dict+0x23>
    b7bd:	48 8b 46 08          	mov    0x8(%rsi),%rax
    b7c1:	f6 80 ab 00 00 00 20 	testb  $0x20,0xab(%rax)
    b7c8:	75 18                	jne    b7e2 <__Pyx_CyFunction_set_dict+0x34>
    b7ca:	48 8d 35 f3 69 00 00 	lea    0x69f3(%rip),%rsi        # 121c4 <_IO_stdin_used+0x1c4>
    b7d1:	48 8b 3d 48 b6 00 00 	mov    0xb648(%rip),%rdi        # 16e20 <PyExc_TypeError@@Base>
    b7d8:	e8 23 8f ff ff       	call   4700 <PyErr_SetString@plt>
    b7dd:	83 c8 ff             	or     $0xffffffff,%eax
    b7e0:	eb 1a                	jmp    b7fc <__Pyx_CyFunction_set_dict+0x4e>
    b7e2:	8b 06                	mov    (%rsi),%eax
    b7e4:	ff c0                	inc    %eax
    b7e6:	74 02                	je     b7ea <__Pyx_CyFunction_set_dict+0x3c>
    b7e8:	89 06                	mov    %eax,(%rsi)
    b7ea:	48 8b 47 40          	mov    0x40(%rdi),%rax
    b7ee:	48 89 77 40          	mov    %rsi,0x40(%rdi)
    b7f2:	48 89 c7             	mov    %rax,%rdi
    b7f5:	e8 a4 fe ff ff       	call   b69e <Py_XDECREF>
    b7fa:	31 c0                	xor    %eax,%eax
    b7fc:	5a                   	pop    %rdx
    b7fd:	c3                   	ret

000000000000b7fe <__Pyx_CyFunction_set_doc>:
    b7fe:	51                   	push   %rcx
    b7ff:	48 85 f6             	test   %rsi,%rsi
    b802:	75 07                	jne    b80b <__Pyx_CyFunction_set_doc+0xd>
    b804:	48 8d 35 15 c2 00 00 	lea    0xc215(%rip),%rsi        # 17a20 <_Py_NoneStruct@@Base>
    b80b:	8b 06                	mov    (%rsi),%eax
    b80d:	ff c0                	inc    %eax
    b80f:	74 02                	je     b813 <__Pyx_CyFunction_set_doc+0x15>
    b811:	89 06                	mov    %eax,(%rsi)
    b813:	48 8b 47 58          	mov    0x58(%rdi),%rax
    b817:	48 89 77 58          	mov    %rsi,0x58(%rdi)
    b81b:	48 89 c7             	mov    %rax,%rdi
    b81e:	e8 7b fe ff ff       	call   b69e <Py_XDECREF>
    b823:	31 c0                	xor    %eax,%eax
    b825:	5a                   	pop    %rdx
    b826:	c3                   	ret

000000000000b827 <__Pyx_CyFunction_clear>:
    b827:	41 54                	push   %r12
    b829:	55                   	push   %rbp
    b82a:	53                   	push   %rbx
    b82b:	48 89 fb             	mov    %rdi,%rbx
    b82e:	48 8b 7f 70          	mov    0x70(%rdi),%rdi
    b832:	48 85 ff             	test   %rdi,%rdi
    b835:	74 1a                	je     b851 <__Pyx_CyFunction_clear+0x2a>
    b837:	31 c0                	xor    %eax,%eax
    b839:	48 89 43 70          	mov    %rax,0x70(%rbx)
    b83d:	48 8b 07             	mov    (%rdi),%rax
    b840:	85 c0                	test   %eax,%eax
    b842:	78 0d                	js     b851 <__Pyx_CyFunction_clear+0x2a>
    b844:	48 ff c8             	dec    %rax
    b847:	48 89 07             	mov    %rax,(%rdi)
    b84a:	75 05                	jne    b851 <__Pyx_CyFunction_clear+0x2a>
    b84c:	e8 ff 8d ff ff       	call   4650 <_Py_Dealloc@plt>
    b851:	48 8b 7b 20          	mov    0x20(%rbx),%rdi
    b855:	48 85 ff             	test   %rdi,%rdi
    b858:	74 1a                	je     b874 <__Pyx_CyFunction_clear+0x4d>
    b85a:	31 c0                	xor    %eax,%eax
    b85c:	48 89 43 20          	mov    %rax,0x20(%rbx)
    b860:	48 8b 07             	mov    (%rdi),%rax
    b863:	85 c0                	test   %eax,%eax
    b865:	78 0d                	js     b874 <__Pyx_CyFunction_clear+0x4d>
    b867:	48 ff c8             	dec    %rax
    b86a:	48 89 07             	mov    %rax,(%rdi)
    b86d:	75 05                	jne    b874 <__Pyx_CyFunction_clear+0x4d>
    b86f:	e8 dc 8d ff ff       	call   4650 <_Py_Dealloc@plt>
    b874:	48 8b 7b 40          	mov    0x40(%rbx),%rdi
    b878:	48 85 ff             	test   %rdi,%rdi
    b87b:	74 1a                	je     b897 <__Pyx_CyFunction_clear+0x70>
    b87d:	31 c0                	xor    %eax,%eax
    b87f:	48 89 43 40          	mov    %rax,0x40(%rbx)
    b883:	48 8b 07             	mov    (%rdi),%rax
    b886:	85 c0                	test   %eax,%eax
    b888:	78 0d                	js     b897 <__Pyx_CyFunction_clear+0x70>
    b88a:	48 ff c8             	dec    %rax
    b88d:	48 89 07             	mov    %rax,(%rdi)
    b890:	75 05                	jne    b897 <__Pyx_CyFunction_clear+0x70>
    b892:	e8 b9 8d ff ff       	call   4650 <_Py_Dealloc@plt>
    b897:	48 8b 7b 48          	mov    0x48(%rbx),%rdi
    b89b:	48 85 ff             	test   %rdi,%rdi
    b89e:	74 1a                	je     b8ba <__Pyx_CyFunction_clear+0x93>
    b8a0:	31 c0                	xor    %eax,%eax
    b8a2:	48 89 43 48          	mov    %rax,0x48(%rbx)
    b8a6:	48 8b 07             	mov    (%rdi),%rax
    b8a9:	85 c0                	test   %eax,%eax
    b8ab:	78 0d                	js     b8ba <__Pyx_CyFunction_clear+0x93>
    b8ad:	48 ff c8             	dec    %rax
    b8b0:	48 89 07             	mov    %rax,(%rdi)
    b8b3:	75 05                	jne    b8ba <__Pyx_CyFunction_clear+0x93>
    b8b5:	e8 96 8d ff ff       	call   4650 <_Py_Dealloc@plt>
    b8ba:	48 8b 7b 50          	mov    0x50(%rbx),%rdi
    b8be:	48 85 ff             	test   %rdi,%rdi
    b8c1:	74 1b                	je     b8de <__Pyx_CyFunction_clear+0xb7>
    b8c3:	48 8b 07             	mov    (%rdi),%rax
    b8c6:	45 31 e4             	xor    %r12d,%r12d
    b8c9:	4c 89 63 50          	mov    %r12,0x50(%rbx)
    b8cd:	85 c0                	test   %eax,%eax
    b8cf:	78 0d                	js     b8de <__Pyx_CyFunction_clear+0xb7>
    b8d1:	48 ff c8             	dec    %rax
    b8d4:	48 89 07             	mov    %rax,(%rdi)
    b8d7:	75 05                	jne    b8de <__Pyx_CyFunction_clear+0xb7>
    b8d9:	e8 72 8d ff ff       	call   4650 <_Py_Dealloc@plt>
    b8de:	48 8b 7b 58          	mov    0x58(%rbx),%rdi
    b8e2:	48 85 ff             	test   %rdi,%rdi
    b8e5:	74 1a                	je     b901 <__Pyx_CyFunction_clear+0xda>
    b8e7:	48 8b 07             	mov    (%rdi),%rax
    b8ea:	31 ed                	xor    %ebp,%ebp
    b8ec:	48 89 6b 58          	mov    %rbp,0x58(%rbx)
    b8f0:	85 c0                	test   %eax,%eax
    b8f2:	78 0d                	js     b901 <__Pyx_CyFunction_clear+0xda>
    b8f4:	48 ff c8             	dec    %rax
    b8f7:	48 89 07             	mov    %rax,(%rdi)
    b8fa:	75 05                	jne    b901 <__Pyx_CyFunction_clear+0xda>
    b8fc:	e8 4f 8d ff ff       	call   4650 <_Py_Dealloc@plt>
    b901:	48 8b 7b 60          	mov    0x60(%rbx),%rdi
    b905:	48 85 ff             	test   %rdi,%rdi
    b908:	74 1b                	je     b925 <__Pyx_CyFunction_clear+0xfe>
    b90a:	48 8b 07             	mov    (%rdi),%rax
    b90d:	45 31 db             	xor    %r11d,%r11d
    b910:	4c 89 5b 60          	mov    %r11,0x60(%rbx)
    b914:	85 c0                	test   %eax,%eax
    b916:	78 0d                	js     b925 <__Pyx_CyFunction_clear+0xfe>
    b918:	48 ff c8             	dec    %rax
    b91b:	48 89 07             	mov    %rax,(%rdi)
    b91e:	75 05                	jne    b925 <__Pyx_CyFunction_clear+0xfe>
    b920:	e8 2b 8d ff ff       	call   4650 <_Py_Dealloc@plt>
    b925:	48 8b 7b 68          	mov    0x68(%rbx),%rdi
    b929:	48 85 ff             	test   %rdi,%rdi
    b92c:	74 1b                	je     b949 <__Pyx_CyFunction_clear+0x122>
    b92e:	48 8b 07             	mov    (%rdi),%rax
    b931:	45 31 d2             	xor    %r10d,%r10d
    b934:	4c 89 53 68          	mov    %r10,0x68(%rbx)
    b938:	85 c0                	test   %eax,%eax
    b93a:	78 0d                	js     b949 <__Pyx_CyFunction_clear+0x122>
    b93c:	48 ff c8             	dec    %rax
    b93f:	48 89 07             	mov    %rax,(%rdi)
    b942:	75 05                	jne    b949 <__Pyx_CyFunction_clear+0x122>
    b944:	e8 07 8d ff ff       	call   4650 <_Py_Dealloc@plt>
    b949:	45 31 c9             	xor    %r9d,%r9d
    b94c:	48 8b 7b 38          	mov    0x38(%rbx),%rdi
    b950:	4c 89 4b 38          	mov    %r9,0x38(%rbx)
    b954:	e8 45 fd ff ff       	call   b69e <Py_XDECREF>
    b959:	48 8b bb 98 00 00 00 	mov    0x98(%rbx),%rdi
    b960:	48 85 ff             	test   %rdi,%rdi
    b963:	74 1e                	je     b983 <__Pyx_CyFunction_clear+0x15c>
    b965:	48 8b 07             	mov    (%rdi),%rax
    b968:	45 31 c0             	xor    %r8d,%r8d
    b96b:	4c 89 83 98 00 00 00 	mov    %r8,0x98(%rbx)
    b972:	85 c0                	test   %eax,%eax
    b974:	78 0d                	js     b983 <__Pyx_CyFunction_clear+0x15c>
    b976:	48 ff c8             	dec    %rax
    b979:	48 89 07             	mov    %rax,(%rdi)
    b97c:	75 05                	jne    b983 <__Pyx_CyFunction_clear+0x15c>
    b97e:	e8 cd 8c ff ff       	call   4650 <_Py_Dealloc@plt>
    b983:	48 8b bb a0 00 00 00 	mov    0xa0(%rbx),%rdi
    b98a:	48 85 ff             	test   %rdi,%rdi
    b98d:	74 1d                	je     b9ac <__Pyx_CyFunction_clear+0x185>
    b98f:	48 8b 07             	mov    (%rdi),%rax
    b992:	31 f6                	xor    %esi,%esi
    b994:	48 89 b3 a0 00 00 00 	mov    %rsi,0xa0(%rbx)
    b99b:	85 c0                	test   %eax,%eax
    b99d:	78 0d                	js     b9ac <__Pyx_CyFunction_clear+0x185>
    b99f:	48 ff c8             	dec    %rax
    b9a2:	48 89 07             	mov    %rax,(%rdi)
    b9a5:	75 05                	jne    b9ac <__Pyx_CyFunction_clear+0x185>
    b9a7:	e8 a4 8c ff ff       	call   4650 <_Py_Dealloc@plt>
    b9ac:	48 8b bb b0 00 00 00 	mov    0xb0(%rbx),%rdi
    b9b3:	48 85 ff             	test   %rdi,%rdi
    b9b6:	74 1d                	je     b9d5 <__Pyx_CyFunction_clear+0x1ae>
    b9b8:	48 8b 07             	mov    (%rdi),%rax
    b9bb:	31 c9                	xor    %ecx,%ecx
    b9bd:	48 89 8b b0 00 00 00 	mov    %rcx,0xb0(%rbx)
    b9c4:	85 c0                	test   %eax,%eax
    b9c6:	78 0d                	js     b9d5 <__Pyx_CyFunction_clear+0x1ae>
    b9c8:	48 ff c8             	dec    %rax
    b9cb:	48 89 07             	mov    %rax,(%rdi)
    b9ce:	75 05                	jne    b9d5 <__Pyx_CyFunction_clear+0x1ae>
    b9d0:	e8 7b 8c ff ff       	call   4650 <_Py_Dealloc@plt>
    b9d5:	48 8b bb b8 00 00 00 	mov    0xb8(%rbx),%rdi
    b9dc:	48 85 ff             	test   %rdi,%rdi
    b9df:	74 1d                	je     b9fe <__Pyx_CyFunction_clear+0x1d7>
    b9e1:	48 8b 07             	mov    (%rdi),%rax
    b9e4:	31 d2                	xor    %edx,%edx
    b9e6:	48 89 93 b8 00 00 00 	mov    %rdx,0xb8(%rbx)
    b9ed:	85 c0                	test   %eax,%eax
    b9ef:	78 0d                	js     b9fe <__Pyx_CyFunction_clear+0x1d7>
    b9f1:	48 ff c8             	dec    %rax
    b9f4:	48 89 07             	mov    %rax,(%rdi)
    b9f7:	75 05                	jne    b9fe <__Pyx_CyFunction_clear+0x1d7>
    b9f9:	e8 52 8c ff ff       	call   4650 <_Py_Dealloc@plt>
    b9fe:	4c 8b 63 78          	mov    0x78(%rbx),%r12
    ba02:	31 ed                	xor    %ebp,%ebp
    ba04:	4d 85 e4             	test   %r12,%r12
    ba07:	74 25                	je     ba2e <__Pyx_CyFunction_clear+0x207>
    ba09:	39 ab 80 00 00 00    	cmp    %ebp,0x80(%rbx)
    ba0f:	7e 0e                	jle    ba1f <__Pyx_CyFunction_clear+0x1f8>
    ba11:	49 8b 3c ec          	mov    (%r12,%rbp,8),%rdi
    ba15:	48 ff c5             	inc    %rbp
    ba18:	e8 81 fc ff ff       	call   b69e <Py_XDECREF>
    ba1d:	eb ea                	jmp    ba09 <__Pyx_CyFunction_clear+0x1e2>
    ba1f:	48 8b 7b 78          	mov    0x78(%rbx),%rdi
    ba23:	e8 38 8c ff ff       	call   4660 <PyObject_Free@plt>
    ba28:	31 c0                	xor    %eax,%eax
    ba2a:	48 89 43 78          	mov    %rax,0x78(%rbx)
    ba2e:	5b                   	pop    %rbx
    ba2f:	31 c0                	xor    %eax,%eax
    ba31:	5d                   	pop    %rbp
    ba32:	41 5c                	pop    %r12
    ba34:	c3                   	ret

000000000000ba35 <__Pyx_CyFunction_dealloc>:
    ba35:	53                   	push   %rbx
    ba36:	48 89 fb             	mov    %rdi,%rbx
    ba39:	e8 32 87 ff ff       	call   4170 <PyObject_GC_UnTrack@plt>
    ba3e:	48 83 7b 28 00       	cmpq   $0x0,0x28(%rbx)
    ba43:	74 08                	je     ba4d <__Pyx_CyFunction_dealloc+0x18>
    ba45:	48 89 df             	mov    %rbx,%rdi
    ba48:	e8 a3 8a ff ff       	call   44f0 <PyObject_ClearWeakRefs@plt>
    ba4d:	48 89 df             	mov    %rbx,%rdi
    ba50:	e8 d2 fd ff ff       	call   b827 <__Pyx_CyFunction_clear>
    ba55:	48 89 df             	mov    %rbx,%rdi
    ba58:	5b                   	pop    %rbx
    ba59:	e9 f2 86 ff ff       	jmp    4150 <PyObject_GC_Del@plt>

000000000000ba5e <__Pyx_main>:
    ba5e:	41 56                	push   %r14
    ba60:	4c 8d 35 1b 71 00 00 	lea    0x711b(%rip),%r14        # 12b82 <_IO_stdin_used+0xb82>
    ba67:	41 55                	push   %r13
    ba69:	41 54                	push   %r12
    ba6b:	55                   	push   %rbp
    ba6c:	89 fd                	mov    %edi,%ebp
    ba6e:	4c 89 f7             	mov    %r14,%rdi
    ba71:	53                   	push   %rbx
    ba72:	48 81 ec e0 01 00 00 	sub    $0x1e0,%rsp
    ba79:	64 4c 8b 24 25 28 00 	mov    %fs:0x28,%r12
    ba80:	00 00 
    ba82:	4c 89 a4 24 d8 01 00 	mov    %r12,0x1d8(%rsp)
    ba89:	00 
    ba8a:	49 89 f4             	mov    %rsi,%r12
    ba8d:	48 8d 35 5c 8d ff ff 	lea    -0x72a4(%rip),%rsi        # 47f0 <PyInit_main>
    ba94:	e8 37 8c ff ff       	call   46d0 <PyImport_AppendInittab@plt>
    ba99:	85 c0                	test   %eax,%eax
    ba9b:	78 6f                	js     bb0c <__Pyx_main+0xae>
    ba9d:	48 8d 5c 24 28       	lea    0x28(%rsp),%rbx
    baa2:	4c 8d 6c 24 08       	lea    0x8(%rsp),%r13
    baa7:	48 89 df             	mov    %rbx,%rdi
    baaa:	e8 11 8d ff ff       	call   47c0 <PyConfig_InitPythonConfig@plt>
    baaf:	31 c0                	xor    %eax,%eax
    bab1:	85 ed                	test   %ebp,%ebp
    bab3:	89 84 24 90 00 00 00 	mov    %eax,0x90(%rsp)
    baba:	0f 84 8b 00 00 00    	je     bb4b <__Pyx_main+0xed>
    bac0:	4d 85 e4             	test   %r12,%r12
    bac3:	0f 84 82 00 00 00    	je     bb4b <__Pyx_main+0xed>
    bac9:	49 8b 0c 24          	mov    (%r12),%rcx
    bacd:	48 8d 94 24 38 01 00 	lea    0x138(%rsp),%rdx
    bad4:	00 
    bad5:	48 89 de             	mov    %rbx,%rsi
    bad8:	4c 89 ef             	mov    %r13,%rdi
    badb:	e8 00 86 ff ff       	call   40e0 <PyConfig_SetString@plt>
    bae0:	48 83 ec 20          	sub    $0x20,%rsp
    bae4:	0f 10 44 24 28       	movups 0x28(%rsp),%xmm0
    bae9:	0f 11 04 24          	movups %xmm0,(%rsp)
    baed:	0f 10 44 24 38       	movups 0x38(%rsp),%xmm0
    baf2:	0f 11 44 24 10       	movups %xmm0,0x10(%rsp)
    baf7:	e8 84 87 ff ff       	call   4280 <PyStatus_Exception@plt>
    bafc:	48 83 c4 20          	add    $0x20,%rsp
    bb00:	85 c0                	test   %eax,%eax
    bb02:	74 12                	je     bb16 <__Pyx_main+0xb8>
    bb04:	48 89 df             	mov    %rbx,%rdi
    bb07:	e8 64 8a ff ff       	call   4570 <PyConfig_Clear@plt>
    bb0c:	b8 01 00 00 00       	mov    $0x1,%eax
    bb11:	e9 ac 00 00 00       	jmp    bbc2 <__Pyx_main+0x164>
    bb16:	48 63 d5             	movslq %ebp,%rdx
    bb19:	4c 89 e1             	mov    %r12,%rcx
    bb1c:	48 89 de             	mov    %rbx,%rsi
    bb1f:	4c 89 ef             	mov    %r13,%rdi
    bb22:	e8 a9 85 ff ff       	call   40d0 <PyConfig_SetArgv@plt>
    bb27:	48 83 ec 20          	sub    $0x20,%rsp
    bb2b:	0f 10 44 24 28       	movups 0x28(%rsp),%xmm0
    bb30:	0f 11 04 24          	movups %xmm0,(%rsp)
    bb34:	0f 10 44 24 38       	movups 0x38(%rsp),%xmm0
    bb39:	0f 11 44 24 10       	movups %xmm0,0x10(%rsp)
    bb3e:	e8 3d 87 ff ff       	call   4280 <PyStatus_Exception@plt>
    bb43:	48 83 c4 20          	add    $0x20,%rsp
    bb47:	85 c0                	test   %eax,%eax
    bb49:	75 b9                	jne    bb04 <__Pyx_main+0xa6>
    bb4b:	48 89 de             	mov    %rbx,%rsi
    bb4e:	4c 89 ef             	mov    %r13,%rdi
    bb51:	e8 aa 85 ff ff       	call   4100 <Py_InitializeFromConfig@plt>
    bb56:	48 83 ec 20          	sub    $0x20,%rsp
    bb5a:	0f 10 44 24 28       	movups 0x28(%rsp),%xmm0
    bb5f:	0f 11 04 24          	movups %xmm0,(%rsp)
    bb63:	0f 10 44 24 38       	movups 0x38(%rsp),%xmm0
    bb68:	0f 11 44 24 10       	movups %xmm0,0x10(%rsp)
    bb6d:	e8 0e 87 ff ff       	call   4280 <PyStatus_Exception@plt>
    bb72:	48 83 c4 20          	add    $0x20,%rsp
    bb76:	85 c0                	test   %eax,%eax
    bb78:	75 8a                	jne    bb04 <__Pyx_main+0xa6>
    bb7a:	48 89 df             	mov    %rbx,%rdi
    bb7d:	e8 ee 89 ff ff       	call   4570 <PyConfig_Clear@plt>
    bb82:	4c 89 f7             	mov    %r14,%rdi
    bb85:	c7 05 91 c0 00 00 01 	movl   $0x1,0xc091(%rip)        # 17c20 <__pyx_module_is_main_main>
    bb8c:	00 00 00 
    bb8f:	e8 ec 8a ff ff       	call   4680 <PyImport_ImportModule@plt>
    bb94:	48 89 c3             	mov    %rax,%rbx
    bb97:	48 85 c0             	test   %rax,%rax
    bb9a:	75 14                	jne    bbb0 <__Pyx_main+0x152>
    bb9c:	e8 4f 87 ff ff       	call   42f0 <PyErr_Occurred@plt>
    bba1:	48 85 c0             	test   %rax,%rax
    bba4:	74 0a                	je     bbb0 <__Pyx_main+0x152>
    bba6:	e8 25 8a ff ff       	call   45d0 <PyErr_Print@plt>
    bbab:	e9 5c ff ff ff       	jmp    bb0c <__Pyx_main+0xae>
    bbb0:	48 89 df             	mov    %rbx,%rdi
    bbb3:	e8 e6 fa ff ff       	call   b69e <Py_XDECREF>
    bbb8:	e8 83 87 ff ff       	call   4340 <Py_FinalizeEx@plt>
    bbbd:	c1 e8 1f             	shr    $0x1f,%eax
    bbc0:	01 c0                	add    %eax,%eax
    bbc2:	48 8b 94 24 d8 01 00 	mov    0x1d8(%rsp),%rdx
    bbc9:	00 
    bbca:	64 48 2b 14 25 28 00 	sub    %fs:0x28,%rdx
    bbd1:	00 00 
    bbd3:	74 05                	je     bbda <__Pyx_main+0x17c>
    bbd5:	e8 56 89 ff ff       	call   4530 <__stack_chk_fail@plt>
    bbda:	48 81 c4 e0 01 00 00 	add    $0x1e0,%rsp
    bbe1:	5b                   	pop    %rbx
    bbe2:	5d                   	pop    %rbp
    bbe3:	41 5c                	pop    %r12
    bbe5:	41 5d                	pop    %r13
    bbe7:	41 5e                	pop    %r14
    bbe9:	c3                   	ret

000000000000bbea <PyUnicode_IS_ASCII>:
    bbea:	48 8b 47 08          	mov    0x8(%rdi),%rax
    bbee:	f6 80 ab 00 00 00 10 	testb  $0x10,0xab(%rax)
    bbf5:	75 20                	jne    bc17 <PyUnicode_IS_ASCII+0x2d>
    bbf7:	50                   	push   %rax
    bbf8:	48 8d 0d 91 74 00 00 	lea    0x7491(%rip),%rcx        # 13090 <__PRETTY_FUNCTION__.34>
    bbff:	ba d6 00 00 00       	mov    $0xd6,%edx
    bc04:	48 8d 35 9d 66 00 00 	lea    0x669d(%rip),%rsi        # 122a8 <_IO_stdin_used+0x2a8>
    bc0b:	48 8d 3d c6 66 00 00 	lea    0x66c6(%rip),%rdi        # 122d8 <_IO_stdin_used+0x2d8>
    bc12:	e8 09 85 ff ff       	call   4120 <__assert_fail@plt>
    bc17:	8a 47 20             	mov    0x20(%rdi),%al
    bc1a:	c0 e8 06             	shr    $0x6,%al
    bc1d:	83 e0 01             	and    $0x1,%eax
    bc20:	c3                   	ret

000000000000bc21 <PyUnicode_GET_LENGTH>:
    bc21:	48 8b 47 08          	mov    0x8(%rdi),%rax
    bc25:	f6 80 ab 00 00 00 10 	testb  $0x10,0xab(%rax)
    bc2c:	75 20                	jne    bc4e <PyUnicode_GET_LENGTH+0x2d>
    bc2e:	50                   	push   %rax
    bc2f:	48 8d 0d 3a 74 00 00 	lea    0x743a(%rip),%rcx        # 13070 <__PRETTY_FUNCTION__.33>
    bc36:	ba 1a 01 00 00       	mov    $0x11a,%edx
    bc3b:	48 8d 35 66 66 00 00 	lea    0x6666(%rip),%rsi        # 122a8 <_IO_stdin_used+0x2a8>
    bc42:	48 8d 3d 8f 66 00 00 	lea    0x668f(%rip),%rdi        # 122d8 <_IO_stdin_used+0x2d8>
    bc49:	e8 d2 84 ff ff       	call   4120 <__assert_fail@plt>
    bc4e:	48 8b 47 10          	mov    0x10(%rdi),%rax
    bc52:	c3                   	ret

000000000000bc53 <PyUnicode_IS_COMPACT.part.0>:
    bc53:	50                   	push   %rax
    bc54:	48 8d 0d d5 73 00 00 	lea    0x73d5(%rip),%rcx        # 13030 <__PRETTY_FUNCTION__.31>
    bc5b:	ba dd 00 00 00       	mov    $0xdd,%edx
    bc60:	48 8d 35 41 66 00 00 	lea    0x6641(%rip),%rsi        # 122a8 <_IO_stdin_used+0x2a8>
    bc67:	48 8d 3d 6a 66 00 00 	lea    0x666a(%rip),%rdi        # 122d8 <_IO_stdin_used+0x2d8>
    bc6e:	e8 ad 84 ff ff       	call   4120 <__assert_fail@plt>

000000000000bc73 <Py_SIZE>:
    bc73:	51                   	push   %rcx
    bc74:	48 8b 47 08          	mov    0x8(%rdi),%rax
    bc78:	48 8d 15 01 bc 00 00 	lea    0xbc01(%rip),%rdx        # 17880 <PyLong_Type@@Base>
    bc7f:	48 39 d0             	cmp    %rdx,%rax
    bc82:	75 1c                	jne    bca0 <Py_SIZE+0x2d>
    bc84:	48 8d 0d 55 73 00 00 	lea    0x7355(%rip),%rcx        # 12fe0 <__PRETTY_FUNCTION__.27>
    bc8b:	ba e7 00 00 00       	mov    $0xe7,%edx
    bc90:	48 8d 35 55 66 00 00 	lea    0x6655(%rip),%rsi        # 122ec <_IO_stdin_used+0x2ec>
    bc97:	48 8d 3d 6f 66 00 00 	lea    0x666f(%rip),%rdi        # 1230d <_IO_stdin_used+0x30d>
    bc9e:	eb 26                	jmp    bcc6 <Py_SIZE+0x53>
    bca0:	48 8d 15 19 ae 00 00 	lea    0xae19(%rip),%rdx        # 16ac0 <PyBool_Type@@Base>
    bca7:	48 39 d0             	cmp    %rdx,%rax
    bcaa:	75 1f                	jne    bccb <Py_SIZE+0x58>
    bcac:	48 8d 0d 2d 73 00 00 	lea    0x732d(%rip),%rcx        # 12fe0 <__PRETTY_FUNCTION__.27>
    bcb3:	ba e8 00 00 00       	mov    $0xe8,%edx
    bcb8:	48 8d 35 2d 66 00 00 	lea    0x662d(%rip),%rsi        # 122ec <_IO_stdin_used+0x2ec>
    bcbf:	48 8d 3d 63 66 00 00 	lea    0x6663(%rip),%rdi        # 12329 <_IO_stdin_used+0x329>
    bcc6:	e8 55 84 ff ff       	call   4120 <__assert_fail@plt>
    bccb:	48 8b 47 10          	mov    0x10(%rdi),%rax
    bccf:	5a                   	pop    %rdx
    bcd0:	c3                   	ret

000000000000bcd1 <PyTuple_GET_SIZE>:
    bcd1:	48 8b 47 08          	mov    0x8(%rdi),%rax
    bcd5:	f6 80 ab 00 00 00 04 	testb  $0x4,0xab(%rax)
    bcdc:	75 20                	jne    bcfe <PyTuple_GET_SIZE+0x2d>
    bcde:	50                   	push   %rax
    bcdf:	48 8d 0d 0a 73 00 00 	lea    0x730a(%rip),%rcx        # 12ff0 <__PRETTY_FUNCTION__.28>
    bce6:	ba 17 00 00 00       	mov    $0x17,%edx
    bceb:	48 8d 35 53 66 00 00 	lea    0x6653(%rip),%rsi        # 12345 <_IO_stdin_used+0x345>
    bcf2:	48 8d 3d 7a 66 00 00 	lea    0x667a(%rip),%rdi        # 12373 <_IO_stdin_used+0x373>
    bcf9:	e8 22 84 ff ff       	call   4120 <__assert_fail@plt>
    bcfe:	e9 70 ff ff ff       	jmp    bc73 <Py_SIZE>

000000000000bd03 <__Pyx_IsSubtype>:
    bd03:	48 39 f7             	cmp    %rsi,%rdi
    bd06:	0f 84 80 00 00 00    	je     bd8c <__Pyx_IsSubtype+0x89>
    bd0c:	55                   	push   %rbp
    bd0d:	53                   	push   %rbx
    bd0e:	48 89 f3             	mov    %rsi,%rbx
    bd11:	51                   	push   %rcx
    bd12:	48 8b af 58 01 00 00 	mov    0x158(%rdi),%rbp
    bd19:	48 85 ed             	test   %rbp,%rbp
    bd1c:	74 4b                	je     bd69 <__Pyx_IsSubtype+0x66>
    bd1e:	48 89 ef             	mov    %rbp,%rdi
    bd21:	e8 ab ff ff ff       	call   bcd1 <PyTuple_GET_SIZE>
    bd26:	31 d2                	xor    %edx,%edx
    bd28:	48 39 c2             	cmp    %rax,%rdx
    bd2b:	7d 38                	jge    bd65 <__Pyx_IsSubtype+0x62>
    bd2d:	48 8b 4d 08          	mov    0x8(%rbp),%rcx
    bd31:	f6 81 ab 00 00 00 04 	testb  $0x4,0xab(%rcx)
    bd38:	75 1f                	jne    bd59 <__Pyx_IsSubtype+0x56>
    bd3a:	48 8d 0d 9f 71 00 00 	lea    0x719f(%rip),%rcx        # 12ee0 <__PRETTY_FUNCTION__.18>
    bd41:	ba a8 1b 00 00       	mov    $0x1ba8,%edx
    bd46:	48 8d 35 17 63 00 00 	lea    0x6317(%rip),%rsi        # 12064 <_IO_stdin_used+0x64>
    bd4d:	48 8d 3d 31 66 00 00 	lea    0x6631(%rip),%rdi        # 12385 <_IO_stdin_used+0x385>
    bd54:	e8 c7 83 ff ff       	call   4120 <__assert_fail@plt>
    bd59:	48 39 5c d5 18       	cmp    %rbx,0x18(%rbp,%rdx,8)
    bd5e:	74 32                	je     bd92 <__Pyx_IsSubtype+0x8f>
    bd60:	48 ff c2             	inc    %rdx
    bd63:	eb c3                	jmp    bd28 <__Pyx_IsSubtype+0x25>
    bd65:	31 c0                	xor    %eax,%eax
    bd67:	eb 2e                	jmp    bd97 <__Pyx_IsSubtype+0x94>
    bd69:	48 8b bf 00 01 00 00 	mov    0x100(%rdi),%rdi
    bd70:	48 39 fb             	cmp    %rdi,%rbx
    bd73:	74 1d                	je     bd92 <__Pyx_IsSubtype+0x8f>
    bd75:	48 85 ff             	test   %rdi,%rdi
    bd78:	75 ef                	jne    bd69 <__Pyx_IsSubtype+0x66>
    bd7a:	48 8d 05 7f b2 00 00 	lea    0xb27f(%rip),%rax        # 17000 <PyBaseObject_Type@@Base>
    bd81:	48 39 c3             	cmp    %rax,%rbx
    bd84:	0f 94 c0             	sete   %al
    bd87:	0f b6 c0             	movzbl %al,%eax
    bd8a:	eb 0b                	jmp    bd97 <__Pyx_IsSubtype+0x94>
    bd8c:	b8 01 00 00 00       	mov    $0x1,%eax
    bd91:	c3                   	ret
    bd92:	b8 01 00 00 00       	mov    $0x1,%eax
    bd97:	5a                   	pop    %rdx
    bd98:	5b                   	pop    %rbx
    bd99:	5d                   	pop    %rbp
    bd9a:	c3                   	ret

000000000000bd9b <__Pyx_CyFunction_Vectorcall_CheckArgs>:
    bd9b:	55                   	push   %rbp
    bd9c:	31 ed                	xor    %ebp,%ebp
    bd9e:	53                   	push   %rbx
    bd9f:	48 89 fb             	mov    %rdi,%rbx
    bda2:	48 89 d7             	mov    %rdx,%rdi
    bda5:	51                   	push   %rcx
    bda6:	8b 83 90 00 00 00    	mov    0x90(%rbx),%eax
    bdac:	83 e0 05             	and    $0x5,%eax
    bdaf:	83 f8 04             	cmp    $0x4,%eax
    bdb2:	75 1a                	jne    bdce <__Pyx_CyFunction_Vectorcall_CheckArgs+0x33>
    bdb4:	bd 01 00 00 00       	mov    $0x1,%ebp
    bdb9:	48 85 f6             	test   %rsi,%rsi
    bdbc:	75 10                	jne    bdce <__Pyx_CyFunction_Vectorcall_CheckArgs+0x33>
    bdbe:	48 8b 43 10          	mov    0x10(%rbx),%rax
    bdc2:	48 8d 35 cf 65 00 00 	lea    0x65cf(%rip),%rsi        # 12398 <_IO_stdin_used+0x398>
    bdc9:	48 8b 10             	mov    (%rax),%rdx
    bdcc:	eb 1d                	jmp    bdeb <__Pyx_CyFunction_Vectorcall_CheckArgs+0x50>
    bdce:	48 85 ff             	test   %rdi,%rdi
    bdd1:	74 29                	je     bdfc <__Pyx_CyFunction_Vectorcall_CheckArgs+0x61>
    bdd3:	e8 f9 fe ff ff       	call   bcd1 <PyTuple_GET_SIZE>
    bdd8:	48 85 c0             	test   %rax,%rax
    bddb:	74 1f                	je     bdfc <__Pyx_CyFunction_Vectorcall_CheckArgs+0x61>
    bddd:	48 8b 43 10          	mov    0x10(%rbx),%rax
    bde1:	48 8d 35 cb 65 00 00 	lea    0x65cb(%rip),%rsi        # 123b3 <_IO_stdin_used+0x3b3>
    bde8:	48 8b 10             	mov    (%rax),%rdx
    bdeb:	48 8b 3d 2e b0 00 00 	mov    0xb02e(%rip),%rdi        # 16e20 <PyExc_TypeError@@Base>
    bdf2:	31 c0                	xor    %eax,%eax
    bdf4:	83 cd ff             	or     $0xffffffff,%ebp
    bdf7:	e8 94 84 ff ff       	call   4290 <PyErr_Format@plt>
    bdfc:	89 e8                	mov    %ebp,%eax
    bdfe:	5a                   	pop    %rdx
    bdff:	5b                   	pop    %rbx
    be00:	5d                   	pop    %rbp
    be01:	c3                   	ret

000000000000be02 <__Pyx_CyFunction_Vectorcall_FASTCALL_KEYWORDS>:
    be02:	41 56                	push   %r14
    be04:	48 0f ba f2 3f       	btr    $0x3f,%rdx
    be09:	41 54                	push   %r12
    be0b:	49 89 fc             	mov    %rdi,%r12
    be0e:	55                   	push   %rbp
    be0f:	48 89 d5             	mov    %rdx,%rbp
    be12:	31 d2                	xor    %edx,%edx
    be14:	53                   	push   %rbx
    be15:	48 89 f3             	mov    %rsi,%rbx
    be18:	48 89 ee             	mov    %rbp,%rsi
    be1b:	48 83 ec 18          	sub    $0x18,%rsp
    be1f:	4c 8b 77 10          	mov    0x10(%rdi),%r14
    be23:	48 89 4c 24 08       	mov    %rcx,0x8(%rsp)
    be28:	e8 6e ff ff ff       	call   bd9b <__Pyx_CyFunction_Vectorcall_CheckArgs>
    be2d:	48 8b 4c 24 08       	mov    0x8(%rsp),%rcx
    be32:	85 c0                	test   %eax,%eax
    be34:	74 10                	je     be46 <__Pyx_CyFunction_Vectorcall_FASTCALL_KEYWORDS+0x44>
    be36:	ff c8                	dec    %eax
    be38:	75 27                	jne    be61 <__Pyx_CyFunction_Vectorcall_FASTCALL_KEYWORDS+0x5f>
    be3a:	48 8b 3b             	mov    (%rbx),%rdi
    be3d:	48 ff cd             	dec    %rbp
    be40:	48 83 c3 08          	add    $0x8,%rbx
    be44:	eb 05                	jmp    be4b <__Pyx_CyFunction_Vectorcall_FASTCALL_KEYWORDS+0x49>
    be46:	49 8b 7c 24 18       	mov    0x18(%r12),%rdi
    be4b:	49 8b 46 08          	mov    0x8(%r14),%rax
    be4f:	48 83 c4 18          	add    $0x18,%rsp
    be53:	48 89 ea             	mov    %rbp,%rdx
    be56:	48 89 de             	mov    %rbx,%rsi
    be59:	5b                   	pop    %rbx
    be5a:	5d                   	pop    %rbp
    be5b:	41 5c                	pop    %r12
    be5d:	41 5e                	pop    %r14
    be5f:	ff e0                	jmp    *%rax
    be61:	48 83 c4 18          	add    $0x18,%rsp
    be65:	31 c0                	xor    %eax,%eax
    be67:	5b                   	pop    %rbx
    be68:	5d                   	pop    %rbp
    be69:	41 5c                	pop    %r12
    be6b:	41 5e                	pop    %r14
    be6d:	c3                   	ret

000000000000be6e <__Pyx_CyFunction_Vectorcall_FASTCALL_KEYWORDS_METHOD>:
    be6e:	41 56                	push   %r14
    be70:	48 0f ba f2 3f       	btr    $0x3f,%rdx
    be75:	41 55                	push   %r13
    be77:	41 54                	push   %r12
    be79:	49 89 fc             	mov    %rdi,%r12
    be7c:	55                   	push   %rbp
    be7d:	48 89 d5             	mov    %rdx,%rbp
    be80:	31 d2                	xor    %edx,%edx
    be82:	53                   	push   %rbx
    be83:	48 89 f3             	mov    %rsi,%rbx
    be86:	48 89 ee             	mov    %rbp,%rsi
    be89:	48 83 ec 10          	sub    $0x10,%rsp
    be8d:	4c 8b 77 10          	mov    0x10(%rdi),%r14
    be91:	4c 8b 6f 38          	mov    0x38(%rdi),%r13
    be95:	48 89 4c 24 08       	mov    %rcx,0x8(%rsp)
    be9a:	e8 fc fe ff ff       	call   bd9b <__Pyx_CyFunction_Vectorcall_CheckArgs>
    be9f:	4c 8b 44 24 08       	mov    0x8(%rsp),%r8
    bea4:	85 c0                	test   %eax,%eax
    bea6:	74 10                	je     beb8 <__Pyx_CyFunction_Vectorcall_FASTCALL_KEYWORDS_METHOD+0x4a>
    bea8:	ff c8                	dec    %eax
    beaa:	75 2c                	jne    bed8 <__Pyx_CyFunction_Vectorcall_FASTCALL_KEYWORDS_METHOD+0x6a>
    beac:	48 8b 3b             	mov    (%rbx),%rdi
    beaf:	48 ff cd             	dec    %rbp
    beb2:	48 83 c3 08          	add    $0x8,%rbx
    beb6:	eb 05                	jmp    bebd <__Pyx_CyFunction_Vectorcall_FASTCALL_KEYWORDS_METHOD+0x4f>
    beb8:	49 8b 7c 24 18       	mov    0x18(%r12),%rdi
    bebd:	49 8b 46 08          	mov    0x8(%r14),%rax
    bec1:	48 83 c4 10          	add    $0x10,%rsp
    bec5:	48 89 e9             	mov    %rbp,%rcx
    bec8:	48 89 da             	mov    %rbx,%rdx
    becb:	4c 89 ee             	mov    %r13,%rsi
    bece:	5b                   	pop    %rbx
    becf:	5d                   	pop    %rbp
    bed0:	41 5c                	pop    %r12
    bed2:	41 5d                	pop    %r13
    bed4:	41 5e                	pop    %r14
    bed6:	ff e0                	jmp    *%rax
    bed8:	48 83 c4 10          	add    $0x10,%rsp
    bedc:	31 c0                	xor    %eax,%eax
    bede:	5b                   	pop    %rbx
    bedf:	5d                   	pop    %rbp
    bee0:	41 5c                	pop    %r12
    bee2:	41 5d                	pop    %r13
    bee4:	41 5e                	pop    %r14
    bee6:	c3                   	ret

000000000000bee7 <__Pyx_CyFunction_Vectorcall_O>:
    bee7:	41 55                	push   %r13
    bee9:	48 0f ba f2 3f       	btr    $0x3f,%rdx
    beee:	41 54                	push   %r12
    bef0:	49 89 fc             	mov    %rdi,%r12
    bef3:	55                   	push   %rbp
    bef4:	48 89 f5             	mov    %rsi,%rbp
    bef7:	53                   	push   %rbx
    bef8:	48 89 d3             	mov    %rdx,%rbx
    befb:	48 89 ca             	mov    %rcx,%rdx
    befe:	41 50                	push   %r8
    bf00:	48 89 de             	mov    %rbx,%rsi
    bf03:	4c 8b 6f 10          	mov    0x10(%rdi),%r13
    bf07:	e8 8f fe ff ff       	call   bd9b <__Pyx_CyFunction_Vectorcall_CheckArgs>
    bf0c:	85 c0                	test   %eax,%eax
    bf0e:	74 11                	je     bf21 <__Pyx_CyFunction_Vectorcall_O+0x3a>
    bf10:	ff c8                	dec    %eax
    bf12:	75 47                	jne    bf5b <__Pyx_CyFunction_Vectorcall_O+0x74>
    bf14:	48 8b 7d 00          	mov    0x0(%rbp),%rdi
    bf18:	48 ff cb             	dec    %rbx
    bf1b:	48 83 c5 08          	add    $0x8,%rbp
    bf1f:	eb 05                	jmp    bf26 <__Pyx_CyFunction_Vectorcall_O+0x3f>
    bf21:	49 8b 7c 24 18       	mov    0x18(%r12),%rdi
    bf26:	48 83 fb 01          	cmp    $0x1,%rbx
    bf2a:	74 1e                	je     bf4a <__Pyx_CyFunction_Vectorcall_O+0x63>
    bf2c:	49 8b 55 00          	mov    0x0(%r13),%rdx
    bf30:	48 8b 3d e9 ae 00 00 	mov    0xaee9(%rip),%rdi        # 16e20 <PyExc_TypeError@@Base>
    bf37:	48 89 d9             	mov    %rbx,%rcx
    bf3a:	31 c0                	xor    %eax,%eax
    bf3c:	48 8d 35 94 64 00 00 	lea    0x6494(%rip),%rsi        # 123d7 <_IO_stdin_used+0x3d7>
    bf43:	e8 48 83 ff ff       	call   4290 <PyErr_Format@plt>
    bf48:	eb 11                	jmp    bf5b <__Pyx_CyFunction_Vectorcall_O+0x74>
    bf4a:	49 8b 45 08          	mov    0x8(%r13),%rax
    bf4e:	48 8b 75 00          	mov    0x0(%rbp),%rsi
    bf52:	59                   	pop    %rcx
    bf53:	5b                   	pop    %rbx
    bf54:	5d                   	pop    %rbp
    bf55:	41 5c                	pop    %r12
    bf57:	41 5d                	pop    %r13
    bf59:	ff e0                	jmp    *%rax
    bf5b:	5a                   	pop    %rdx
    bf5c:	31 c0                	xor    %eax,%eax
    bf5e:	5b                   	pop    %rbx
    bf5f:	5d                   	pop    %rbp
    bf60:	41 5c                	pop    %r12
    bf62:	41 5d                	pop    %r13
    bf64:	c3                   	ret

000000000000bf65 <__Pyx_CyFunction_Vectorcall_NOARGS>:
    bf65:	41 55                	push   %r13
    bf67:	48 0f ba f2 3f       	btr    $0x3f,%rdx
    bf6c:	41 54                	push   %r12
    bf6e:	49 89 f4             	mov    %rsi,%r12
    bf71:	55                   	push   %rbp
    bf72:	48 89 fd             	mov    %rdi,%rbp
    bf75:	53                   	push   %rbx
    bf76:	48 89 d3             	mov    %rdx,%rbx
    bf79:	48 89 ca             	mov    %rcx,%rdx
    bf7c:	41 50                	push   %r8
    bf7e:	48 89 de             	mov    %rbx,%rsi
    bf81:	4c 8b 6f 10          	mov    0x10(%rdi),%r13
    bf85:	e8 11 fe ff ff       	call   bd9b <__Pyx_CyFunction_Vectorcall_CheckArgs>
    bf8a:	85 c0                	test   %eax,%eax
    bf8c:	74 0d                	je     bf9b <__Pyx_CyFunction_Vectorcall_NOARGS+0x36>
    bf8e:	ff c8                	dec    %eax
    bf90:	75 3f                	jne    bfd1 <__Pyx_CyFunction_Vectorcall_NOARGS+0x6c>
    bf92:	49 8b 3c 24          	mov    (%r12),%rdi
    bf96:	48 ff cb             	dec    %rbx
    bf99:	eb 04                	jmp    bf9f <__Pyx_CyFunction_Vectorcall_NOARGS+0x3a>
    bf9b:	48 8b 7d 18          	mov    0x18(%rbp),%rdi
    bf9f:	48 85 db             	test   %rbx,%rbx
    bfa2:	74 1e                	je     bfc2 <__Pyx_CyFunction_Vectorcall_NOARGS+0x5d>
    bfa4:	49 8b 55 00          	mov    0x0(%r13),%rdx
    bfa8:	48 8b 3d 71 ae 00 00 	mov    0xae71(%rip),%rdi        # 16e20 <PyExc_TypeError@@Base>
    bfaf:	48 89 d9             	mov    %rbx,%rcx
    bfb2:	31 c0                	xor    %eax,%eax
    bfb4:	48 8d 35 4c 64 00 00 	lea    0x644c(%rip),%rsi        # 12407 <_IO_stdin_used+0x407>
    bfbb:	e8 d0 82 ff ff       	call   4290 <PyErr_Format@plt>
    bfc0:	eb 0f                	jmp    bfd1 <__Pyx_CyFunction_Vectorcall_NOARGS+0x6c>
    bfc2:	49 8b 45 08          	mov    0x8(%r13),%rax
    bfc6:	31 f6                	xor    %esi,%esi
    bfc8:	59                   	pop    %rcx
    bfc9:	5b                   	pop    %rbx
    bfca:	5d                   	pop    %rbp
    bfcb:	41 5c                	pop    %r12
    bfcd:	41 5d                	pop    %r13
    bfcf:	ff e0                	jmp    *%rax
    bfd1:	5a                   	pop    %rdx
    bfd2:	31 c0                	xor    %eax,%eax
    bfd4:	5b                   	pop    %rbx
    bfd5:	5d                   	pop    %rbp
    bfd6:	41 5c                	pop    %r12
    bfd8:	41 5d                	pop    %r13
    bfda:	c3                   	ret

000000000000bfdb <__Pyx_CyFunction_CallMethod>:
    bfdb:	41 55                	push   %r13
    bfdd:	41 54                	push   %r12
    bfdf:	49 89 f4             	mov    %rsi,%r12
    bfe2:	55                   	push   %rbp
    bfe3:	48 89 fd             	mov    %rdi,%rbp
    bfe6:	48 89 cf             	mov    %rcx,%rdi
    bfe9:	53                   	push   %rbx
    bfea:	48 89 d3             	mov    %rdx,%rbx
    bfed:	41 51                	push   %r9
    bfef:	48 8b 45 10          	mov    0x10(%rbp),%rax
    bff3:	4c 8b 68 08          	mov    0x8(%rax),%r13
    bff7:	8b 40 10             	mov    0x10(%rax),%eax
    bffa:	83 e0 0f             	and    $0xf,%eax
    bffd:	83 f8 04             	cmp    $0x4,%eax
    c000:	74 4c                	je     c04e <__Pyx_CyFunction_CallMethod+0x73>
    c002:	7f 24                	jg     c028 <__Pyx_CyFunction_CallMethod+0x4d>
    c004:	83 f8 01             	cmp    $0x1,%eax
    c007:	74 29                	je     c032 <__Pyx_CyFunction_CallMethod+0x57>
    c009:	83 f8 03             	cmp    $0x3,%eax
    c00c:	0f 85 f6 00 00 00    	jne    c108 <__Pyx_CyFunction_CallMethod+0x12d>
    c012:	41 58                	pop    %r8
    c014:	48 89 de             	mov    %rbx,%rsi
    c017:	4c 89 e7             	mov    %r12,%rdi
    c01a:	5b                   	pop    %rbx
    c01b:	4c 89 e8             	mov    %r13,%rax
    c01e:	5d                   	pop    %rbp
    c01f:	48 89 ca             	mov    %rcx,%rdx
    c022:	41 5c                	pop    %r12
    c024:	41 5d                	pop    %r13
    c026:	ff e0                	jmp    *%rax
    c028:	83 f8 08             	cmp    $0x8,%eax
    c02b:	74 5a                	je     c087 <__Pyx_CyFunction_CallMethod+0xac>
    c02d:	e9 d6 00 00 00       	jmp    c108 <__Pyx_CyFunction_CallMethod+0x12d>
    c032:	48 85 c9             	test   %rcx,%rcx
    c035:	75 08                	jne    c03f <__Pyx_CyFunction_CallMethod+0x64>
    c037:	48 89 de             	mov    %rbx,%rsi
    c03a:	e9 9c 00 00 00       	jmp    c0db <__Pyx_CyFunction_CallMethod+0x100>
    c03f:	e8 ac 83 ff ff       	call   43f0 <PyDict_Size@plt>
    c044:	48 85 c0             	test   %rax,%rax
    c047:	74 ee                	je     c037 <__Pyx_CyFunction_CallMethod+0x5c>
    c049:	e9 cf 00 00 00       	jmp    c11d <__Pyx_CyFunction_CallMethod+0x142>
    c04e:	48 85 c9             	test   %rcx,%rcx
    c051:	75 25                	jne    c078 <__Pyx_CyFunction_CallMethod+0x9d>
    c053:	48 89 df             	mov    %rbx,%rdi
    c056:	e8 76 fc ff ff       	call   bcd1 <PyTuple_GET_SIZE>
    c05b:	31 f6                	xor    %esi,%esi
    c05d:	48 89 c1             	mov    %rax,%rcx
    c060:	48 85 c0             	test   %rax,%rax
    c063:	74 76                	je     c0db <__Pyx_CyFunction_CallMethod+0x100>
    c065:	48 8b 45 10          	mov    0x10(%rbp),%rax
    c069:	48 8d 35 97 63 00 00 	lea    0x6397(%rip),%rsi        # 12407 <_IO_stdin_used+0x407>
    c070:	48 8b 10             	mov    (%rax),%rdx
    c073:	e9 80 00 00 00       	jmp    c0f8 <__Pyx_CyFunction_CallMethod+0x11d>
    c078:	e8 73 83 ff ff       	call   43f0 <PyDict_Size@plt>
    c07d:	48 85 c0             	test   %rax,%rax
    c080:	74 d1                	je     c053 <__Pyx_CyFunction_CallMethod+0x78>
    c082:	e9 96 00 00 00       	jmp    c11d <__Pyx_CyFunction_CallMethod+0x142>
    c087:	48 85 c9             	test   %rcx,%rcx
    c08a:	75 13                	jne    c09f <__Pyx_CyFunction_CallMethod+0xc4>
    c08c:	48 89 df             	mov    %rbx,%rdi
    c08f:	e8 3d fc ff ff       	call   bcd1 <PyTuple_GET_SIZE>
    c094:	48 89 c1             	mov    %rax,%rcx
    c097:	48 83 f8 01          	cmp    $0x1,%rax
    c09b:	74 0e                	je     c0ab <__Pyx_CyFunction_CallMethod+0xd0>
    c09d:	eb 4b                	jmp    c0ea <__Pyx_CyFunction_CallMethod+0x10f>
    c09f:	e8 4c 83 ff ff       	call   43f0 <PyDict_Size@plt>
    c0a4:	48 85 c0             	test   %rax,%rax
    c0a7:	74 e3                	je     c08c <__Pyx_CyFunction_CallMethod+0xb1>
    c0a9:	eb 72                	jmp    c11d <__Pyx_CyFunction_CallMethod+0x142>
    c0ab:	48 8b 43 08          	mov    0x8(%rbx),%rax
    c0af:	f6 80 ab 00 00 00 04 	testb  $0x4,0xab(%rax)
    c0b6:	75 1f                	jne    c0d7 <__Pyx_CyFunction_CallMethod+0xfc>
    c0b8:	48 8d 0d 51 6d 00 00 	lea    0x6d51(%rip),%rcx        # 12e10 <__PRETTY_FUNCTION__.9>
    c0bf:	ba fe 22 00 00       	mov    $0x22fe,%edx
    c0c4:	48 8d 35 99 5f 00 00 	lea    0x5f99(%rip),%rsi        # 12064 <_IO_stdin_used+0x64>
    c0cb:	48 8d 3d 5d 63 00 00 	lea    0x635d(%rip),%rdi        # 1242f <_IO_stdin_used+0x42f>
    c0d2:	e8 49 80 ff ff       	call   4120 <__assert_fail@plt>
    c0d7:	48 8b 73 18          	mov    0x18(%rbx),%rsi
    c0db:	59                   	pop    %rcx
    c0dc:	4c 89 e7             	mov    %r12,%rdi
    c0df:	5b                   	pop    %rbx
    c0e0:	4c 89 e8             	mov    %r13,%rax
    c0e3:	5d                   	pop    %rbp
    c0e4:	41 5c                	pop    %r12
    c0e6:	41 5d                	pop    %r13
    c0e8:	ff e0                	jmp    *%rax
    c0ea:	48 8b 45 10          	mov    0x10(%rbp),%rax
    c0ee:	48 8d 35 e2 62 00 00 	lea    0x62e2(%rip),%rsi        # 123d7 <_IO_stdin_used+0x3d7>
    c0f5:	48 8b 10             	mov    (%rax),%rdx
    c0f8:	48 8b 3d 21 ad 00 00 	mov    0xad21(%rip),%rdi        # 16e20 <PyExc_TypeError@@Base>
    c0ff:	31 c0                	xor    %eax,%eax
    c101:	e8 8a 81 ff ff       	call   4290 <PyErr_Format@plt>
    c106:	eb 31                	jmp    c139 <__Pyx_CyFunction_CallMethod+0x15e>
    c108:	48 8b 3d 51 ab 00 00 	mov    0xab51(%rip),%rdi        # 16c60 <PyExc_SystemError@@Base>
    c10f:	48 8d 35 2c 63 00 00 	lea    0x632c(%rip),%rsi        # 12442 <_IO_stdin_used+0x442>
    c116:	e8 e5 85 ff ff       	call   4700 <PyErr_SetString@plt>
    c11b:	eb 1c                	jmp    c139 <__Pyx_CyFunction_CallMethod+0x15e>
    c11d:	48 8b 45 10          	mov    0x10(%rbp),%rax
    c121:	48 8b 3d f8 ac 00 00 	mov    0xacf8(%rip),%rdi        # 16e20 <PyExc_TypeError@@Base>
    c128:	48 8d 35 84 62 00 00 	lea    0x6284(%rip),%rsi        # 123b3 <_IO_stdin_used+0x3b3>
    c12f:	48 8b 10             	mov    (%rax),%rdx
    c132:	31 c0                	xor    %eax,%eax
    c134:	e8 57 81 ff ff       	call   4290 <PyErr_Format@plt>
    c139:	5a                   	pop    %rdx
    c13a:	31 c0                	xor    %eax,%eax
    c13c:	5b                   	pop    %rbx
    c13d:	5d                   	pop    %rbp
    c13e:	41 5c                	pop    %r12
    c140:	41 5d                	pop    %r13
    c142:	c3                   	ret

000000000000c143 <PyUnicode_READ>:
    c143:	51                   	push   %rcx
    c144:	48 85 d2             	test   %rdx,%rdx
    c147:	79 1c                	jns    c165 <PyUnicode_READ+0x22>
    c149:	48 8d 0d 40 6e 00 00 	lea    0x6e40(%rip),%rcx        # 12f90 <__PRETTY_FUNCTION__.24>
    c150:	ba 3e 01 00 00       	mov    $0x13e,%edx
    c155:	48 8d 35 4c 61 00 00 	lea    0x614c(%rip),%rsi        # 122a8 <_IO_stdin_used+0x2a8>
    c15c:	48 8d 3d fd 62 00 00 	lea    0x62fd(%rip),%rdi        # 12460 <_IO_stdin_used+0x460>
    c163:	eb 35                	jmp    c19a <PyUnicode_READ+0x57>
    c165:	83 ff 01             	cmp    $0x1,%edi
    c168:	75 06                	jne    c170 <PyUnicode_READ+0x2d>
    c16a:	0f b6 04 16          	movzbl (%rsi,%rdx,1),%eax
    c16e:	eb 32                	jmp    c1a2 <PyUnicode_READ+0x5f>
    c170:	83 ff 02             	cmp    $0x2,%edi
    c173:	75 06                	jne    c17b <PyUnicode_READ+0x38>
    c175:	0f b7 04 56          	movzwl (%rsi,%rdx,2),%eax
    c179:	eb 27                	jmp    c1a2 <PyUnicode_READ+0x5f>
    c17b:	83 ff 04             	cmp    $0x4,%edi
    c17e:	74 1f                	je     c19f <PyUnicode_READ+0x5c>
    c180:	48 8d 0d 09 6e 00 00 	lea    0x6e09(%rip),%rcx        # 12f90 <__PRETTY_FUNCTION__.24>
    c187:	ba 45 01 00 00       	mov    $0x145,%edx
    c18c:	48 8d 35 15 61 00 00 	lea    0x6115(%rip),%rsi        # 122a8 <_IO_stdin_used+0x2a8>
    c193:	48 8d 3d d1 62 00 00 	lea    0x62d1(%rip),%rdi        # 1246b <_IO_stdin_used+0x46b>
    c19a:	e8 81 7f ff ff       	call   4120 <__assert_fail@plt>
    c19f:	8b 04 96             	mov    (%rsi,%rdx,4),%eax
    c1a2:	5a                   	pop    %rdx
    c1a3:	c3                   	ret

000000000000c1a4 <_PyLong_IsCompact>:
    c1a4:	48 8b 47 08          	mov    0x8(%rdi),%rax
    c1a8:	f6 80 ab 00 00 00 01 	testb  $0x1,0xab(%rax)
    c1af:	75 20                	jne    c1d1 <_PyLong_IsCompact+0x2d>
    c1b1:	50                   	push   %rax
    c1b2:	48 8d 0d 77 6d 00 00 	lea    0x6d77(%rip),%rcx        # 12f30 <__PRETTY_FUNCTION__.21>
    c1b9:	ba 6e 00 00 00       	mov    $0x6e,%edx
    c1be:	48 8d 35 c3 62 00 00 	lea    0x62c3(%rip),%rsi        # 12488 <_IO_stdin_used+0x488>
    c1c5:	48 8d 3d ea 62 00 00 	lea    0x62ea(%rip),%rdi        # 124b6 <_IO_stdin_used+0x4b6>
    c1cc:	e8 4f 7f ff ff       	call   4120 <__assert_fail@plt>
    c1d1:	31 c0                	xor    %eax,%eax
    c1d3:	48 83 7f 10 0f       	cmpq   $0xf,0x10(%rdi)
    c1d8:	0f 96 c0             	setbe  %al
    c1db:	c3                   	ret

000000000000c1dc <_PyLong_CompactValue>:
    c1dc:	53                   	push   %rbx
    c1dd:	48 8b 47 08          	mov    0x8(%rdi),%rax
    c1e1:	f6 80 ab 00 00 00 01 	testb  $0x1,0xab(%rax)
    c1e8:	75 1c                	jne    c206 <_PyLong_CompactValue+0x2a>
    c1ea:	48 8d 0d 1f 6d 00 00 	lea    0x6d1f(%rip),%rcx        # 12f10 <__PRETTY_FUNCTION__.20>
    c1f1:	ba 78 00 00 00       	mov    $0x78,%edx
    c1f6:	48 8d 35 8b 62 00 00 	lea    0x628b(%rip),%rsi        # 12488 <_IO_stdin_used+0x488>
    c1fd:	48 8d 3d b2 62 00 00 	lea    0x62b2(%rip),%rdi        # 124b6 <_IO_stdin_used+0x4b6>
    c204:	eb 26                	jmp    c22c <_PyLong_CompactValue+0x50>
    c206:	48 89 fb             	mov    %rdi,%rbx
    c209:	e8 96 ff ff ff       	call   c1a4 <_PyLong_IsCompact>
    c20e:	85 c0                	test   %eax,%eax
    c210:	75 1f                	jne    c231 <_PyLong_CompactValue+0x55>
    c212:	48 8d 0d f7 6c 00 00 	lea    0x6cf7(%rip),%rcx        # 12f10 <__PRETTY_FUNCTION__.20>
    c219:	ba 79 00 00 00       	mov    $0x79,%edx
    c21e:	48 8d 35 63 62 00 00 	lea    0x6263(%rip),%rsi        # 12488 <_IO_stdin_used+0x488>
    c225:	48 8d 3d cd 62 00 00 	lea    0x62cd(%rip),%rdi        # 124f9 <_IO_stdin_used+0x4f9>
    c22c:	e8 ef 7e ff ff       	call   4120 <__assert_fail@plt>
    c231:	48 8b 53 10          	mov    0x10(%rbx),%rdx
    c235:	b8 01 00 00 00       	mov    $0x1,%eax
    c23a:	83 e2 03             	and    $0x3,%edx
    c23d:	48 29 d0             	sub    %rdx,%rax
    c240:	8b 53 18             	mov    0x18(%rbx),%edx
    c243:	5b                   	pop    %rbx
    c244:	48 0f af c2          	imul   %rdx,%rax
    c248:	c3                   	ret

000000000000c249 <PyList_GET_SIZE>:
    c249:	48 8b 47 08          	mov    0x8(%rdi),%rax
    c24d:	f6 80 ab 00 00 00 02 	testb  $0x2,0xab(%rax)
    c254:	75 20                	jne    c276 <PyList_GET_SIZE+0x2d>
    c256:	50                   	push   %rax
    c257:	48 8d 0d 42 6c 00 00 	lea    0x6c42(%rip),%rcx        # 12ea0 <__PRETTY_FUNCTION__.15>
    c25e:	ba 22 00 00 00       	mov    $0x22,%edx
    c263:	48 8d 35 ad 62 00 00 	lea    0x62ad(%rip),%rsi        # 12517 <_IO_stdin_used+0x517>
    c26a:	48 8d 3d d3 62 00 00 	lea    0x62d3(%rip),%rdi        # 12544 <_IO_stdin_used+0x544>
    c271:	e8 aa 7e ff ff       	call   4120 <__assert_fail@plt>
    c276:	e9 f8 f9 ff ff       	jmp    bc73 <Py_SIZE>

000000000000c27b <PyList_SET_ITEM.part.0>:
    c27b:	50                   	push   %rax
    c27c:	48 8d 0d 0d 6c 00 00 	lea    0x6c0d(%rip),%rcx        # 12e90 <__PRETTY_FUNCTION__.14>
    c283:	ba 2b 00 00 00       	mov    $0x2b,%edx
    c288:	48 8d 35 88 62 00 00 	lea    0x6288(%rip),%rsi        # 12517 <_IO_stdin_used+0x517>
    c28f:	48 8d 3d ae 62 00 00 	lea    0x62ae(%rip),%rdi        # 12544 <_IO_stdin_used+0x544>
    c296:	e8 85 7e ff ff       	call   4120 <__assert_fail@plt>

000000000000c29b <PyDict_GET_SIZE.part.0>:
    c29b:	50                   	push   %rax
    c29c:	48 8d 0d 8d 6b 00 00 	lea    0x6b8d(%rip),%rcx        # 12e30 <__PRETTY_FUNCTION__.10>
    c2a3:	ba 37 00 00 00       	mov    $0x37,%edx
    c2a8:	48 8d 35 a6 62 00 00 	lea    0x62a6(%rip),%rsi        # 12555 <_IO_stdin_used+0x555>
    c2af:	48 8d 3d cc 62 00 00 	lea    0x62cc(%rip),%rdi        # 12582 <_IO_stdin_used+0x582>
    c2b6:	e8 65 7e ff ff       	call   4120 <__assert_fail@plt>

000000000000c2bb <PyTuple_SET_ITEM>:
    c2bb:	48 8b 47 08          	mov    0x8(%rdi),%rax
    c2bf:	f6 80 ab 00 00 00 04 	testb  $0x4,0xab(%rax)
    c2c6:	75 20                	jne    c2e8 <PyTuple_SET_ITEM+0x2d>
    c2c8:	50                   	push   %rax
    c2c9:	48 8d 0d 70 6a 00 00 	lea    0x6a70(%rip),%rcx        # 12d40 <__PRETTY_FUNCTION__.5>
    c2d0:	ba 21 00 00 00       	mov    $0x21,%edx
    c2d5:	48 8d 35 69 60 00 00 	lea    0x6069(%rip),%rsi        # 12345 <_IO_stdin_used+0x345>
    c2dc:	48 8d 3d 90 60 00 00 	lea    0x6090(%rip),%rdi        # 12373 <_IO_stdin_used+0x373>
    c2e3:	e8 38 7e ff ff       	call   4120 <__assert_fail@plt>
    c2e8:	48 89 54 f7 18       	mov    %rdx,0x18(%rdi,%rsi,8)
    c2ed:	c3                   	ret

000000000000c2ee <PyMethod_GET_SELF>:
    c2ee:	48 8d 05 eb b3 00 00 	lea    0xb3eb(%rip),%rax        # 176e0 <PyMethod_Type@@Base>
    c2f5:	48 39 47 08          	cmp    %rax,0x8(%rdi)
    c2f9:	74 20                	je     c31b <PyMethod_GET_SELF+0x2d>
    c2fb:	50                   	push   %rax
    c2fc:	48 8d 0d dd 69 00 00 	lea    0x69dd(%rip),%rcx        # 12ce0 <__PRETTY_FUNCTION__.2>
    c303:	ba 28 00 00 00       	mov    $0x28,%edx
    c308:	48 8d 35 84 62 00 00 	lea    0x6284(%rip),%rsi        # 12593 <_IO_stdin_used+0x593>
    c30f:	48 8d 3d ab 62 00 00 	lea    0x62ab(%rip),%rdi        # 125c1 <_IO_stdin_used+0x5c1>
    c316:	e8 05 7e ff ff       	call   4120 <__assert_fail@plt>
    c31b:	48 8b 47 18          	mov    0x18(%rdi),%rax
    c31f:	c3                   	ret

000000000000c320 <PyMethod_GET_FUNCTION>:
    c320:	48 8d 05 b9 b3 00 00 	lea    0xb3b9(%rip),%rax        # 176e0 <PyMethod_Type@@Base>
    c327:	48 39 47 08          	cmp    %rax,0x8(%rdi)
    c32b:	74 20                	je     c34d <PyMethod_GET_FUNCTION+0x2d>
    c32d:	50                   	push   %rax
    c32e:	48 8d 0d 8b 69 00 00 	lea    0x698b(%rip),%rcx        # 12cc0 <__PRETTY_FUNCTION__.1>
    c335:	ba 23 00 00 00       	mov    $0x23,%edx
    c33a:	48 8d 35 52 62 00 00 	lea    0x6252(%rip),%rsi        # 12593 <_IO_stdin_used+0x593>
    c341:	48 8d 3d 79 62 00 00 	lea    0x6279(%rip),%rdi        # 125c1 <_IO_stdin_used+0x5c1>
    c348:	e8 d3 7d ff ff       	call   4120 <__assert_fail@plt>
    c34d:	48 8b 47 10          	mov    0x10(%rdi),%rax
    c351:	c3                   	ret

000000000000c352 <__Pyx_PyMethod_New>:
    c352:	48 85 f6             	test   %rsi,%rsi
    c355:	75 0a                	jne    c361 <__Pyx_PyMethod_New+0xf>
    c357:	8b 07                	mov    (%rdi),%eax
    c359:	ff c0                	inc    %eax
    c35b:	74 09                	je     c366 <__Pyx_PyMethod_New+0x14>
    c35d:	89 07                	mov    %eax,(%rdi)
    c35f:	eb 05                	jmp    c366 <__Pyx_PyMethod_New+0x14>
    c361:	e9 ba 82 ff ff       	jmp    4620 <PyMethod_New@plt>
    c366:	48 89 f8             	mov    %rdi,%rax
    c369:	c3                   	ret

000000000000c36a <__Pyx_CyFunction_get_doc>:
    c36a:	48 8b 47 58          	mov    0x58(%rdi),%rax
    c36e:	48 85 c0             	test   %rax,%rax
    c371:	75 44                	jne    c3b7 <__Pyx_CyFunction_get_doc+0x4d>
    c373:	53                   	push   %rbx
    c374:	48 8b 47 10          	mov    0x10(%rdi),%rax
    c378:	48 89 fb             	mov    %rdi,%rbx
    c37b:	48 8b 78 18          	mov    0x18(%rax),%rdi
    c37f:	48 85 ff             	test   %rdi,%rdi
    c382:	74 10                	je     c394 <__Pyx_CyFunction_get_doc+0x2a>
    c384:	e8 b7 7d ff ff       	call   4140 <PyUnicode_FromString@plt>
    c389:	48 89 43 58          	mov    %rax,0x58(%rbx)
    c38d:	48 85 c0             	test   %rax,%rax
    c390:	75 1b                	jne    c3ad <__Pyx_CyFunction_get_doc+0x43>
    c392:	eb 21                	jmp    c3b5 <__Pyx_CyFunction_get_doc+0x4b>
    c394:	8b 05 86 b6 00 00    	mov    0xb686(%rip),%eax        # 17a20 <_Py_NoneStruct@@Base>
    c39a:	ff c0                	inc    %eax
    c39c:	74 06                	je     c3a4 <__Pyx_CyFunction_get_doc+0x3a>
    c39e:	89 05 7c b6 00 00    	mov    %eax,0xb67c(%rip)        # 17a20 <_Py_NoneStruct@@Base>
    c3a4:	48 8d 05 75 b6 00 00 	lea    0xb675(%rip),%rax        # 17a20 <_Py_NoneStruct@@Base>
    c3ab:	eb 08                	jmp    c3b5 <__Pyx_CyFunction_get_doc+0x4b>
    c3ad:	8b 10                	mov    (%rax),%edx
    c3af:	ff c2                	inc    %edx
    c3b1:	74 02                	je     c3b5 <__Pyx_CyFunction_get_doc+0x4b>
    c3b3:	89 10                	mov    %edx,(%rax)
    c3b5:	5b                   	pop    %rbx
    c3b6:	c3                   	ret
    c3b7:	8b 10                	mov    (%rax),%edx
    c3b9:	ff c2                	inc    %edx
    c3bb:	74 03                	je     c3c0 <__Pyx_CyFunction_get_doc+0x56>
    c3bd:	89 10                	mov    %edx,(%rax)
    c3bf:	c3                   	ret
    c3c0:	c3                   	ret

000000000000c3c1 <__Pyx_CyFunction_get_is_coroutine>:
    c3c1:	41 55                	push   %r13
    c3c3:	41 54                	push   %r12
    c3c5:	55                   	push   %rbp
    c3c6:	53                   	push   %rbx
    c3c7:	51                   	push   %rcx
    c3c8:	48 8b 9f b8 00 00 00 	mov    0xb8(%rdi),%rbx
    c3cf:	48 85 db             	test   %rbx,%rbx
    c3d2:	0f 85 d3 00 00 00    	jne    c4ab <__Pyx_CyFunction_get_is_coroutine+0xea>
    c3d8:	48 89 fd             	mov    %rdi,%rbp
    c3db:	f6 87 90 00 00 00 08 	testb  $0x8,0x90(%rdi)
    c3e2:	75 19                	jne    c3fd <__Pyx_CyFunction_get_is_coroutine+0x3c>
    c3e4:	8b 05 56 af 00 00    	mov    0xaf56(%rip),%eax        # 17340 <_Py_FalseStruct@@Base>
    c3ea:	ff c0                	inc    %eax
    c3ec:	0f 84 d4 00 00 00    	je     c4c6 <__Pyx_CyFunction_get_is_coroutine+0x105>
    c3f2:	89 05 48 af 00 00    	mov    %eax,0xaf48(%rip)        # 17340 <_Py_FalseStruct@@Base>
    c3f8:	e9 cc 00 00 00       	jmp    c4c9 <__Pyx_CyFunction_get_is_coroutine+0x108>
    c3fd:	bf 01 00 00 00       	mov    $0x1,%edi
    c402:	4c 8b 2d 0f ba 00 00 	mov    0xba0f(%rip),%r13        # 17e18 <__pyx_mstate_global_static+0x1b8>
    c409:	e8 62 83 ff ff       	call   4770 <PyList_New@plt>
    c40e:	48 89 c3             	mov    %rax,%rbx
    c411:	48 85 c0             	test   %rax,%rax
    c414:	0f 84 cf 00 00 00    	je     c4e9 <__Pyx_CyFunction_get_is_coroutine+0x128>
    c41a:	41 8b 45 00          	mov    0x0(%r13),%eax
    c41e:	ff c0                	inc    %eax
    c420:	74 04                	je     c426 <__Pyx_CyFunction_get_is_coroutine+0x65>
    c422:	41 89 45 00          	mov    %eax,0x0(%r13)
    c426:	48 8b 43 08          	mov    0x8(%rbx),%rax
    c42a:	f6 80 ab 00 00 00 02 	testb  $0x2,0xab(%rax)
    c431:	75 05                	jne    c438 <__Pyx_CyFunction_get_is_coroutine+0x77>
    c433:	e8 43 fe ff ff       	call   c27b <PyList_SET_ITEM.part.0>
    c438:	48 8b 43 18          	mov    0x18(%rbx),%rax
    c43c:	45 31 c0             	xor    %r8d,%r8d
    c43f:	48 89 d9             	mov    %rbx,%rcx
    c442:	31 d2                	xor    %edx,%edx
    c444:	31 f6                	xor    %esi,%esi
    c446:	4c 89 28             	mov    %r13,(%rax)
    c449:	48 8b 3d c0 b8 00 00 	mov    0xb8c0(%rip),%rdi        # 17d10 <__pyx_mstate_global_static+0xb0>
    c450:	e8 cb 7f ff ff       	call   4420 <PyImport_ImportModuleLevelObject@plt>
    c455:	49 89 c4             	mov    %rax,%r12
    c458:	48 8b 03             	mov    (%rbx),%rax
    c45b:	85 c0                	test   %eax,%eax
    c45d:	78 10                	js     c46f <__Pyx_CyFunction_get_is_coroutine+0xae>
    c45f:	48 ff c8             	dec    %rax
    c462:	48 89 03             	mov    %rax,(%rbx)
    c465:	75 08                	jne    c46f <__Pyx_CyFunction_get_is_coroutine+0xae>
    c467:	48 89 df             	mov    %rbx,%rdi
    c46a:	e8 e1 81 ff ff       	call   4650 <_Py_Dealloc@plt>
    c46f:	4d 85 e4             	test   %r12,%r12
    c472:	74 3b                	je     c4af <__Pyx_CyFunction_get_is_coroutine+0xee>
    c474:	4c 89 ee             	mov    %r13,%rsi
    c477:	4c 89 e7             	mov    %r12,%rdi
    c47a:	e8 fd f0 ff ff       	call   b57c <__Pyx_PyObject_GetAttrStr>
    c47f:	48 89 85 b8 00 00 00 	mov    %rax,0xb8(%rbp)
    c486:	49 8b 04 24          	mov    (%r12),%rax
    c48a:	85 c0                	test   %eax,%eax
    c48c:	78 11                	js     c49f <__Pyx_CyFunction_get_is_coroutine+0xde>
    c48e:	48 ff c8             	dec    %rax
    c491:	49 89 04 24          	mov    %rax,(%r12)
    c495:	75 08                	jne    c49f <__Pyx_CyFunction_get_is_coroutine+0xde>
    c497:	4c 89 e7             	mov    %r12,%rdi
    c49a:	e8 b1 81 ff ff       	call   4650 <_Py_Dealloc@plt>
    c49f:	48 8b 9d b8 00 00 00 	mov    0xb8(%rbp),%rbx
    c4a6:	48 85 db             	test   %rbx,%rbx
    c4a9:	74 04                	je     c4af <__Pyx_CyFunction_get_is_coroutine+0xee>
    c4ab:	8b 03                	mov    (%rbx),%eax
    c4ad:	eb 34                	jmp    c4e3 <__Pyx_CyFunction_get_is_coroutine+0x122>
    c4af:	e8 dc 81 ff ff       	call   4690 <PyErr_Clear@plt>
    c4b4:	8b 05 46 b0 00 00    	mov    0xb046(%rip),%eax        # 17500 <_Py_TrueStruct@@Base>
    c4ba:	ff c0                	inc    %eax
    c4bc:	74 14                	je     c4d2 <__Pyx_CyFunction_get_is_coroutine+0x111>
    c4be:	89 05 3c b0 00 00    	mov    %eax,0xb03c(%rip)        # 17500 <_Py_TrueStruct@@Base>
    c4c4:	eb 0f                	jmp    c4d5 <__Pyx_CyFunction_get_is_coroutine+0x114>
    c4c6:	83 c8 ff             	or     $0xffffffff,%eax
    c4c9:	48 8d 1d 70 ae 00 00 	lea    0xae70(%rip),%rbx        # 17340 <_Py_FalseStruct@@Base>
    c4d0:	eb 0a                	jmp    c4dc <__Pyx_CyFunction_get_is_coroutine+0x11b>
    c4d2:	83 c8 ff             	or     $0xffffffff,%eax
    c4d5:	48 8d 1d 24 b0 00 00 	lea    0xb024(%rip),%rbx        # 17500 <_Py_TrueStruct@@Base>
    c4dc:	48 89 9d b8 00 00 00 	mov    %rbx,0xb8(%rbp)
    c4e3:	ff c0                	inc    %eax
    c4e5:	74 02                	je     c4e9 <__Pyx_CyFunction_get_is_coroutine+0x128>
    c4e7:	89 03                	mov    %eax,(%rbx)
    c4e9:	5a                   	pop    %rdx
    c4ea:	48 89 d8             	mov    %rbx,%rax
    c4ed:	5b                   	pop    %rbx
    c4ee:	5d                   	pop    %rbp
    c4ef:	41 5c                	pop    %r12
    c4f1:	41 5d                	pop    %r13
    c4f3:	c3                   	ret

000000000000c4f4 <__Pyx_PyDict_GetItem>:
    c4f4:	55                   	push   %rbp
    c4f5:	53                   	push   %rbx
    c4f6:	48 89 f3             	mov    %rsi,%rbx
    c4f9:	51                   	push   %rcx
    c4fa:	e8 f1 7c ff ff       	call   41f0 <PyDict_GetItemWithError@plt>
    c4ff:	48 89 c5             	mov    %rax,%rbp
    c502:	48 85 c0             	test   %rax,%rax
    c505:	75 64                	jne    c56b <__Pyx_PyDict_GetItem+0x77>
    c507:	e8 e4 7d ff ff       	call   42f0 <PyErr_Occurred@plt>
    c50c:	48 85 c0             	test   %rax,%rax
    c50f:	75 63                	jne    c574 <__Pyx_PyDict_GetItem+0x80>
    c511:	48 8b 43 08          	mov    0x8(%rbx),%rax
    c515:	48 89 de             	mov    %rbx,%rsi
    c518:	f6 80 ab 00 00 00 04 	testb  $0x4,0xab(%rax)
    c51f:	74 3c                	je     c55d <__Pyx_PyDict_GetItem+0x69>
    c521:	bf 01 00 00 00       	mov    $0x1,%edi
    c526:	31 c0                	xor    %eax,%eax
    c528:	e8 83 7e ff ff       	call   43b0 <PyTuple_Pack@plt>
    c52d:	48 89 c3             	mov    %rax,%rbx
    c530:	48 85 c0             	test   %rax,%rax
    c533:	74 3f                	je     c574 <__Pyx_PyDict_GetItem+0x80>
    c535:	48 8b 3d a4 aa 00 00 	mov    0xaaa4(%rip),%rdi        # 16fe0 <PyExc_KeyError@@Base>
    c53c:	48 89 c6             	mov    %rax,%rsi
    c53f:	e8 0c 7e ff ff       	call   4350 <PyErr_SetObject@plt>
    c544:	48 8b 03             	mov    (%rbx),%rax
    c547:	85 c0                	test   %eax,%eax
    c549:	78 29                	js     c574 <__Pyx_PyDict_GetItem+0x80>
    c54b:	48 ff c8             	dec    %rax
    c54e:	48 89 03             	mov    %rax,(%rbx)
    c551:	75 21                	jne    c574 <__Pyx_PyDict_GetItem+0x80>
    c553:	48 89 df             	mov    %rbx,%rdi
    c556:	e8 f5 80 ff ff       	call   4650 <_Py_Dealloc@plt>
    c55b:	eb 17                	jmp    c574 <__Pyx_PyDict_GetItem+0x80>
    c55d:	48 8b 3d 7c aa 00 00 	mov    0xaa7c(%rip),%rdi        # 16fe0 <PyExc_KeyError@@Base>
    c564:	e8 e7 7d ff ff       	call   4350 <PyErr_SetObject@plt>
    c569:	eb 09                	jmp    c574 <__Pyx_PyDict_GetItem+0x80>
    c56b:	8b 00                	mov    (%rax),%eax
    c56d:	ff c0                	inc    %eax
    c56f:	74 03                	je     c574 <__Pyx_PyDict_GetItem+0x80>
    c571:	89 45 00             	mov    %eax,0x0(%rbp)
    c574:	48 89 e8             	mov    %rbp,%rax
    c577:	5a                   	pop    %rdx
    c578:	5b                   	pop    %rbx
    c579:	5d                   	pop    %rbp
    c57a:	c3                   	ret

000000000000c57b <__Pyx_CyFunction_set_annotations>:
    c57b:	48 8d 05 9e b4 00 00 	lea    0xb49e(%rip),%rax        # 17a20 <_Py_NoneStruct@@Base>
    c582:	48 89 fa             	mov    %rdi,%rdx
    c585:	51                   	push   %rcx
    c586:	48 39 c6             	cmp    %rax,%rsi
    c589:	74 2a                	je     c5b5 <__Pyx_CyFunction_set_annotations+0x3a>
    c58b:	48 85 f6             	test   %rsi,%rsi
    c58e:	74 25                	je     c5b5 <__Pyx_CyFunction_set_annotations+0x3a>
    c590:	48 8b 46 08          	mov    0x8(%rsi),%rax
    c594:	f6 80 ab 00 00 00 20 	testb  $0x20,0xab(%rax)
    c59b:	75 1a                	jne    c5b7 <__Pyx_CyFunction_set_annotations+0x3c>
    c59d:	48 8b 3d 7c a8 00 00 	mov    0xa87c(%rip),%rdi        # 16e20 <PyExc_TypeError@@Base>
    c5a4:	48 8d 35 2b 60 00 00 	lea    0x602b(%rip),%rsi        # 125d6 <_IO_stdin_used+0x5d6>
    c5ab:	e8 50 81 ff ff       	call   4700 <PyErr_SetString@plt>
    c5b0:	83 c8 ff             	or     $0xffffffff,%eax
    c5b3:	eb 1f                	jmp    c5d4 <__Pyx_CyFunction_set_annotations+0x59>
    c5b5:	31 f6                	xor    %esi,%esi
    c5b7:	48 89 f7             	mov    %rsi,%rdi
    c5ba:	e8 da eb ff ff       	call   b199 <Py_XINCREF>
    c5bf:	48 8b ba b0 00 00 00 	mov    0xb0(%rdx),%rdi
    c5c6:	48 89 b2 b0 00 00 00 	mov    %rsi,0xb0(%rdx)
    c5cd:	e8 cc f0 ff ff       	call   b69e <Py_XDECREF>
    c5d2:	31 c0                	xor    %eax,%eax
    c5d4:	5a                   	pop    %rdx
    c5d5:	c3                   	ret

000000000000c5d6 <__Pyx_CyFunction_set_qualname>:
    c5d6:	51                   	push   %rcx
    c5d7:	48 85 f6             	test   %rsi,%rsi
    c5da:	74 0d                	je     c5e9 <__Pyx_CyFunction_set_qualname+0x13>
    c5dc:	48 8b 46 08          	mov    0x8(%rsi),%rax
    c5e0:	f6 80 ab 00 00 00 10 	testb  $0x10,0xab(%rax)
    c5e7:	75 18                	jne    c601 <__Pyx_CyFunction_set_qualname+0x2b>
    c5e9:	48 8b 3d 30 a8 00 00 	mov    0xa830(%rip),%rdi        # 16e20 <PyExc_TypeError@@Base>
    c5f0:	48 8d 35 0c 60 00 00 	lea    0x600c(%rip),%rsi        # 12603 <_IO_stdin_used+0x603>
    c5f7:	e8 04 81 ff ff       	call   4700 <PyErr_SetString@plt>
    c5fc:	83 c8 ff             	or     $0xffffffff,%eax
    c5ff:	eb 1a                	jmp    c61b <__Pyx_CyFunction_set_qualname+0x45>
    c601:	8b 06                	mov    (%rsi),%eax
    c603:	ff c0                	inc    %eax
    c605:	74 02                	je     c609 <__Pyx_CyFunction_set_qualname+0x33>
    c607:	89 06                	mov    %eax,(%rsi)
    c609:	48 8b 47 50          	mov    0x50(%rdi),%rax
    c60d:	48 89 77 50          	mov    %rsi,0x50(%rdi)
    c611:	48 89 c7             	mov    %rax,%rdi
    c614:	e8 85 f0 ff ff       	call   b69e <Py_XDECREF>
    c619:	31 c0                	xor    %eax,%eax
    c61b:	5a                   	pop    %rdx
    c61c:	c3                   	ret

000000000000c61d <__Pyx_CyFunction_set_name>:
    c61d:	51                   	push   %rcx
    c61e:	48 85 f6             	test   %rsi,%rsi
    c621:	74 0d                	je     c630 <__Pyx_CyFunction_set_name+0x13>
    c623:	48 8b 46 08          	mov    0x8(%rsi),%rax
    c627:	f6 80 ab 00 00 00 10 	testb  $0x10,0xab(%rax)
    c62e:	75 18                	jne    c648 <__Pyx_CyFunction_set_name+0x2b>
    c630:	48 8b 3d e9 a7 00 00 	mov    0xa7e9(%rip),%rdi        # 16e20 <PyExc_TypeError@@Base>
    c637:	48 8d 35 f1 5f 00 00 	lea    0x5ff1(%rip),%rsi        # 1262f <_IO_stdin_used+0x62f>
    c63e:	e8 bd 80 ff ff       	call   4700 <PyErr_SetString@plt>
    c643:	83 c8 ff             	or     $0xffffffff,%eax
    c646:	eb 1a                	jmp    c662 <__Pyx_CyFunction_set_name+0x45>
    c648:	8b 06                	mov    (%rsi),%eax
    c64a:	ff c0                	inc    %eax
    c64c:	74 02                	je     c650 <__Pyx_CyFunction_set_name+0x33>
    c64e:	89 06                	mov    %eax,(%rsi)
    c650:	48 8b 47 48          	mov    0x48(%rdi),%rax
    c654:	48 89 77 48          	mov    %rsi,0x48(%rdi)
    c658:	48 89 c7             	mov    %rax,%rdi
    c65b:	e8 3e f0 ff ff       	call   b69e <Py_XDECREF>
    c660:	31 c0                	xor    %eax,%eax
    c662:	5a                   	pop    %rdx
    c663:	c3                   	ret

000000000000c664 <__Pyx_ErrRestoreInState>:
    c664:	41 55                	push   %r13
    c666:	49 89 fd             	mov    %rdi,%r13
    c669:	41 54                	push   %r12
    c66b:	49 89 f4             	mov    %rsi,%r12
    c66e:	55                   	push   %rbp
    c66f:	48 89 cd             	mov    %rcx,%rbp
    c672:	53                   	push   %rbx
    c673:	48 89 d3             	mov    %rdx,%rbx
    c676:	41 50                	push   %r8
    c678:	48 85 f6             	test   %rsi,%rsi
    c67b:	74 2a                	je     c6a7 <__Pyx_ErrRestoreInState+0x43>
    c67d:	48 85 d2             	test   %rdx,%rdx
    c680:	74 06                	je     c688 <__Pyx_ErrRestoreInState+0x24>
    c682:	48 3b 72 08          	cmp    0x8(%rdx),%rsi
    c686:	74 24                	je     c6ac <__Pyx_ErrRestoreInState+0x48>
    c688:	48 8d 0d 71 66 00 00 	lea    0x6671(%rip),%rcx        # 12d00 <__PRETTY_FUNCTION__.3>
    c68f:	ba b4 18 00 00       	mov    $0x18b4,%edx
    c694:	48 8d 35 c9 59 00 00 	lea    0x59c9(%rip),%rsi        # 12064 <_IO_stdin_used+0x64>
    c69b:	48 8d 3d b5 5f 00 00 	lea    0x5fb5(%rip),%rdi        # 12657 <_IO_stdin_used+0x657>
    c6a2:	e8 79 7a ff ff       	call   4120 <__assert_fail@plt>
    c6a7:	48 85 d2             	test   %rdx,%rdx
    c6aa:	74 11                	je     c6bd <__Pyx_ErrRestoreInState+0x59>
    c6ac:	48 39 6b 28          	cmp    %rbp,0x28(%rbx)
    c6b0:	74 0b                	je     c6bd <__Pyx_ErrRestoreInState+0x59>
    c6b2:	48 89 ee             	mov    %rbp,%rsi
    c6b5:	48 89 df             	mov    %rbx,%rdi
    c6b8:	e8 83 7f ff ff       	call   4640 <PyException_SetTraceback@plt>
    c6bd:	49 8b 7d 60          	mov    0x60(%r13),%rdi
    c6c1:	49 89 5d 60          	mov    %rbx,0x60(%r13)
    c6c5:	e8 d4 ef ff ff       	call   b69e <Py_XDECREF>
    c6ca:	4c 89 e7             	mov    %r12,%rdi
    c6cd:	e8 cc ef ff ff       	call   b69e <Py_XDECREF>
    c6d2:	58                   	pop    %rax
    c6d3:	48 89 ef             	mov    %rbp,%rdi
    c6d6:	5b                   	pop    %rbx
    c6d7:	5d                   	pop    %rbp
    c6d8:	41 5c                	pop    %r12
    c6da:	41 5d                	pop    %r13
    c6dc:	e9 bd ef ff ff       	jmp    b69e <Py_XDECREF>

000000000000c6e1 <PyFloat_AS_DOUBLE>:
    c6e1:	53                   	push   %rbx
    c6e2:	48 89 fb             	mov    %rdi,%rbx
    c6e5:	48 8b 7f 08          	mov    0x8(%rdi),%rdi
    c6e9:	48 8d 35 b0 aa 00 00 	lea    0xaab0(%rip),%rsi        # 171a0 <PyFloat_Type@@Base>
    c6f0:	48 39 f7             	cmp    %rsi,%rdi
    c6f3:	74 28                	je     c71d <PyFloat_AS_DOUBLE+0x3c>
    c6f5:	e8 66 7d ff ff       	call   4460 <PyType_IsSubtype@plt>
    c6fa:	85 c0                	test   %eax,%eax
    c6fc:	75 1f                	jne    c71d <PyFloat_AS_DOUBLE+0x3c>
    c6fe:	48 8d 0d 4b 68 00 00 	lea    0x684b(%rip),%rcx        # 12f50 <__PRETTY_FUNCTION__.22>
    c705:	ba 10 00 00 00       	mov    $0x10,%edx
    c70a:	48 8d 35 8c 5f 00 00 	lea    0x5f8c(%rip),%rsi        # 1269d <_IO_stdin_used+0x69d>
    c711:	48 8d 3d b3 5f 00 00 	lea    0x5fb3(%rip),%rdi        # 126cb <_IO_stdin_used+0x6cb>
    c718:	e8 03 7a ff ff       	call   4120 <__assert_fail@plt>
    c71d:	f2 0f 10 43 10       	movsd  0x10(%rbx),%xmm0
    c722:	5b                   	pop    %rbx
    c723:	c3                   	ret

000000000000c724 <__Pyx_PyInt_BoolNeObjC.constprop.0>:
    c724:	55                   	push   %rbp
    c725:	53                   	push   %rbx
    c726:	31 db                	xor    %ebx,%ebx
    c728:	51                   	push   %rcx
    c729:	48 39 f7             	cmp    %rsi,%rdi
    c72c:	74 7e                	je     c7ac <__Pyx_PyInt_BoolNeObjC.constprop.0+0x88>
    c72e:	48 8b 47 08          	mov    0x8(%rdi),%rax
    c732:	48 8d 15 47 b1 00 00 	lea    0xb147(%rip),%rdx        # 17880 <PyLong_Type@@Base>
    c739:	48 39 d0             	cmp    %rdx,%rax
    c73c:	75 0c                	jne    c74a <__Pyx_PyInt_BoolNeObjC.constprop.0+0x26>
    c73e:	48 8b 5f 10          	mov    0x10(%rdi),%rbx
    c742:	48 f7 d3             	not    %rbx
    c745:	83 e3 01             	and    $0x1,%ebx
    c748:	eb 62                	jmp    c7ac <__Pyx_PyInt_BoolNeObjC.constprop.0+0x88>
    c74a:	48 8d 15 4f aa 00 00 	lea    0xaa4f(%rip),%rdx        # 171a0 <PyFloat_Type@@Base>
    c751:	48 39 d0             	cmp    %rdx,%rax
    c754:	75 1e                	jne    c774 <__Pyx_PyInt_BoolNeObjC.constprop.0+0x50>
    c756:	e8 86 ff ff ff       	call   c6e1 <PyFloat_AS_DOUBLE>
    c75b:	31 db                	xor    %ebx,%ebx
    c75d:	b8 01 00 00 00       	mov    $0x1,%eax
    c762:	0f 28 c8             	movaps %xmm0,%xmm1
    c765:	0f 57 c0             	xorps  %xmm0,%xmm0
    c768:	66 0f 2e c8          	ucomisd %xmm0,%xmm1
    c76c:	0f 9a c3             	setp   %bl
    c76f:	0f 45 d8             	cmovne %eax,%ebx
    c772:	eb 38                	jmp    c7ac <__Pyx_PyInt_BoolNeObjC.constprop.0+0x88>
    c774:	ba 03 00 00 00       	mov    $0x3,%edx
    c779:	83 cb ff             	or     $0xffffffff,%ebx
    c77c:	e8 bf 7c ff ff       	call   4440 <PyObject_RichCompare@plt>
    c781:	48 89 c5             	mov    %rax,%rbp
    c784:	48 85 c0             	test   %rax,%rax
    c787:	74 23                	je     c7ac <__Pyx_PyInt_BoolNeObjC.constprop.0+0x88>
    c789:	48 89 c7             	mov    %rax,%rdi
    c78c:	e8 b8 ed ff ff       	call   b549 <__Pyx_PyObject_IsTrue>
    c791:	89 c3                	mov    %eax,%ebx
    c793:	48 8b 45 00          	mov    0x0(%rbp),%rax
    c797:	85 c0                	test   %eax,%eax
    c799:	78 11                	js     c7ac <__Pyx_PyInt_BoolNeObjC.constprop.0+0x88>
    c79b:	48 ff c8             	dec    %rax
    c79e:	48 89 45 00          	mov    %rax,0x0(%rbp)
    c7a2:	75 08                	jne    c7ac <__Pyx_PyInt_BoolNeObjC.constprop.0+0x88>
    c7a4:	48 89 ef             	mov    %rbp,%rdi
    c7a7:	e8 a4 7e ff ff       	call   4650 <_Py_Dealloc@plt>
    c7ac:	89 d8                	mov    %ebx,%eax
    c7ae:	5a                   	pop    %rdx
    c7af:	5b                   	pop    %rbx
    c7b0:	5d                   	pop    %rbp
    c7b1:	c3                   	ret

000000000000c7b2 <__Pyx_PyInt_MultiplyObjC.constprop.0>:
    c7b2:	53                   	push   %rbx
    c7b3:	48 8d 05 c6 b0 00 00 	lea    0xb0c6(%rip),%rax        # 17880 <PyLong_Type@@Base>
    c7ba:	48 83 ec 10          	sub    $0x10,%rsp
    c7be:	48 8b 5f 08          	mov    0x8(%rdi),%rbx
    c7c2:	48 39 c3             	cmp    %rax,%rbx
    c7c5:	75 4d                	jne    c814 <__Pyx_PyInt_MultiplyObjC.constprop.0+0x62>
    c7c7:	f6 47 10 01          	testb  $0x1,0x10(%rdi)
    c7cb:	74 0a                	je     c7d7 <__Pyx_PyInt_MultiplyObjC.constprop.0+0x25>
    c7cd:	8b 07                	mov    (%rdi),%eax
    c7cf:	ff c0                	inc    %eax
    c7d1:	74 6e                	je     c841 <__Pyx_PyInt_MultiplyObjC.constprop.0+0x8f>
    c7d3:	89 07                	mov    %eax,(%rdi)
    c7d5:	eb 6a                	jmp    c841 <__Pyx_PyInt_MultiplyObjC.constprop.0+0x8f>
    c7d7:	48 89 74 24 08       	mov    %rsi,0x8(%rsp)
    c7dc:	48 89 3c 24          	mov    %rdi,(%rsp)
    c7e0:	e8 bf f9 ff ff       	call   c1a4 <_PyLong_IsCompact>
    c7e5:	48 8b 3c 24          	mov    (%rsp),%rdi
    c7e9:	48 8b 74 24 08       	mov    0x8(%rsp),%rsi
    c7ee:	85 c0                	test   %eax,%eax
    c7f0:	74 13                	je     c805 <__Pyx_PyInt_MultiplyObjC.constprop.0+0x53>
    c7f2:	e8 e5 f9 ff ff       	call   c1dc <_PyLong_CompactValue>
    c7f7:	48 83 c4 10          	add    $0x10,%rsp
    c7fb:	48 6b f8 64          	imul   $0x64,%rax,%rdi
    c7ff:	5b                   	pop    %rbx
    c800:	e9 0b 7e ff ff       	jmp    4610 <PyLong_FromLongLong@plt>
    c805:	48 8b 43 60          	mov    0x60(%rbx),%rax
    c809:	48 8b 40 10          	mov    0x10(%rax),%rax
    c80d:	48 83 c4 10          	add    $0x10,%rsp
    c811:	5b                   	pop    %rbx
    c812:	ff e0                	jmp    *%rax
    c814:	48 8d 05 85 a9 00 00 	lea    0xa985(%rip),%rax        # 171a0 <PyFloat_Type@@Base>
    c81b:	48 39 c3             	cmp    %rax,%rbx
    c81e:	75 17                	jne    c837 <__Pyx_PyInt_MultiplyObjC.constprop.0+0x85>
    c820:	e8 bc fe ff ff       	call   c6e1 <PyFloat_AS_DOUBLE>
    c825:	f2 0f 59 05 33 6e 00 	mulsd  0x6e33(%rip),%xmm0        # 13660 <__pyx_k_1+0x12>
    c82c:	00 
    c82d:	48 83 c4 10          	add    $0x10,%rsp
    c831:	5b                   	pop    %rbx
    c832:	e9 69 7a ff ff       	jmp    42a0 <PyFloat_FromDouble@plt>
    c837:	48 83 c4 10          	add    $0x10,%rsp
    c83b:	5b                   	pop    %rbx
    c83c:	e9 1f 7b ff ff       	jmp    4360 <PyNumber_Multiply@plt>
    c841:	48 83 c4 10          	add    $0x10,%rsp
    c845:	48 89 f8             	mov    %rdi,%rax
    c848:	5b                   	pop    %rbx
    c849:	c3                   	ret

000000000000c84a <__Pyx__ExceptionReset.isra.0>:
    c84a:	55                   	push   %rbp
    c84b:	48 89 f5             	mov    %rsi,%rbp
    c84e:	53                   	push   %rbx
    c84f:	48 89 cb             	mov    %rcx,%rbx
    c852:	50                   	push   %rax
    c853:	48 8b 07             	mov    (%rdi),%rax
    c856:	48 89 17             	mov    %rdx,(%rdi)
    c859:	48 89 c7             	mov    %rax,%rdi
    c85c:	e8 3d ee ff ff       	call   b69e <Py_XDECREF>
    c861:	48 89 ef             	mov    %rbp,%rdi
    c864:	e8 35 ee ff ff       	call   b69e <Py_XDECREF>
    c869:	5a                   	pop    %rdx
    c86a:	48 89 df             	mov    %rbx,%rdi
    c86d:	5b                   	pop    %rbx
    c86e:	5d                   	pop    %rbp
    c86f:	e9 2a ee ff ff       	jmp    b69e <Py_XDECREF>

000000000000c874 <__Pyx__ExceptionSave.constprop.0.isra.0>:
    c874:	53                   	push   %rbx
    c875:	48 89 f8             	mov    %rdi,%rax
    c878:	48 89 cb             	mov    %rcx,%rbx
    c87b:	48 8d 0d 9e b1 00 00 	lea    0xb19e(%rip),%rcx        # 17a20 <_Py_NoneStruct@@Base>
    c882:	48 8b 38             	mov    (%rax),%rdi
    c885:	48 39 cf             	cmp    %rcx,%rdi
    c888:	74 05                	je     c88f <__Pyx__ExceptionSave.constprop.0.isra.0+0x1b>
    c88a:	48 85 ff             	test   %rdi,%rdi
    c88d:	75 0b                	jne    c89a <__Pyx__ExceptionSave.constprop.0.isra.0+0x26>
    c88f:	48 8b 40 08          	mov    0x8(%rax),%rax
    c893:	48 85 c0             	test   %rax,%rax
    c896:	75 ea                	jne    c882 <__Pyx__ExceptionSave.constprop.0.isra.0+0xe>
    c898:	eb 22                	jmp    c8bc <__Pyx__ExceptionSave.constprop.0.isra.0+0x48>
    c89a:	8b 07                	mov    (%rdi),%eax
    c89c:	48 89 3a             	mov    %rdi,(%rdx)
    c89f:	ff c0                	inc    %eax
    c8a1:	74 02                	je     c8a5 <__Pyx__ExceptionSave.constprop.0.isra.0+0x31>
    c8a3:	89 07                	mov    %eax,(%rdi)
    c8a5:	48 8b 57 08          	mov    0x8(%rdi),%rdx
    c8a9:	8b 02                	mov    (%rdx),%eax
    c8ab:	48 89 16             	mov    %rdx,(%rsi)
    c8ae:	ff c0                	inc    %eax
    c8b0:	74 02                	je     c8b4 <__Pyx__ExceptionSave.constprop.0.isra.0+0x40>
    c8b2:	89 02                	mov    %eax,(%rdx)
    c8b4:	e8 27 7f ff ff       	call   47e0 <PyException_GetTraceback@plt>
    c8b9:	48 89 03             	mov    %rax,(%rbx)
    c8bc:	5b                   	pop    %rbx
    c8bd:	c3                   	ret

000000000000c8be <__Pyx__GetException.constprop.0>:
    c8be:	41 55                	push   %r13
    c8c0:	49 89 f5             	mov    %rsi,%r13
    c8c3:	41 54                	push   %r12
    c8c5:	49 89 d4             	mov    %rdx,%r12
    c8c8:	31 d2                	xor    %edx,%edx
    c8ca:	55                   	push   %rbp
    c8cb:	53                   	push   %rbx
    c8cc:	48 89 fb             	mov    %rdi,%rbx
    c8cf:	48 83 ec 28          	sub    $0x28,%rsp
    c8d3:	48 8b 7f 60          	mov    0x60(%rdi),%rdi
    c8d7:	64 48 8b 2c 25 28 00 	mov    %fs:0x28,%rbp
    c8de:	00 00 
    c8e0:	48 89 6c 24 18       	mov    %rbp,0x18(%rsp)
    c8e5:	48 89 cd             	mov    %rcx,%rbp
    c8e8:	31 c9                	xor    %ecx,%ecx
    c8ea:	48 89 14 24          	mov    %rdx,(%rsp)
    c8ee:	48 89 54 24 10       	mov    %rdx,0x10(%rsp)
    c8f3:	48 89 7c 24 08       	mov    %rdi,0x8(%rsp)
    c8f8:	48 89 4b 60          	mov    %rcx,0x60(%rbx)
    c8fc:	48 85 ff             	test   %rdi,%rdi
    c8ff:	74 1a                	je     c91b <__Pyx__GetException.constprop.0+0x5d>
    c901:	48 8b 57 08          	mov    0x8(%rdi),%rdx
    c905:	8b 02                	mov    (%rdx),%eax
    c907:	48 89 14 24          	mov    %rdx,(%rsp)
    c90b:	ff c0                	inc    %eax
    c90d:	74 02                	je     c911 <__Pyx__GetException.constprop.0+0x53>
    c90f:	89 02                	mov    %eax,(%rdx)
    c911:	e8 ca 7e ff ff       	call   47e0 <PyException_GetTraceback@plt>
    c916:	48 89 44 24 10       	mov    %rax,0x10(%rsp)
    c91b:	48 8d 54 24 10       	lea    0x10(%rsp),%rdx
    c920:	48 8d 74 24 08       	lea    0x8(%rsp),%rsi
    c925:	48 89 e7             	mov    %rsp,%rdi
    c928:	e8 93 7b ff ff       	call   44c0 <PyErr_NormalizeException@plt>
    c92d:	48 83 7b 60 00       	cmpq   $0x0,0x60(%rbx)
    c932:	75 72                	jne    c9a6 <__Pyx__GetException.constprop.0+0xe8>
    c934:	48 8b 74 24 10       	mov    0x10(%rsp),%rsi
    c939:	48 85 f6             	test   %rsi,%rsi
    c93c:	75 5a                	jne    c998 <__Pyx__GetException.constprop.0+0xda>
    c93e:	48 8b 74 24 10       	mov    0x10(%rsp),%rsi
    c943:	48 89 f7             	mov    %rsi,%rdi
    c946:	e8 4e e8 ff ff       	call   b199 <Py_XINCREF>
    c94b:	48 8b 14 24          	mov    (%rsp),%rdx
    c94f:	48 89 d7             	mov    %rdx,%rdi
    c952:	e8 42 e8 ff ff       	call   b199 <Py_XINCREF>
    c957:	48 8b 4c 24 08       	mov    0x8(%rsp),%rcx
    c95c:	48 89 cf             	mov    %rcx,%rdi
    c95f:	e8 35 e8 ff ff       	call   b199 <Py_XINCREF>
    c964:	48 8b 43 68          	mov    0x68(%rbx),%rax
    c968:	49 89 55 00          	mov    %rdx,0x0(%r13)
    c96c:	48 89 d7             	mov    %rdx,%rdi
    c96f:	49 89 0c 24          	mov    %rcx,(%r12)
    c973:	48 89 75 00          	mov    %rsi,0x0(%rbp)
    c977:	48 8b 18             	mov    (%rax),%rbx
    c97a:	48 89 08             	mov    %rcx,(%rax)
    c97d:	e8 1c ed ff ff       	call   b69e <Py_XDECREF>
    c982:	48 8b 7c 24 10       	mov    0x10(%rsp),%rdi
    c987:	e8 12 ed ff ff       	call   b69e <Py_XDECREF>
    c98c:	48 89 df             	mov    %rbx,%rdi
    c98f:	e8 0a ed ff ff       	call   b69e <Py_XDECREF>
    c994:	31 c0                	xor    %eax,%eax
    c996:	eb 3c                	jmp    c9d4 <__Pyx__GetException.constprop.0+0x116>
    c998:	48 8b 7c 24 08       	mov    0x8(%rsp),%rdi
    c99d:	e8 9e 7c ff ff       	call   4640 <PyException_SetTraceback@plt>
    c9a2:	85 c0                	test   %eax,%eax
    c9a4:	79 98                	jns    c93e <__Pyx__GetException.constprop.0+0x80>
    c9a6:	31 c0                	xor    %eax,%eax
    c9a8:	48 8b 3c 24          	mov    (%rsp),%rdi
    c9ac:	49 89 45 00          	mov    %rax,0x0(%r13)
    c9b0:	49 89 04 24          	mov    %rax,(%r12)
    c9b4:	48 89 45 00          	mov    %rax,0x0(%rbp)
    c9b8:	e8 e1 ec ff ff       	call   b69e <Py_XDECREF>
    c9bd:	48 8b 7c 24 08       	mov    0x8(%rsp),%rdi
    c9c2:	e8 d7 ec ff ff       	call   b69e <Py_XDECREF>
    c9c7:	48 8b 7c 24 10       	mov    0x10(%rsp),%rdi
    c9cc:	e8 cd ec ff ff       	call   b69e <Py_XDECREF>
    c9d1:	83 c8 ff             	or     $0xffffffff,%eax
    c9d4:	48 8b 54 24 18       	mov    0x18(%rsp),%rdx
    c9d9:	64 48 2b 14 25 28 00 	sub    %fs:0x28,%rdx
    c9e0:	00 00 
    c9e2:	74 05                	je     c9e9 <__Pyx__GetException.constprop.0+0x12b>
    c9e4:	e8 47 7b ff ff       	call   4530 <__stack_chk_fail@plt>
    c9e9:	48 83 c4 28          	add    $0x28,%rsp
    c9ed:	5b                   	pop    %rbx
    c9ee:	5d                   	pop    %rbp
    c9ef:	41 5c                	pop    %r12
    c9f1:	41 5d                	pop    %r13
    c9f3:	c3                   	ret

000000000000c9f4 <PyUnicode_DATA>:
    c9f4:	53                   	push   %rbx
    c9f5:	48 8b 47 08          	mov    0x8(%rdi),%rax
    c9f9:	f6 80 ab 00 00 00 10 	testb  $0x10,0xab(%rax)
    ca00:	75 05                	jne    ca07 <PyUnicode_DATA+0x13>
    ca02:	e8 4c f2 ff ff       	call   bc53 <PyUnicode_IS_COMPACT.part.0>
    ca07:	48 89 fb             	mov    %rdi,%rbx
    ca0a:	f6 47 20 20          	testb  $0x20,0x20(%rdi)
    ca0e:	74 15                	je     ca25 <PyUnicode_DATA+0x31>
    ca10:	e8 d5 f1 ff ff       	call   bbea <PyUnicode_IS_ASCII>
    ca15:	89 c2                	mov    %eax,%edx
    ca17:	48 8d 43 38          	lea    0x38(%rbx),%rax
    ca1b:	85 d2                	test   %edx,%edx
    ca1d:	74 2e                	je     ca4d <PyUnicode_DATA+0x59>
    ca1f:	48 8d 43 28          	lea    0x28(%rbx),%rax
    ca23:	eb 28                	jmp    ca4d <PyUnicode_DATA+0x59>
    ca25:	48 8b 47 38          	mov    0x38(%rdi),%rax
    ca29:	48 85 c0             	test   %rax,%rax
    ca2c:	75 1f                	jne    ca4d <PyUnicode_DATA+0x59>
    ca2e:	48 8d 0d db 65 00 00 	lea    0x65db(%rip),%rcx        # 13010 <__PRETTY_FUNCTION__.29>
    ca35:	ba 03 01 00 00       	mov    $0x103,%edx
    ca3a:	48 8d 35 67 58 00 00 	lea    0x5867(%rip),%rsi        # 122a8 <_IO_stdin_used+0x2a8>
    ca41:	48 8d 3d 95 5c 00 00 	lea    0x5c95(%rip),%rdi        # 126dd <_IO_stdin_used+0x6dd>
    ca48:	e8 d3 76 ff ff       	call   4120 <__assert_fail@plt>
    ca4d:	5b                   	pop    %rbx
    ca4e:	c3                   	ret

000000000000ca4f <__Pyx_PyUnicode_Equals.constprop.0>:
    ca4f:	41 57                	push   %r15
    ca51:	41 56                	push   %r14
    ca53:	41 55                	push   %r13
    ca55:	41 54                	push   %r12
    ca57:	55                   	push   %rbp
    ca58:	53                   	push   %rbx
    ca59:	48 83 ec 18          	sub    $0x18,%rsp
    ca5d:	48 39 f7             	cmp    %rsi,%rdi
    ca60:	0f 84 a6 01 00 00    	je     cc0c <__Pyx_PyUnicode_Equals.constprop.0+0x1bd>
    ca66:	48 8b 6f 08          	mov    0x8(%rdi),%rbp
    ca6a:	48 8b 5e 08          	mov    0x8(%rsi),%rbx
    ca6e:	49 89 fc             	mov    %rdi,%r12
    ca71:	49 89 f5             	mov    %rsi,%r13
    ca74:	48 8d 15 e5 a8 00 00 	lea    0xa8e5(%rip),%rdx        # 17360 <PyUnicode_Type@@Base>
    ca7b:	48 39 d5             	cmp    %rdx,%rbp
    ca7e:	0f 94 c0             	sete   %al
    ca81:	48 39 d3             	cmp    %rdx,%rbx
    ca84:	0f 94 c1             	sete   %cl
    ca87:	84 c0                	test   %al,%al
    ca89:	0f 84 20 01 00 00    	je     cbaf <__Pyx_PyUnicode_Equals.constprop.0+0x160>
    ca8f:	84 c9                	test   %cl,%cl
    ca91:	0f 84 18 01 00 00    	je     cbaf <__Pyx_PyUnicode_Equals.constprop.0+0x160>
    ca97:	e8 85 f1 ff ff       	call   bc21 <PyUnicode_GET_LENGTH>
    ca9c:	4c 89 ef             	mov    %r13,%rdi
    ca9f:	49 89 c6             	mov    %rax,%r14
    caa2:	e8 7a f1 ff ff       	call   bc21 <PyUnicode_GET_LENGTH>
    caa7:	49 39 c6             	cmp    %rax,%r14
    caaa:	0f 85 63 01 00 00    	jne    cc13 <__Pyx_PyUnicode_Equals.constprop.0+0x1c4>
    cab0:	49 8b 54 24 18       	mov    0x18(%r12),%rdx
    cab5:	49 8b 45 18          	mov    0x18(%r13),%rax
    cab9:	48 39 c2             	cmp    %rax,%rdx
    cabc:	0f 95 c1             	setne  %cl
    cabf:	48 ff c2             	inc    %rdx
    cac2:	0f 95 c2             	setne  %dl
    cac5:	84 d1                	test   %dl,%cl
    cac7:	74 09                	je     cad2 <__Pyx_PyUnicode_Equals.constprop.0+0x83>
    cac9:	48 ff c0             	inc    %rax
    cacc:	0f 85 41 01 00 00    	jne    cc13 <__Pyx_PyUnicode_Equals.constprop.0+0x1c4>
    cad2:	48 8d 0d c7 64 00 00 	lea    0x64c7(%rip),%rcx        # 12fa0 <__PRETTY_FUNCTION__.25>
    cad9:	ba af 19 00 00       	mov    $0x19af,%edx
    cade:	48 8d 35 7f 55 00 00 	lea    0x557f(%rip),%rsi        # 12064 <_IO_stdin_used+0x64>
    cae5:	48 8d 3d fe 5b 00 00 	lea    0x5bfe(%rip),%rdi        # 126ea <_IO_stdin_used+0x6ea>
    caec:	f6 85 ab 00 00 00 10 	testb  $0x10,0xab(%rbp)
    caf3:	74 2f                	je     cb24 <__Pyx_PyUnicode_Equals.constprop.0+0xd5>
    caf5:	41 8a 6c 24 20       	mov    0x20(%r12),%bpl
    cafa:	40 c0 ed 02          	shr    $0x2,%bpl
    cafe:	83 e5 07             	and    $0x7,%ebp
    cb01:	f6 83 ab 00 00 00 10 	testb  $0x10,0xab(%rbx)
    cb08:	75 1f                	jne    cb29 <__Pyx_PyUnicode_Equals.constprop.0+0xda>
    cb0a:	48 8d 0d 8f 64 00 00 	lea    0x648f(%rip),%rcx        # 12fa0 <__PRETTY_FUNCTION__.25>
    cb11:	ba b0 19 00 00       	mov    $0x19b0,%edx
    cb16:	48 8d 35 47 55 00 00 	lea    0x5547(%rip),%rsi        # 12064 <_IO_stdin_used+0x64>
    cb1d:	48 8d 3d da 5b 00 00 	lea    0x5bda(%rip),%rdi        # 126fe <_IO_stdin_used+0x6fe>
    cb24:	e8 f7 75 ff ff       	call   4120 <__assert_fail@plt>
    cb29:	41 8a 45 20          	mov    0x20(%r13),%al
    cb2d:	31 db                	xor    %ebx,%ebx
    cb2f:	c0 e8 02             	shr    $0x2,%al
    cb32:	83 e0 07             	and    $0x7,%eax
    cb35:	40 38 c5             	cmp    %al,%bpl
    cb38:	0f 85 d7 00 00 00    	jne    cc15 <__Pyx_PyUnicode_Equals.constprop.0+0x1c6>
    cb3e:	4c 89 e7             	mov    %r12,%rdi
    cb41:	44 0f b6 fd          	movzbl %bpl,%r15d
    cb45:	e8 aa fe ff ff       	call   c9f4 <PyUnicode_DATA>
    cb4a:	4c 89 ef             	mov    %r13,%rdi
    cb4d:	49 89 c4             	mov    %rax,%r12
    cb50:	e8 9f fe ff ff       	call   c9f4 <PyUnicode_DATA>
    cb55:	31 d2                	xor    %edx,%edx
    cb57:	44 89 ff             	mov    %r15d,%edi
    cb5a:	4c 89 e6             	mov    %r12,%rsi
    cb5d:	44 89 7c 24 0c       	mov    %r15d,0xc(%rsp)
    cb62:	49 89 c5             	mov    %rax,%r13
    cb65:	e8 d9 f5 ff ff       	call   c143 <PyUnicode_READ>
    cb6a:	8b 7c 24 0c          	mov    0xc(%rsp),%edi
    cb6e:	31 d2                	xor    %edx,%edx
    cb70:	4c 89 ee             	mov    %r13,%rsi
    cb73:	41 89 c7             	mov    %eax,%r15d
    cb76:	e8 c8 f5 ff ff       	call   c143 <PyUnicode_READ>
    cb7b:	41 39 c7             	cmp    %eax,%r15d
    cb7e:	0f 85 91 00 00 00    	jne    cc15 <__Pyx_PyUnicode_Equals.constprop.0+0x1c6>
    cb84:	bb 01 00 00 00       	mov    $0x1,%ebx
    cb89:	49 83 fe 01          	cmp    $0x1,%r14
    cb8d:	0f 84 82 00 00 00    	je     cc15 <__Pyx_PyUnicode_Equals.constprop.0+0x1c6>
    cb93:	40 0f b6 d5          	movzbl %bpl,%edx
    cb97:	4c 89 ee             	mov    %r13,%rsi
    cb9a:	4c 89 e7             	mov    %r12,%rdi
    cb9d:	31 db                	xor    %ebx,%ebx
    cb9f:	49 0f af d6          	imul   %r14,%rdx
    cba3:	e8 88 7a ff ff       	call   4630 <memcmp@plt>
    cba8:	85 c0                	test   %eax,%eax
    cbaa:	0f 94 c3             	sete   %bl
    cbad:	eb 66                	jmp    cc15 <__Pyx_PyUnicode_Equals.constprop.0+0x1c6>
    cbaf:	48 8d 15 6a ae 00 00 	lea    0xae6a(%rip),%rdx        # 17a20 <_Py_NoneStruct@@Base>
    cbb6:	49 39 d4             	cmp    %rdx,%r12
    cbb9:	75 06                	jne    cbc1 <__Pyx_PyUnicode_Equals.constprop.0+0x172>
    cbbb:	31 db                	xor    %ebx,%ebx
    cbbd:	84 c9                	test   %cl,%cl
    cbbf:	75 54                	jne    cc15 <__Pyx_PyUnicode_Equals.constprop.0+0x1c6>
    cbc1:	49 39 d5             	cmp    %rdx,%r13
    cbc4:	75 06                	jne    cbcc <__Pyx_PyUnicode_Equals.constprop.0+0x17d>
    cbc6:	31 db                	xor    %ebx,%ebx
    cbc8:	84 c0                	test   %al,%al
    cbca:	75 49                	jne    cc15 <__Pyx_PyUnicode_Equals.constprop.0+0x1c6>
    cbcc:	ba 02 00 00 00       	mov    $0x2,%edx
    cbd1:	4c 89 ee             	mov    %r13,%rsi
    cbd4:	4c 89 e7             	mov    %r12,%rdi
    cbd7:	83 cb ff             	or     $0xffffffff,%ebx
    cbda:	e8 61 78 ff ff       	call   4440 <PyObject_RichCompare@plt>
    cbdf:	48 89 c5             	mov    %rax,%rbp
    cbe2:	48 85 c0             	test   %rax,%rax
    cbe5:	74 2e                	je     cc15 <__Pyx_PyUnicode_Equals.constprop.0+0x1c6>
    cbe7:	48 89 c7             	mov    %rax,%rdi
    cbea:	e8 5a e9 ff ff       	call   b549 <__Pyx_PyObject_IsTrue>
    cbef:	89 c3                	mov    %eax,%ebx
    cbf1:	48 8b 45 00          	mov    0x0(%rbp),%rax
    cbf5:	85 c0                	test   %eax,%eax
    cbf7:	78 1c                	js     cc15 <__Pyx_PyUnicode_Equals.constprop.0+0x1c6>
    cbf9:	48 ff c8             	dec    %rax
    cbfc:	48 89 45 00          	mov    %rax,0x0(%rbp)
    cc00:	75 13                	jne    cc15 <__Pyx_PyUnicode_Equals.constprop.0+0x1c6>
    cc02:	48 89 ef             	mov    %rbp,%rdi
    cc05:	e8 46 7a ff ff       	call   4650 <_Py_Dealloc@plt>
    cc0a:	eb 09                	jmp    cc15 <__Pyx_PyUnicode_Equals.constprop.0+0x1c6>
    cc0c:	bb 01 00 00 00       	mov    $0x1,%ebx
    cc11:	eb 02                	jmp    cc15 <__Pyx_PyUnicode_Equals.constprop.0+0x1c6>
    cc13:	31 db                	xor    %ebx,%ebx
    cc15:	48 83 c4 18          	add    $0x18,%rsp
    cc19:	89 d8                	mov    %ebx,%eax
    cc1b:	5b                   	pop    %rbx
    cc1c:	5d                   	pop    %rbp
    cc1d:	41 5c                	pop    %r12
    cc1f:	41 5d                	pop    %r13
    cc21:	41 5e                	pop    %r14
    cc23:	41 5f                	pop    %r15
    cc25:	c3                   	ret

000000000000cc26 <__Pyx_CyFunction_CallAsMethod>:
    cc26:	41 57                	push   %r15
    cc28:	41 56                	push   %r14
    cc2a:	41 55                	push   %r13
    cc2c:	49 89 f5             	mov    %rsi,%r13
    cc2f:	41 54                	push   %r12
    cc31:	55                   	push   %rbp
    cc32:	53                   	push   %rbx
    cc33:	48 89 fb             	mov    %rdi,%rbx
    cc36:	48 83 ec 58          	sub    $0x58,%rsp
    cc3a:	48 8b 47 30          	mov    0x30(%rdi),%rax
    cc3e:	64 48 8b 2c 25 28 00 	mov    %fs:0x28,%rbp
    cc45:	00 00 
    cc47:	48 89 6c 24 48       	mov    %rbp,0x48(%rsp)
    cc4c:	48 89 d5             	mov    %rdx,%rbp
    cc4f:	48 89 44 24 08       	mov    %rax,0x8(%rsp)
    cc54:	48 85 c0             	test   %rax,%rax
    cc57:	0f 84 fd 01 00 00    	je     ce5a <__Pyx_CyFunction_CallAsMethod+0x234>
    cc5d:	48 89 f7             	mov    %rsi,%rdi
    cc60:	e8 6c f0 ff ff       	call   bcd1 <PyTuple_GET_SIZE>
    cc65:	48 89 04 24          	mov    %rax,(%rsp)
    cc69:	49 8b 45 08          	mov    0x8(%r13),%rax
    cc6d:	f6 80 ab 00 00 00 04 	testb  $0x4,0xab(%rax)
    cc74:	75 1f                	jne    cc95 <__Pyx_CyFunction_CallAsMethod+0x6f>
    cc76:	48 8d 0d c3 61 00 00 	lea    0x61c3(%rip),%rcx        # 12e40 <__PRETTY_FUNCTION__.11>
    cc7d:	ba 39 23 00 00       	mov    $0x2339,%edx
    cc82:	48 8d 35 db 53 00 00 	lea    0x53db(%rip),%rsi        # 12064 <_IO_stdin_used+0x64>
    cc89:	48 8d 3d 82 5a 00 00 	lea    0x5a82(%rip),%rdi        # 12712 <_IO_stdin_used+0x712>
    cc90:	e8 8b 74 ff ff       	call   4120 <__assert_fail@plt>
    cc95:	49 8d 75 18          	lea    0x18(%r13),%rsi
    cc99:	48 85 ed             	test   %rbp,%rbp
    cc9c:	74 1b                	je     ccb9 <__Pyx_CyFunction_CallAsMethod+0x93>
    cc9e:	48 8b 45 08          	mov    0x8(%rbp),%rax
    cca2:	f6 80 ab 00 00 00 20 	testb  $0x20,0xab(%rax)
    cca9:	75 05                	jne    ccb0 <__Pyx_CyFunction_CallAsMethod+0x8a>
    ccab:	e8 eb f5 ff ff       	call   c29b <PyDict_GET_SIZE.part.0>
    ccb0:	4c 8b 7d 10          	mov    0x10(%rbp),%r15
    ccb4:	4d 85 ff             	test   %r15,%r15
    ccb7:	75 32                	jne    cceb <__Pyx_CyFunction_CallAsMethod+0xc5>
    ccb9:	48 8b 44 24 48       	mov    0x48(%rsp),%rax
    ccbe:	64 48 2b 04 25 28 00 	sub    %fs:0x28,%rax
    ccc5:	00 00 
    ccc7:	0f 85 70 02 00 00    	jne    cf3d <__Pyx_CyFunction_CallAsMethod+0x317>
    cccd:	48 8b 14 24          	mov    (%rsp),%rdx
    ccd1:	48 8b 44 24 08       	mov    0x8(%rsp),%rax
    ccd6:	48 83 c4 58          	add    $0x58,%rsp
    ccda:	48 89 df             	mov    %rbx,%rdi
    ccdd:	31 c9                	xor    %ecx,%ecx
    ccdf:	5b                   	pop    %rbx
    cce0:	5d                   	pop    %rbp
    cce1:	41 5c                	pop    %r12
    cce3:	41 5d                	pop    %r13
    cce5:	41 5e                	pop    %r14
    cce7:	41 5f                	pop    %r15
    cce9:	ff e0                	jmp    *%rax
    cceb:	48 8b 04 24          	mov    (%rsp),%rax
    ccef:	49 8d 3c 07          	lea    (%r15,%rax,1),%rdi
    ccf3:	48 c1 e7 03          	shl    $0x3,%rdi
    ccf7:	e8 84 7a ff ff       	call   4780 <PyMem_Malloc@plt>
    ccfc:	49 89 c4             	mov    %rax,%r12
    ccff:	31 c0                	xor    %eax,%eax
    cd01:	4d 85 e4             	test   %r12,%r12
    cd04:	75 0a                	jne    cd10 <__Pyx_CyFunction_CallAsMethod+0xea>
    cd06:	e8 55 74 ff ff       	call   4160 <PyErr_NoMemory@plt>
    cd0b:	e9 c0 01 00 00       	jmp    ced0 <__Pyx_CyFunction_CallAsMethod+0x2aa>
    cd10:	48 39 04 24          	cmp    %rax,(%rsp)
    cd14:	74 0e                	je     cd24 <__Pyx_CyFunction_CallAsMethod+0xfe>
    cd16:	49 8b 54 c5 18       	mov    0x18(%r13,%rax,8),%rdx
    cd1b:	49 89 14 c4          	mov    %rdx,(%r12,%rax,8)
    cd1f:	48 ff c0             	inc    %rax
    cd22:	eb ec                	jmp    cd10 <__Pyx_CyFunction_CallAsMethod+0xea>
    cd24:	4c 89 ff             	mov    %r15,%rdi
    cd27:	e8 74 79 ff ff       	call   46a0 <PyTuple_New@plt>
    cd2c:	49 89 c5             	mov    %rax,%r13
    cd2f:	48 85 c0             	test   %rax,%rax
    cd32:	75 0d                	jne    cd41 <__Pyx_CyFunction_CallAsMethod+0x11b>
    cd34:	4c 89 e7             	mov    %r12,%rdi
    cd37:	e8 b4 73 ff ff       	call   40f0 <PyMem_Free@plt>
    cd3c:	e9 8f 01 00 00       	jmp    ced0 <__Pyx_CyFunction_CallAsMethod+0x2aa>
    cd41:	48 8b 04 24          	mov    (%rsp),%rax
    cd45:	31 d2                	xor    %edx,%edx
    cd47:	41 be 00 00 00 10    	mov    $0x10000000,%r14d
    cd4d:	48 89 54 24 10       	mov    %rdx,0x10(%rsp)
    cd52:	49 8d 04 c4          	lea    (%r12,%rax,8),%rax
    cd56:	48 89 44 24 18       	mov    %rax,0x18(%rsp)
    cd5b:	31 c0                	xor    %eax,%eax
    cd5d:	48 89 44 24 30       	mov    %rax,0x30(%rsp)
    cd62:	48 8d 44 24 40       	lea    0x40(%rsp),%rax
    cd67:	48 89 44 24 20       	mov    %rax,0x20(%rsp)
    cd6c:	48 8b 4c 24 20       	mov    0x20(%rsp),%rcx
    cd71:	48 8d 54 24 38       	lea    0x38(%rsp),%rdx
    cd76:	48 8d 74 24 30       	lea    0x30(%rsp),%rsi
    cd7b:	48 89 ef             	mov    %rbp,%rdi
    cd7e:	e8 cd 74 ff ff       	call   4250 <PyDict_Next@plt>
    cd83:	85 c0                	test   %eax,%eax
    cd85:	74 51                	je     cdd8 <__Pyx_CyFunction_CallAsMethod+0x1b2>
    cd87:	48 8b 54 24 38       	mov    0x38(%rsp),%rdx
    cd8c:	48 8b 42 08          	mov    0x8(%rdx),%rax
    cd90:	4c 23 b0 a8 00 00 00 	and    0xa8(%rax),%r14
    cd97:	8b 02                	mov    (%rdx),%eax
    cd99:	ff c0                	inc    %eax
    cd9b:	74 02                	je     cd9f <__Pyx_CyFunction_CallAsMethod+0x179>
    cd9d:	89 02                	mov    %eax,(%rdx)
    cd9f:	48 8b 4c 24 40       	mov    0x40(%rsp),%rcx
    cda4:	8b 01                	mov    (%rcx),%eax
    cda6:	ff c0                	inc    %eax
    cda8:	74 02                	je     cdac <__Pyx_CyFunction_CallAsMethod+0x186>
    cdaa:	89 01                	mov    %eax,(%rcx)
    cdac:	48 8b 74 24 10       	mov    0x10(%rsp),%rsi
    cdb1:	4c 89 ef             	mov    %r13,%rdi
    cdb4:	48 89 4c 24 28       	mov    %rcx,0x28(%rsp)
    cdb9:	e8 fd f4 ff ff       	call   c2bb <PyTuple_SET_ITEM>
    cdbe:	48 8b 54 24 10       	mov    0x10(%rsp),%rdx
    cdc3:	48 8b 44 24 18       	mov    0x18(%rsp),%rax
    cdc8:	48 8b 4c 24 28       	mov    0x28(%rsp),%rcx
    cdcd:	48 ff 44 24 10       	incq   0x10(%rsp)
    cdd2:	48 89 0c d0          	mov    %rcx,(%rax,%rdx,8)
    cdd6:	eb 94                	jmp    cd6c <__Pyx_CyFunction_CallAsMethod+0x146>
    cdd8:	4d 85 f6             	test   %r14,%r14
    cddb:	75 17                	jne    cdf4 <__Pyx_CyFunction_CallAsMethod+0x1ce>
    cddd:	48 8b 3d 3c a0 00 00 	mov    0xa03c(%rip),%rdi        # 16e20 <PyExc_TypeError@@Base>
    cde4:	48 8d 35 c2 5a 00 00 	lea    0x5ac2(%rip),%rsi        # 128ad <_IO_stdin_used+0x8ad>
    cdeb:	31 db                	xor    %ebx,%ebx
    cded:	e8 0e 79 ff ff       	call   4700 <PyErr_SetString@plt>
    cdf2:	eb 17                	jmp    ce0b <__Pyx_CyFunction_CallAsMethod+0x1e5>
    cdf4:	48 89 df             	mov    %rbx,%rdi
    cdf7:	48 8b 14 24          	mov    (%rsp),%rdx
    cdfb:	48 8b 44 24 08       	mov    0x8(%rsp),%rax
    ce00:	4c 89 e9             	mov    %r13,%rcx
    ce03:	4c 89 e6             	mov    %r12,%rsi
    ce06:	ff d0                	call   *%rax
    ce08:	48 89 c3             	mov    %rax,%rbx
    ce0b:	49 8b 45 00          	mov    0x0(%r13),%rax
    ce0f:	85 c0                	test   %eax,%eax
    ce11:	78 11                	js     ce24 <__Pyx_CyFunction_CallAsMethod+0x1fe>
    ce13:	48 ff c8             	dec    %rax
    ce16:	49 89 45 00          	mov    %rax,0x0(%r13)
    ce1a:	75 08                	jne    ce24 <__Pyx_CyFunction_CallAsMethod+0x1fe>
    ce1c:	4c 89 ef             	mov    %r13,%rdi
    ce1f:	e8 2c 78 ff ff       	call   4650 <_Py_Dealloc@plt>
    ce24:	31 ed                	xor    %ebp,%ebp
    ce26:	49 39 ef             	cmp    %rbp,%r15
    ce29:	7e 22                	jle    ce4d <__Pyx_CyFunction_CallAsMethod+0x227>
    ce2b:	48 8b 44 24 18       	mov    0x18(%rsp),%rax
    ce30:	48 8b 3c e8          	mov    (%rax,%rbp,8),%rdi
    ce34:	48 8b 07             	mov    (%rdi),%rax
    ce37:	85 c0                	test   %eax,%eax
    ce39:	78 0d                	js     ce48 <__Pyx_CyFunction_CallAsMethod+0x222>
    ce3b:	48 ff c8             	dec    %rax
    ce3e:	48 89 07             	mov    %rax,(%rdi)
    ce41:	75 05                	jne    ce48 <__Pyx_CyFunction_CallAsMethod+0x222>
    ce43:	e8 08 78 ff ff       	call   4650 <_Py_Dealloc@plt>
    ce48:	48 ff c5             	inc    %rbp
    ce4b:	eb d9                	jmp    ce26 <__Pyx_CyFunction_CallAsMethod+0x200>
    ce4d:	4c 89 e7             	mov    %r12,%rdi
    ce50:	e8 9b 72 ff ff       	call   40f0 <PyMem_Free@plt>
    ce55:	e9 d3 00 00 00       	jmp    cf2d <__Pyx_CyFunction_CallAsMethod+0x307>
    ce5a:	8b 87 90 00 00 00    	mov    0x90(%rdi),%eax
    ce60:	83 e0 05             	and    $0x5,%eax
    ce63:	83 f8 04             	cmp    $0x4,%eax
    ce66:	0f 85 94 00 00 00    	jne    cf00 <__Pyx_CyFunction_CallAsMethod+0x2da>
    ce6c:	48 89 f7             	mov    %rsi,%rdi
    ce6f:	e8 5d ee ff ff       	call   bcd1 <PyTuple_GET_SIZE>
    ce74:	be 01 00 00 00       	mov    $0x1,%esi
    ce79:	4c 89 ef             	mov    %r13,%rdi
    ce7c:	48 89 c2             	mov    %rax,%rdx
    ce7f:	e8 8c 74 ff ff       	call   4310 <PyTuple_GetSlice@plt>
    ce84:	49 89 c4             	mov    %rax,%r12
    ce87:	48 85 c0             	test   %rax,%rax
    ce8a:	74 44                	je     ced0 <__Pyx_CyFunction_CallAsMethod+0x2aa>
    ce8c:	31 f6                	xor    %esi,%esi
    ce8e:	4c 89 ef             	mov    %r13,%rdi
    ce91:	e8 4a 78 ff ff       	call   46e0 <PyTuple_GetItem@plt>
    ce96:	48 89 c6             	mov    %rax,%rsi
    ce99:	48 85 c0             	test   %rax,%rax
    ce9c:	75 36                	jne    ced4 <__Pyx_CyFunction_CallAsMethod+0x2ae>
    ce9e:	49 8b 04 24          	mov    (%r12),%rax
    cea2:	85 c0                	test   %eax,%eax
    cea4:	78 11                	js     ceb7 <__Pyx_CyFunction_CallAsMethod+0x291>
    cea6:	48 ff c8             	dec    %rax
    cea9:	49 89 04 24          	mov    %rax,(%r12)
    cead:	75 08                	jne    ceb7 <__Pyx_CyFunction_CallAsMethod+0x291>
    ceaf:	4c 89 e7             	mov    %r12,%rdi
    ceb2:	e8 99 77 ff ff       	call   4650 <_Py_Dealloc@plt>
    ceb7:	48 8b 53 50          	mov    0x50(%rbx),%rdx
    cebb:	48 8b 3d 5e 9f 00 00 	mov    0x9f5e(%rip),%rdi        # 16e20 <PyExc_TypeError@@Base>
    cec2:	48 8d 35 5d 58 00 00 	lea    0x585d(%rip),%rsi        # 12726 <_IO_stdin_used+0x726>
    cec9:	31 c0                	xor    %eax,%eax
    cecb:	e8 c0 73 ff ff       	call   4290 <PyErr_Format@plt>
    ced0:	31 db                	xor    %ebx,%ebx
    ced2:	eb 59                	jmp    cf2d <__Pyx_CyFunction_CallAsMethod+0x307>
    ced4:	48 89 df             	mov    %rbx,%rdi
    ced7:	48 89 e9             	mov    %rbp,%rcx
    ceda:	4c 89 e2             	mov    %r12,%rdx
    cedd:	e8 f9 f0 ff ff       	call   bfdb <__Pyx_CyFunction_CallMethod>
    cee2:	48 89 c3             	mov    %rax,%rbx
    cee5:	49 8b 04 24          	mov    (%r12),%rax
    cee9:	85 c0                	test   %eax,%eax
    ceeb:	78 40                	js     cf2d <__Pyx_CyFunction_CallAsMethod+0x307>
    ceed:	48 ff c8             	dec    %rax
    cef0:	49 89 04 24          	mov    %rax,(%r12)
    cef4:	75 37                	jne    cf2d <__Pyx_CyFunction_CallAsMethod+0x307>
    cef6:	4c 89 e7             	mov    %r12,%rdi
    cef9:	e8 52 77 ff ff       	call   4650 <_Py_Dealloc@plt>
    cefe:	eb 2d                	jmp    cf2d <__Pyx_CyFunction_CallAsMethod+0x307>
    cf00:	48 8b 44 24 48       	mov    0x48(%rsp),%rax
    cf05:	64 48 2b 04 25 28 00 	sub    %fs:0x28,%rax
    cf0c:	00 00 
    cf0e:	75 2d                	jne    cf3d <__Pyx_CyFunction_CallAsMethod+0x317>
    cf10:	48 8b 77 18          	mov    0x18(%rdi),%rsi
    cf14:	48 83 c4 58          	add    $0x58,%rsp
    cf18:	48 89 e9             	mov    %rbp,%rcx
    cf1b:	4c 89 ea             	mov    %r13,%rdx
    cf1e:	5b                   	pop    %rbx
    cf1f:	5d                   	pop    %rbp
    cf20:	41 5c                	pop    %r12
    cf22:	41 5d                	pop    %r13
    cf24:	41 5e                	pop    %r14
    cf26:	41 5f                	pop    %r15
    cf28:	e9 ae f0 ff ff       	jmp    bfdb <__Pyx_CyFunction_CallMethod>
    cf2d:	48 8b 44 24 48       	mov    0x48(%rsp),%rax
    cf32:	64 48 2b 04 25 28 00 	sub    %fs:0x28,%rax
    cf39:	00 00 
    cf3b:	74 05                	je     cf42 <__Pyx_CyFunction_CallAsMethod+0x31c>
    cf3d:	e8 ee 75 ff ff       	call   4530 <__stack_chk_fail@plt>
    cf42:	48 83 c4 58          	add    $0x58,%rsp
    cf46:	48 89 d8             	mov    %rbx,%rax
    cf49:	5b                   	pop    %rbx
    cf4a:	5d                   	pop    %rbp
    cf4b:	41 5c                	pop    %r12
    cf4d:	41 5d                	pop    %r13
    cf4f:	41 5e                	pop    %r14
    cf51:	41 5f                	pop    %r15
    cf53:	c3                   	ret

000000000000cf54 <__Pyx_PyErr_GivenExceptionMatches>:
    cf54:	b8 01 00 00 00       	mov    $0x1,%eax
    cf59:	48 39 f7             	cmp    %rsi,%rdi
    cf5c:	0f 84 ce 00 00 00    	je     d030 <__Pyx_PyErr_GivenExceptionMatches+0xdc>
    cf62:	41 55                	push   %r13
    cf64:	41 54                	push   %r12
    cf66:	55                   	push   %rbp
    cf67:	48 89 fd             	mov    %rdi,%rbp
    cf6a:	53                   	push   %rbx
    cf6b:	48 89 f3             	mov    %rsi,%rbx
    cf6e:	41 51                	push   %r9
    cf70:	48 8b 47 08          	mov    0x8(%rdi),%rax
    cf74:	f6 80 ab 00 00 00 80 	testb  $0x80,0xab(%rax)
    cf7b:	0f 84 90 00 00 00    	je     d011 <__Pyx_PyErr_GivenExceptionMatches+0xbd>
    cf81:	f6 87 ab 00 00 00 40 	testb  $0x40,0xab(%rdi)
    cf88:	0f 84 83 00 00 00    	je     d011 <__Pyx_PyErr_GivenExceptionMatches+0xbd>
    cf8e:	48 8b 46 08          	mov    0x8(%rsi),%rax
    cf92:	48 8b 80 a8 00 00 00 	mov    0xa8(%rax),%rax
    cf99:	0f ba e0 1f          	bt     $0x1f,%eax
    cf9d:	73 16                	jae    cfb5 <__Pyx_PyErr_GivenExceptionMatches+0x61>
    cf9f:	f6 86 ab 00 00 00 40 	testb  $0x40,0xab(%rsi)
    cfa6:	74 0d                	je     cfb5 <__Pyx_PyErr_GivenExceptionMatches+0x61>
    cfa8:	41 58                	pop    %r8
    cfaa:	5b                   	pop    %rbx
    cfab:	5d                   	pop    %rbp
    cfac:	41 5c                	pop    %r12
    cfae:	41 5d                	pop    %r13
    cfb0:	e9 4e ed ff ff       	jmp    bd03 <__Pyx_IsSubtype>
    cfb5:	0f ba e0 1a          	bt     $0x1a,%eax
    cfb9:	73 56                	jae    d011 <__Pyx_PyErr_GivenExceptionMatches+0xbd>
    cfbb:	48 89 df             	mov    %rbx,%rdi
    cfbe:	e8 0e ed ff ff       	call   bcd1 <PyTuple_GET_SIZE>
    cfc3:	49 89 c5             	mov    %rax,%r13
    cfc6:	31 c0                	xor    %eax,%eax
    cfc8:	49 39 c5             	cmp    %rax,%r13
    cfcb:	7e 0c                	jle    cfd9 <__Pyx_PyErr_GivenExceptionMatches+0x85>
    cfcd:	48 3b 6c c3 18       	cmp    0x18(%rbx,%rax,8),%rbp
    cfd2:	74 4f                	je     d023 <__Pyx_PyErr_GivenExceptionMatches+0xcf>
    cfd4:	48 ff c0             	inc    %rax
    cfd7:	eb ef                	jmp    cfc8 <__Pyx_PyErr_GivenExceptionMatches+0x74>
    cfd9:	45 31 e4             	xor    %r12d,%r12d
    cfdc:	4d 39 e5             	cmp    %r12,%r13
    cfdf:	7e 2c                	jle    d00d <__Pyx_PyErr_GivenExceptionMatches+0xb9>
    cfe1:	4a 8b 74 e3 18       	mov    0x18(%rbx,%r12,8),%rsi
    cfe6:	48 8b 46 08          	mov    0x8(%rsi),%rax
    cfea:	f6 80 ab 00 00 00 80 	testb  $0x80,0xab(%rax)
    cff1:	74 15                	je     d008 <__Pyx_PyErr_GivenExceptionMatches+0xb4>
    cff3:	f6 86 ab 00 00 00 40 	testb  $0x40,0xab(%rsi)
    cffa:	74 0c                	je     d008 <__Pyx_PyErr_GivenExceptionMatches+0xb4>
    cffc:	48 89 ef             	mov    %rbp,%rdi
    cfff:	e8 ff ec ff ff       	call   bd03 <__Pyx_IsSubtype>
    d004:	85 c0                	test   %eax,%eax
    d006:	75 20                	jne    d028 <__Pyx_PyErr_GivenExceptionMatches+0xd4>
    d008:	49 ff c4             	inc    %r12
    d00b:	eb cf                	jmp    cfdc <__Pyx_PyErr_GivenExceptionMatches+0x88>
    d00d:	31 c0                	xor    %eax,%eax
    d00f:	eb 17                	jmp    d028 <__Pyx_PyErr_GivenExceptionMatches+0xd4>
    d011:	59                   	pop    %rcx
    d012:	48 89 de             	mov    %rbx,%rsi
    d015:	48 89 ef             	mov    %rbp,%rdi
    d018:	5b                   	pop    %rbx
    d019:	5d                   	pop    %rbp
    d01a:	41 5c                	pop    %r12
    d01c:	41 5d                	pop    %r13
    d01e:	e9 bd 71 ff ff       	jmp    41e0 <PyErr_GivenExceptionMatches@plt>
    d023:	b8 01 00 00 00       	mov    $0x1,%eax
    d028:	5a                   	pop    %rdx
    d029:	5b                   	pop    %rbx
    d02a:	5d                   	pop    %rbp
    d02b:	41 5c                	pop    %r12
    d02d:	41 5d                	pop    %r13
    d02f:	c3                   	ret
    d030:	c3                   	ret

000000000000d031 <__Pyx_PyObject_GetAttrStrNoError>:
    d031:	48 8b 47 08          	mov    0x8(%rdi),%rax
    d035:	48 8b 15 84 8f 00 00 	mov    0x8f84(%rip),%rdx        # 15fc0 <PyObject_GenericGetAttr@Base>
    d03c:	48 39 90 90 00 00 00 	cmp    %rdx,0x90(%rax)
    d043:	75 0c                	jne    d051 <__Pyx_PyObject_GetAttrStrNoError+0x20>
    d045:	b9 01 00 00 00       	mov    $0x1,%ecx
    d04a:	31 d2                	xor    %edx,%edx
    d04c:	e9 5f 70 ff ff       	jmp    40b0 <_PyObject_GenericGetAttrWithDict@plt>
    d051:	41 57                	push   %r15
    d053:	41 56                	push   %r14
    d055:	41 55                	push   %r13
    d057:	41 54                	push   %r12
    d059:	55                   	push   %rbp
    d05a:	53                   	push   %rbx
    d05b:	51                   	push   %rcx
    d05c:	e8 1b e5 ff ff       	call   b57c <__Pyx_PyObject_GetAttrStr>
    d061:	48 89 c5             	mov    %rax,%rbp
    d064:	48 85 c0             	test   %rax,%rax
    d067:	0f 85 c4 00 00 00    	jne    d131 <__Pyx_PyObject_GetAttrStrNoError+0x100>
    d06d:	e8 be 76 ff ff       	call   4730 <_PyThreadState_UncheckedGet@plt>
    d072:	48 8b 1d bf a9 00 00 	mov    0xa9bf(%rip),%rbx        # 17a38 <PyExc_AttributeError@@Base>
    d079:	49 89 c5             	mov    %rax,%r13
    d07c:	48 8b 40 60          	mov    0x60(%rax),%rax
    d080:	48 85 c0             	test   %rax,%rax
    d083:	0f 84 a8 00 00 00    	je     d131 <__Pyx_PyObject_GetAttrStrNoError+0x100>
    d089:	4c 8b 60 08          	mov    0x8(%rax),%r12
    d08d:	4c 39 e3             	cmp    %r12,%rbx
    d090:	75 13                	jne    d0a5 <__Pyx_PyObject_GetAttrStrNoError+0x74>
    d092:	31 c9                	xor    %ecx,%ecx
    d094:	31 d2                	xor    %edx,%edx
    d096:	31 f6                	xor    %esi,%esi
    d098:	4c 89 ef             	mov    %r13,%rdi
    d09b:	e8 c4 f5 ff ff       	call   c664 <__Pyx_ErrRestoreInState>
    d0a0:	e9 8c 00 00 00       	jmp    d131 <__Pyx_PyObject_GetAttrStrNoError+0x100>
    d0a5:	48 8b 43 08          	mov    0x8(%rbx),%rax
    d0a9:	f6 80 ab 00 00 00 04 	testb  $0x4,0xab(%rax)
    d0b0:	74 6c                	je     d11e <__Pyx_PyObject_GetAttrStrNoError+0xed>
    d0b2:	48 89 df             	mov    %rbx,%rdi
    d0b5:	e8 17 ec ff ff       	call   bcd1 <PyTuple_GET_SIZE>
    d0ba:	49 89 c7             	mov    %rax,%r15
    d0bd:	31 c0                	xor    %eax,%eax
    d0bf:	49 39 c7             	cmp    %rax,%r15
    d0c2:	7e 0c                	jle    d0d0 <__Pyx_PyObject_GetAttrStrNoError+0x9f>
    d0c4:	4c 3b 64 c3 18       	cmp    0x18(%rbx,%rax,8),%r12
    d0c9:	74 c7                	je     d092 <__Pyx_PyObject_GetAttrStrNoError+0x61>
    d0cb:	48 ff c0             	inc    %rax
    d0ce:	eb ef                	jmp    d0bf <__Pyx_PyObject_GetAttrStrNoError+0x8e>
    d0d0:	45 31 f6             	xor    %r14d,%r14d
    d0d3:	4d 39 f7             	cmp    %r14,%r15
    d0d6:	7e 59                	jle    d131 <__Pyx_PyObject_GetAttrStrNoError+0x100>
    d0d8:	48 8b 43 08          	mov    0x8(%rbx),%rax
    d0dc:	f6 80 ab 00 00 00 04 	testb  $0x4,0xab(%rax)
    d0e3:	75 1f                	jne    d104 <__Pyx_PyObject_GetAttrStrNoError+0xd3>
    d0e5:	48 8d 0d f4 5c 00 00 	lea    0x5cf4(%rip),%rcx        # 12de0 <__PRETTY_FUNCTION__.8>
    d0ec:	ba 8f 18 00 00       	mov    $0x188f,%edx
    d0f1:	48 8d 35 6c 4f 00 00 	lea    0x4f6c(%rip),%rsi        # 12064 <_IO_stdin_used+0x64>
    d0f8:	48 8d 3d 51 56 00 00 	lea    0x5651(%rip),%rdi        # 12750 <_IO_stdin_used+0x750>
    d0ff:	e8 1c 70 ff ff       	call   4120 <__assert_fail@plt>
    d104:	4a 8b 74 f3 18       	mov    0x18(%rbx,%r14,8),%rsi
    d109:	4c 89 e7             	mov    %r12,%rdi
    d10c:	e8 43 fe ff ff       	call   cf54 <__Pyx_PyErr_GivenExceptionMatches>
    d111:	85 c0                	test   %eax,%eax
    d113:	0f 85 79 ff ff ff    	jne    d092 <__Pyx_PyObject_GetAttrStrNoError+0x61>
    d119:	49 ff c6             	inc    %r14
    d11c:	eb b5                	jmp    d0d3 <__Pyx_PyObject_GetAttrStrNoError+0xa2>
    d11e:	48 89 de             	mov    %rbx,%rsi
    d121:	4c 89 e7             	mov    %r12,%rdi
    d124:	e8 2b fe ff ff       	call   cf54 <__Pyx_PyErr_GivenExceptionMatches>
    d129:	85 c0                	test   %eax,%eax
    d12b:	0f 85 61 ff ff ff    	jne    d092 <__Pyx_PyObject_GetAttrStrNoError+0x61>
    d131:	5a                   	pop    %rdx
    d132:	48 89 e8             	mov    %rbp,%rax
    d135:	5b                   	pop    %rbx
    d136:	5d                   	pop    %rbp
    d137:	41 5c                	pop    %r12
    d139:	41 5d                	pop    %r13
    d13b:	41 5e                	pop    %r14
    d13d:	41 5f                	pop    %r15
    d13f:	c3                   	ret

000000000000d140 <__Pyx_GetBuiltinName>:
    d140:	55                   	push   %rbp
    d141:	48 89 fe             	mov    %rdi,%rsi
    d144:	48 89 fd             	mov    %rdi,%rbp
    d147:	53                   	push   %rbx
    d148:	51                   	push   %rcx
    d149:	48 8b 3d 18 ab 00 00 	mov    0xab18(%rip),%rdi        # 17c68 <__pyx_mstate_global_static+0x8>
    d150:	e8 dc fe ff ff       	call   d031 <__Pyx_PyObject_GetAttrStrNoError>
    d155:	48 89 c3             	mov    %rax,%rbx
    d158:	48 85 c0             	test   %rax,%rax
    d15b:	75 20                	jne    d17d <__Pyx_GetBuiltinName+0x3d>
    d15d:	e8 8e 71 ff ff       	call   42f0 <PyErr_Occurred@plt>
    d162:	48 85 c0             	test   %rax,%rax
    d165:	75 16                	jne    d17d <__Pyx_GetBuiltinName+0x3d>
    d167:	48 8b 3d d2 a8 00 00 	mov    0xa8d2(%rip),%rdi        # 17a40 <PyExc_NameError@@Base>
    d16e:	48 89 ea             	mov    %rbp,%rdx
    d171:	48 8d 35 ed 55 00 00 	lea    0x55ed(%rip),%rsi        # 12765 <_IO_stdin_used+0x765>
    d178:	e8 13 71 ff ff       	call   4290 <PyErr_Format@plt>
    d17d:	48 89 d8             	mov    %rbx,%rax
    d180:	5a                   	pop    %rdx
    d181:	5b                   	pop    %rbx
    d182:	5d                   	pop    %rbp
    d183:	c3                   	ret

000000000000d184 <__Pyx__GetModuleGlobalName>:
    d184:	55                   	push   %rbp
    d185:	48 89 fd             	mov    %rdi,%rbp
    d188:	53                   	push   %rbx
    d189:	56                   	push   %rsi
    d18a:	48 89 fe             	mov    %rdi,%rsi
    d18d:	48 8b 57 18          	mov    0x18(%rdi),%rdx
    d191:	48 8b 3d c8 aa 00 00 	mov    0xaac8(%rip),%rdi        # 17c60 <__pyx_mstate_global_static>
    d198:	e8 43 74 ff ff       	call   45e0 <_PyDict_GetItem_KnownHash@plt>
    d19d:	48 89 c3             	mov    %rax,%rbx
    d1a0:	48 85 c0             	test   %rax,%rax
    d1a3:	74 0a                	je     d1af <__Pyx__GetModuleGlobalName+0x2b>
    d1a5:	8b 00                	mov    (%rax),%eax
    d1a7:	ff c0                	inc    %eax
    d1a9:	74 19                	je     d1c4 <__Pyx__GetModuleGlobalName+0x40>
    d1ab:	89 03                	mov    %eax,(%rbx)
    d1ad:	eb 15                	jmp    d1c4 <__Pyx__GetModuleGlobalName+0x40>
    d1af:	e8 3c 71 ff ff       	call   42f0 <PyErr_Occurred@plt>
    d1b4:	48 85 c0             	test   %rax,%rax
    d1b7:	75 0b                	jne    d1c4 <__Pyx__GetModuleGlobalName+0x40>
    d1b9:	59                   	pop    %rcx
    d1ba:	48 89 ef             	mov    %rbp,%rdi
    d1bd:	5b                   	pop    %rbx
    d1be:	5d                   	pop    %rbp
    d1bf:	e9 7c ff ff ff       	jmp    d140 <__Pyx_GetBuiltinName>
    d1c4:	48 89 d8             	mov    %rbx,%rax
    d1c7:	5a                   	pop    %rdx
    d1c8:	5b                   	pop    %rbx
    d1c9:	5d                   	pop    %rbp
    d1ca:	c3                   	ret

000000000000d1cb <__Pyx_IsAnySubtype2.constprop.0>:
    d1cb:	48 39 f7             	cmp    %rsi,%rdi
    d1ce:	0f 84 c1 00 00 00    	je     d295 <__Pyx_IsAnySubtype2.constprop.0+0xca>
    d1d4:	41 54                	push   %r12
    d1d6:	55                   	push   %rbp
    d1d7:	48 8d 2d 82 a8 00 00 	lea    0xa882(%rip),%rbp        # 17a60 <PyCFunction_Type@@Base>
    d1de:	53                   	push   %rbx
    d1df:	48 39 ef             	cmp    %rbp,%rdi
    d1e2:	0f 84 a3 00 00 00    	je     d28b <__Pyx_IsAnySubtype2.constprop.0+0xc0>
    d1e8:	4c 8b a7 58 01 00 00 	mov    0x158(%rdi),%r12
    d1ef:	48 89 f3             	mov    %rsi,%rbx
    d1f2:	4d 85 e4             	test   %r12,%r12
    d1f5:	74 54                	je     d24b <__Pyx_IsAnySubtype2.constprop.0+0x80>
    d1f7:	4c 89 e7             	mov    %r12,%rdi
    d1fa:	e8 d2 ea ff ff       	call   bcd1 <PyTuple_GET_SIZE>
    d1ff:	31 d2                	xor    %edx,%edx
    d201:	48 39 d0             	cmp    %rdx,%rax
    d204:	7e 41                	jle    d247 <__Pyx_IsAnySubtype2.constprop.0+0x7c>
    d206:	49 8b 4c 24 08       	mov    0x8(%r12),%rcx
    d20b:	f6 81 ab 00 00 00 04 	testb  $0x4,0xab(%rcx)
    d212:	75 1f                	jne    d233 <__Pyx_IsAnySubtype2.constprop.0+0x68>
    d214:	48 8d 0d d5 5c 00 00 	lea    0x5cd5(%rip),%rcx        # 12ef0 <__PRETTY_FUNCTION__.19>
    d21b:	ba b7 1b 00 00       	mov    $0x1bb7,%edx
    d220:	48 8d 35 3d 4e 00 00 	lea    0x4e3d(%rip),%rsi        # 12064 <_IO_stdin_used+0x64>
    d227:	48 8d 3d 57 51 00 00 	lea    0x5157(%rip),%rdi        # 12385 <_IO_stdin_used+0x385>
    d22e:	e8 ed 6e ff ff       	call   4120 <__assert_fail@plt>
    d233:	49 8b 4c d4 18       	mov    0x18(%r12,%rdx,8),%rcx
    d238:	48 39 cb             	cmp    %rcx,%rbx
    d23b:	74 4e                	je     d28b <__Pyx_IsAnySubtype2.constprop.0+0xc0>
    d23d:	48 39 e9             	cmp    %rbp,%rcx
    d240:	74 49                	je     d28b <__Pyx_IsAnySubtype2.constprop.0+0xc0>
    d242:	48 ff c2             	inc    %rdx
    d245:	eb ba                	jmp    d201 <__Pyx_IsAnySubtype2.constprop.0+0x36>
    d247:	31 c0                	xor    %eax,%eax
    d249:	eb 45                	jmp    d290 <__Pyx_IsAnySubtype2.constprop.0+0xc5>
    d24b:	48 89 f8             	mov    %rdi,%rax
    d24e:	48 8b 80 00 01 00 00 	mov    0x100(%rax),%rax
    d255:	48 39 c3             	cmp    %rax,%rbx
    d258:	74 31                	je     d28b <__Pyx_IsAnySubtype2.constprop.0+0xc0>
    d25a:	48 85 c0             	test   %rax,%rax
    d25d:	75 ef                	jne    d24e <__Pyx_IsAnySubtype2.constprop.0+0x83>
    d25f:	48 8d 15 9a 9d 00 00 	lea    0x9d9a(%rip),%rdx        # 17000 <PyBaseObject_Type@@Base>
    d266:	b8 01 00 00 00       	mov    $0x1,%eax
    d26b:	48 39 d3             	cmp    %rdx,%rbx
    d26e:	74 20                	je     d290 <__Pyx_IsAnySubtype2.constprop.0+0xc5>
    d270:	48 8b bf 00 01 00 00 	mov    0x100(%rdi),%rdi
    d277:	48 39 ef             	cmp    %rbp,%rdi
    d27a:	74 0f                	je     d28b <__Pyx_IsAnySubtype2.constprop.0+0xc0>
    d27c:	48 85 ff             	test   %rdi,%rdi
    d27f:	75 ef                	jne    d270 <__Pyx_IsAnySubtype2.constprop.0+0xa5>
    d281:	31 c0                	xor    %eax,%eax
    d283:	48 39 d5             	cmp    %rdx,%rbp
    d286:	0f 94 c0             	sete   %al
    d289:	eb 05                	jmp    d290 <__Pyx_IsAnySubtype2.constprop.0+0xc5>
    d28b:	b8 01 00 00 00       	mov    $0x1,%eax
    d290:	5b                   	pop    %rbx
    d291:	5d                   	pop    %rbp
    d292:	41 5c                	pop    %r12
    d294:	c3                   	ret
    d295:	b8 01 00 00 00       	mov    $0x1,%eax
    d29a:	c3                   	ret

000000000000d29b <__Pyx_PyObject_FastCallDict.constprop.0>:
    d29b:	48 0f ba f2 3f       	btr    $0x3f,%rdx
    d2a0:	41 54                	push   %r12
    d2a2:	49 89 f4             	mov    %rsi,%r12
    d2a5:	55                   	push   %rbp
    d2a6:	48 89 d5             	mov    %rdx,%rbp
    d2a9:	53                   	push   %rbx
    d2aa:	48 89 fb             	mov    %rdi,%rbx
    d2ad:	48 85 d2             	test   %rdx,%rdx
    d2b0:	75 22                	jne    d2d4 <__Pyx_PyObject_FastCallDict.constprop.0+0x39>
    d2b2:	48 8b 7f 08          	mov    0x8(%rdi),%rdi
    d2b6:	48 8b 35 d3 a9 00 00 	mov    0xa9d3(%rip),%rsi        # 17c90 <__pyx_mstate_global_static+0x30>
    d2bd:	e8 09 ff ff ff       	call   d1cb <__Pyx_IsAnySubtype2.constprop.0>
    d2c2:	85 c0                	test   %eax,%eax
    d2c4:	74 42                	je     d308 <__Pyx_PyObject_FastCallDict.constprop.0+0x6d>
    d2c6:	48 8b 43 10          	mov    0x10(%rbx),%rax
    d2ca:	31 f6                	xor    %esi,%esi
    d2cc:	f6 40 10 04          	testb  $0x4,0x10(%rax)
    d2d0:	75 2a                	jne    d2fc <__Pyx_PyObject_FastCallDict.constprop.0+0x61>
    d2d2:	eb 34                	jmp    d308 <__Pyx_PyObject_FastCallDict.constprop.0+0x6d>
    d2d4:	48 83 fa 01          	cmp    $0x1,%rdx
    d2d8:	75 2e                	jne    d308 <__Pyx_PyObject_FastCallDict.constprop.0+0x6d>
    d2da:	48 8b 7f 08          	mov    0x8(%rdi),%rdi
    d2de:	48 8b 35 ab a9 00 00 	mov    0xa9ab(%rip),%rsi        # 17c90 <__pyx_mstate_global_static+0x30>
    d2e5:	e8 e1 fe ff ff       	call   d1cb <__Pyx_IsAnySubtype2.constprop.0>
    d2ea:	85 c0                	test   %eax,%eax
    d2ec:	74 1a                	je     d308 <__Pyx_PyObject_FastCallDict.constprop.0+0x6d>
    d2ee:	48 8b 43 10          	mov    0x10(%rbx),%rax
    d2f2:	f6 40 10 08          	testb  $0x8,0x10(%rax)
    d2f6:	74 10                	je     d308 <__Pyx_PyObject_FastCallDict.constprop.0+0x6d>
    d2f8:	49 8b 34 24          	mov    (%r12),%rsi
    d2fc:	48 89 df             	mov    %rbx,%rdi
    d2ff:	5b                   	pop    %rbx
    d300:	5d                   	pop    %rbp
    d301:	41 5c                	pop    %r12
    d303:	e9 c7 e1 ff ff       	jmp    b4cf <__Pyx_PyObject_CallMethO>
    d308:	48 89 df             	mov    %rbx,%rdi
    d30b:	e8 80 72 ff ff       	call   4590 <PyVectorcall_Function@plt>
    d310:	48 85 c0             	test   %rax,%rax
    d313:	74 11                	je     d326 <__Pyx_PyObject_FastCallDict.constprop.0+0x8b>
    d315:	48 89 ea             	mov    %rbp,%rdx
    d318:	4c 89 e6             	mov    %r12,%rsi
    d31b:	48 89 df             	mov    %rbx,%rdi
    d31e:	31 c9                	xor    %ecx,%ecx
    d320:	5b                   	pop    %rbx
    d321:	5d                   	pop    %rbp
    d322:	41 5c                	pop    %r12
    d324:	ff e0                	jmp    *%rax
    d326:	48 85 ed             	test   %rbp,%rbp
    d329:	75 15                	jne    d340 <__Pyx_PyObject_FastCallDict.constprop.0+0xa5>
    d32b:	48 8b 35 46 a9 00 00 	mov    0xa946(%rip),%rsi        # 17c78 <__pyx_mstate_global_static+0x18>
    d332:	48 89 df             	mov    %rbx,%rdi
    d335:	31 d2                	xor    %edx,%edx
    d337:	5b                   	pop    %rbx
    d338:	5d                   	pop    %rbp
    d339:	41 5c                	pop    %r12
    d33b:	e9 08 e1 ff ff       	jmp    b448 <__Pyx_PyObject_Call>
    d340:	48 89 ea             	mov    %rbp,%rdx
    d343:	4c 89 e6             	mov    %r12,%rsi
    d346:	48 89 df             	mov    %rbx,%rdi
    d349:	31 c9                	xor    %ecx,%ecx
    d34b:	5b                   	pop    %rbx
    d34c:	5d                   	pop    %rbp
    d34d:	41 5c                	pop    %r12
    d34f:	e9 dc 6d ff ff       	jmp    4130 <PyObject_VectorcallDict@plt>

000000000000d354 <__Pyx_PyObject_CallOneArg>:
    d354:	48 ba 01 00 00 00 00 	movabs $0x8000000000000001,%rdx
    d35b:	00 00 80 
    d35e:	48 83 ec 28          	sub    $0x28,%rsp
    d362:	64 48 8b 04 25 28 00 	mov    %fs:0x28,%rax
    d369:	00 00 
    d36b:	48 89 44 24 18       	mov    %rax,0x18(%rsp)
    d370:	31 c0                	xor    %eax,%eax
    d372:	31 c0                	xor    %eax,%eax
    d374:	48 89 74 24 10       	mov    %rsi,0x10(%rsp)
    d379:	48 8d 74 24 10       	lea    0x10(%rsp),%rsi
    d37e:	48 89 44 24 08       	mov    %rax,0x8(%rsp)
    d383:	e8 13 ff ff ff       	call   d29b <__Pyx_PyObject_FastCallDict.constprop.0>
    d388:	48 8b 54 24 18       	mov    0x18(%rsp),%rdx
    d38d:	64 48 2b 14 25 28 00 	sub    %fs:0x28,%rdx
    d394:	00 00 
    d396:	74 05                	je     d39d <__Pyx_PyObject_CallOneArg+0x49>
    d398:	e8 93 71 ff ff       	call   4530 <__stack_chk_fail@plt>
    d39d:	48 83 c4 28          	add    $0x28,%rsp
    d3a1:	c3                   	ret

000000000000d3a2 <__Pyx_AddTraceback>:
    d3a2:	41 57                	push   %r15
    d3a4:	41 56                	push   %r14
    d3a6:	41 55                	push   %r13
    d3a8:	41 89 f5             	mov    %esi,%r13d
    d3ab:	41 54                	push   %r12
    d3ad:	55                   	push   %rbp
    d3ae:	48 89 fd             	mov    %rdi,%rbp
    d3b1:	53                   	push   %rbx
    d3b2:	48 83 ec 28          	sub    $0x28,%rsp
    d3b6:	89 54 24 0c          	mov    %edx,0xc(%rsp)
    d3ba:	48 89 4c 24 10       	mov    %rcx,0x10(%rsp)
    d3bf:	e8 6c 73 ff ff       	call   4730 <_PyThreadState_UncheckedGet@plt>
    d3c4:	48 8b 15 a5 a8 00 00 	mov    0xa8a5(%rip),%rdx        # 17c70 <__pyx_mstate_global_static+0x10>
    d3cb:	48 89 c3             	mov    %rax,%rbx
    d3ce:	48 85 d2             	test   %rdx,%rdx
    d3d1:	0f 84 11 01 00 00    	je     d4e8 <__Pyx_AddTraceback+0x146>
    d3d7:	4c 8b 70 60          	mov    0x60(%rax),%r14
    d3db:	31 f6                	xor    %esi,%esi
    d3dd:	48 89 70 60          	mov    %rsi,0x60(%rax)
    d3e1:	4d 85 f6             	test   %r14,%r14
    d3e4:	74 22                	je     d408 <__Pyx_AddTraceback+0x66>
    d3e6:	4d 8b 66 08          	mov    0x8(%r14),%r12
    d3ea:	41 8b 04 24          	mov    (%r12),%eax
    d3ee:	ff c0                	inc    %eax
    d3f0:	74 04                	je     d3f6 <__Pyx_AddTraceback+0x54>
    d3f2:	41 89 04 24          	mov    %eax,(%r12)
    d3f6:	49 8b 46 28          	mov    0x28(%r14),%rax
    d3fa:	48 89 c7             	mov    %rax,%rdi
    d3fd:	48 89 04 24          	mov    %rax,(%rsp)
    d401:	e8 93 dd ff ff       	call   b199 <Py_XINCREF>
    d406:	eb 09                	jmp    d411 <__Pyx_AddTraceback+0x6f>
    d408:	31 c9                	xor    %ecx,%ecx
    d40a:	45 31 e4             	xor    %r12d,%r12d
    d40d:	48 89 0c 24          	mov    %rcx,(%rsp)
    d411:	48 89 d7             	mov    %rdx,%rdi
    d414:	4c 8d 3d 25 9f 00 00 	lea    0x9f25(%rip),%r15        # 17340 <_Py_FalseStruct@@Base>
    d41b:	e8 60 6d ff ff       	call   4180 <_PyObject_GetDictPtr@plt>
    d420:	48 8b 35 29 a9 00 00 	mov    0xa929(%rip),%rsi        # 17d50 <__pyx_mstate_global_static+0xf0>
    d427:	48 85 c0             	test   %rax,%rax
    d42a:	74 2e                	je     d45a <__Pyx_AddTraceback+0xb8>
    d42c:	48 8b 56 18          	mov    0x18(%rsi),%rdx
    d430:	48 8b 38             	mov    (%rax),%rdi
    d433:	e8 a8 71 ff ff       	call   45e0 <_PyDict_GetItem_KnownHash@plt>
    d438:	48 85 c0             	test   %rax,%rax
    d43b:	75 6d                	jne    d4aa <__Pyx_AddTraceback+0x108>
    d43d:	e8 4e 72 ff ff       	call   4690 <PyErr_Clear@plt>
    d442:	48 8b 35 07 a9 00 00 	mov    0xa907(%rip),%rsi        # 17d50 <__pyx_mstate_global_static+0xf0>
    d449:	48 8b 3d 20 a8 00 00 	mov    0xa820(%rip),%rdi        # 17c70 <__pyx_mstate_global_static+0x10>
    d450:	4c 89 fa             	mov    %r15,%rdx
    d453:	e8 08 71 ff ff       	call   4560 <PyObject_SetAttr@plt>
    d458:	eb 55                	jmp    d4af <__Pyx_AddTraceback+0x10d>
    d45a:	48 8b 3d 0f a8 00 00 	mov    0xa80f(%rip),%rdi        # 17c70 <__pyx_mstate_global_static+0x10>
    d461:	e8 cb fb ff ff       	call   d031 <__Pyx_PyObject_GetAttrStrNoError>
    d466:	48 89 c7             	mov    %rax,%rdi
    d469:	48 85 c0             	test   %rax,%rax
    d46c:	74 cf                	je     d43d <__Pyx_AddTraceback+0x9b>
    d46e:	48 89 44 24 18       	mov    %rax,0x18(%rsp)
    d473:	e8 58 6d ff ff       	call   41d0 <PyObject_Not@plt>
    d478:	48 8b 7c 24 18       	mov    0x18(%rsp),%rdi
    d47d:	89 c2                	mov    %eax,%edx
    d47f:	48 8d 05 7a a0 00 00 	lea    0xa07a(%rip),%rax        # 17500 <_Py_TrueStruct@@Base>
    d486:	85 d2                	test   %edx,%edx
    d488:	48 8b 17             	mov    (%rdi),%rdx
    d48b:	49 0f 45 c7          	cmovne %r15,%rax
    d48f:	85 d2                	test   %edx,%edx
    d491:	78 17                	js     d4aa <__Pyx_AddTraceback+0x108>
    d493:	48 ff ca             	dec    %rdx
    d496:	48 89 17             	mov    %rdx,(%rdi)
    d499:	75 0f                	jne    d4aa <__Pyx_AddTraceback+0x108>
    d49b:	48 89 44 24 18       	mov    %rax,0x18(%rsp)
    d4a0:	e8 ab 71 ff ff       	call   4650 <_Py_Dealloc@plt>
    d4a5:	48 8b 44 24 18       	mov    0x18(%rsp),%rax
    d4aa:	4c 39 f8             	cmp    %r15,%rax
    d4ad:	75 05                	jne    d4b4 <__Pyx_AddTraceback+0x112>
    d4af:	45 31 ed             	xor    %r13d,%r13d
    d4b2:	eb 18                	jmp    d4cc <__Pyx_AddTraceback+0x12a>
    d4b4:	48 8d 15 45 a0 00 00 	lea    0xa045(%rip),%rdx        # 17500 <_Py_TrueStruct@@Base>
    d4bb:	48 39 d0             	cmp    %rdx,%rax
    d4be:	74 0c                	je     d4cc <__Pyx_AddTraceback+0x12a>
    d4c0:	48 89 c7             	mov    %rax,%rdi
    d4c3:	e8 08 6d ff ff       	call   41d0 <PyObject_Not@plt>
    d4c8:	85 c0                	test   %eax,%eax
    d4ca:	75 e3                	jne    d4af <__Pyx_AddTraceback+0x10d>
    d4cc:	48 8b 0c 24          	mov    (%rsp),%rcx
    d4d0:	4c 89 e6             	mov    %r12,%rsi
    d4d3:	4c 89 f2             	mov    %r14,%rdx
    d4d6:	48 89 df             	mov    %rbx,%rdi
    d4d9:	e8 86 f1 ff ff       	call   c664 <__Pyx_ErrRestoreInState>
    d4de:	44 8b 64 24 0c       	mov    0xc(%rsp),%r12d
    d4e3:	45 85 ed             	test   %r13d,%r13d
    d4e6:	74 06                	je     d4ee <__Pyx_AddTraceback+0x14c>
    d4e8:	45 89 ec             	mov    %r13d,%r12d
    d4eb:	41 f7 dc             	neg    %r12d
    d4ee:	4c 8b 15 a3 ab 00 00 	mov    0xaba3(%rip),%r10        # 18098 <__pyx_code_cache+0x8>
    d4f5:	4d 85 d2             	test   %r10,%r10
    d4f8:	74 31                	je     d52b <__Pyx_AddTraceback+0x189>
    d4fa:	44 8b 0d 8f ab 00 00 	mov    0xab8f(%rip),%r9d        # 18090 <__pyx_code_cache>
    d501:	44 89 e2             	mov    %r12d,%edx
    d504:	4c 89 d7             	mov    %r10,%rdi
    d507:	44 89 ce             	mov    %r9d,%esi
    d50a:	e8 39 de ff ff       	call   b348 <__pyx_bisect_code_objects>
    d50f:	41 39 c1             	cmp    %eax,%r9d
    d512:	7e 17                	jle    d52b <__Pyx_AddTraceback+0x189>
    d514:	48 98                	cltq
    d516:	48 c1 e0 04          	shl    $0x4,%rax
    d51a:	49 01 c2             	add    %rax,%r10
    d51d:	45 39 62 08          	cmp    %r12d,0x8(%r10)
    d521:	75 08                	jne    d52b <__Pyx_AddTraceback+0x189>
    d523:	49 8b 2a             	mov    (%r10),%rbp
    d526:	e9 d2 01 00 00       	jmp    d6fd <__Pyx_AddTraceback+0x35b>
    d52b:	4c 8b 7b 60          	mov    0x60(%rbx),%r15
    d52f:	31 d2                	xor    %edx,%edx
    d531:	48 89 53 60          	mov    %rdx,0x60(%rbx)
    d535:	4d 85 ff             	test   %r15,%r15
    d538:	74 20                	je     d55a <__Pyx_AddTraceback+0x1b8>
    d53a:	4d 8b 77 08          	mov    0x8(%r15),%r14
    d53e:	41 8b 06             	mov    (%r14),%eax
    d541:	ff c0                	inc    %eax
    d543:	74 03                	je     d548 <__Pyx_AddTraceback+0x1a6>
    d545:	41 89 06             	mov    %eax,(%r14)
    d548:	49 8b 47 28          	mov    0x28(%r15),%rax
    d54c:	48 89 c7             	mov    %rax,%rdi
    d54f:	48 89 04 24          	mov    %rax,(%rsp)
    d553:	e8 41 dc ff ff       	call   b199 <Py_XINCREF>
    d558:	eb 09                	jmp    d563 <__Pyx_AddTraceback+0x1c1>
    d55a:	31 c0                	xor    %eax,%eax
    d55c:	45 31 f6             	xor    %r14d,%r14d
    d55f:	48 89 04 24          	mov    %rax,(%rsp)
    d563:	45 85 ed             	test   %r13d,%r13d
    d566:	74 35                	je     d59d <__Pyx_AddTraceback+0x1fb>
    d568:	44 89 e9             	mov    %r13d,%ecx
    d56b:	48 8d 15 f2 4a 00 00 	lea    0x4af2(%rip),%rdx        # 12064 <_IO_stdin_used+0x64>
    d572:	48 89 ee             	mov    %rbp,%rsi
    d575:	31 c0                	xor    %eax,%eax
    d577:	48 8d 3d 30 52 00 00 	lea    0x5230(%rip),%rdi        # 127ae <_IO_stdin_used+0x7ae>
    d57e:	e8 bd 6c ff ff       	call   4240 <PyUnicode_FromFormat@plt>
    d583:	49 89 c5             	mov    %rax,%r13
    d586:	48 85 c0             	test   %rax,%rax
    d589:	74 38                	je     d5c3 <__Pyx_AddTraceback+0x221>
    d58b:	48 89 c7             	mov    %rax,%rdi
    d58e:	e8 fd 71 ff ff       	call   4790 <PyUnicode_AsUTF8@plt>
    d593:	48 89 c5             	mov    %rax,%rbp
    d596:	48 85 c0             	test   %rax,%rax
    d599:	75 05                	jne    d5a0 <__Pyx_AddTraceback+0x1fe>
    d59b:	eb 26                	jmp    d5c3 <__Pyx_AddTraceback+0x221>
    d59d:	45 31 ed             	xor    %r13d,%r13d
    d5a0:	48 8b 7c 24 10       	mov    0x10(%rsp),%rdi
    d5a5:	8b 54 24 0c          	mov    0xc(%rsp),%edx
    d5a9:	48 89 ee             	mov    %rbp,%rsi
    d5ac:	e8 5f 6e ff ff       	call   4410 <PyCode_NewEmpty@plt>
    d5b1:	4c 89 ef             	mov    %r13,%rdi
    d5b4:	48 89 c5             	mov    %rax,%rbp
    d5b7:	e8 e2 e0 ff ff       	call   b69e <Py_XDECREF>
    d5bc:	48 85 ed             	test   %rbp,%rbp
    d5bf:	75 2c                	jne    d5ed <__Pyx_AddTraceback+0x24b>
    d5c1:	eb 08                	jmp    d5cb <__Pyx_AddTraceback+0x229>
    d5c3:	4c 89 ef             	mov    %r13,%rdi
    d5c6:	e8 d3 e0 ff ff       	call   b69e <Py_XDECREF>
    d5cb:	4c 89 f7             	mov    %r14,%rdi
    d5ce:	31 db                	xor    %ebx,%ebx
    d5d0:	31 ed                	xor    %ebp,%ebp
    d5d2:	e8 c7 e0 ff ff       	call   b69e <Py_XDECREF>
    d5d7:	4c 89 ff             	mov    %r15,%rdi
    d5da:	e8 bf e0 ff ff       	call   b69e <Py_XDECREF>
    d5df:	48 8b 3c 24          	mov    (%rsp),%rdi
    d5e3:	e8 b6 e0 ff ff       	call   b69e <Py_XDECREF>
    d5e8:	e9 45 01 00 00       	jmp    d732 <__Pyx_AddTraceback+0x390>
    d5ed:	48 8b 0c 24          	mov    (%rsp),%rcx
    d5f1:	4c 89 fa             	mov    %r15,%rdx
    d5f4:	4c 89 f6             	mov    %r14,%rsi
    d5f7:	48 89 df             	mov    %rbx,%rdi
    d5fa:	e8 65 f0 ff ff       	call   c664 <__Pyx_ErrRestoreInState>
    d5ff:	4c 8b 0d 92 aa 00 00 	mov    0xaa92(%rip),%r9        # 18098 <__pyx_code_cache+0x8>
    d606:	4d 85 c9             	test   %r9,%r9
    d609:	75 37                	jne    d642 <__Pyx_AddTraceback+0x2a0>
    d60b:	bf 00 04 00 00       	mov    $0x400,%edi
    d610:	e8 6b 71 ff ff       	call   4780 <PyMem_Malloc@plt>
    d615:	48 85 c0             	test   %rax,%rax
    d618:	0f 84 e9 00 00 00    	je     d707 <__Pyx_AddTraceback+0x365>
    d61e:	48 b9 01 00 00 00 40 	movabs $0x4000000001,%rcx
    d625:	00 00 00 
    d628:	48 89 05 69 aa 00 00 	mov    %rax,0xaa69(%rip)        # 18098 <__pyx_code_cache+0x8>
    d62f:	48 89 0d 5a aa 00 00 	mov    %rcx,0xaa5a(%rip)        # 18090 <__pyx_code_cache>
    d636:	44 89 60 08          	mov    %r12d,0x8(%rax)
    d63a:	48 89 28             	mov    %rbp,(%rax)
    d63d:	e9 bb 00 00 00       	jmp    d6fd <__Pyx_AddTraceback+0x35b>
    d642:	44 8b 35 47 aa 00 00 	mov    0xaa47(%rip),%r14d        # 18090 <__pyx_code_cache>
    d649:	44 89 e2             	mov    %r12d,%edx
    d64c:	4c 89 cf             	mov    %r9,%rdi
    d64f:	44 89 f6             	mov    %r14d,%esi
    d652:	e8 f1 dc ff ff       	call   b348 <__pyx_bisect_code_objects>
    d657:	4c 63 e8             	movslq %eax,%r13
    d65a:	45 39 ee             	cmp    %r13d,%r14d
    d65d:	7e 30                	jle    d68f <__Pyx_AddTraceback+0x2ed>
    d65f:	49 63 c5             	movslq %r13d,%rax
    d662:	48 c1 e0 04          	shl    $0x4,%rax
    d666:	4c 01 c8             	add    %r9,%rax
    d669:	44 39 60 08          	cmp    %r12d,0x8(%rax)
    d66d:	75 20                	jne    d68f <__Pyx_AddTraceback+0x2ed>
    d66f:	48 8b 38             	mov    (%rax),%rdi
    d672:	48 89 28             	mov    %rbp,(%rax)
    d675:	48 8b 07             	mov    (%rdi),%rax
    d678:	85 c0                	test   %eax,%eax
    d67a:	0f 88 87 00 00 00    	js     d707 <__Pyx_AddTraceback+0x365>
    d680:	48 ff c8             	dec    %rax
    d683:	48 89 07             	mov    %rax,(%rdi)
    d686:	75 7f                	jne    d707 <__Pyx_AddTraceback+0x365>
    d688:	e8 c3 6f ff ff       	call   4650 <_Py_Dealloc@plt>
    d68d:	eb 78                	jmp    d707 <__Pyx_AddTraceback+0x365>
    d68f:	44 3b 35 fe a9 00 00 	cmp    0xa9fe(%rip),%r14d        # 18094 <__pyx_code_cache+0x4>
    d696:	75 29                	jne    d6c1 <__Pyx_AddTraceback+0x31f>
    d698:	41 83 c6 40          	add    $0x40,%r14d
    d69c:	4c 89 cf             	mov    %r9,%rdi
    d69f:	49 63 f6             	movslq %r14d,%rsi
    d6a2:	48 c1 e6 04          	shl    $0x4,%rsi
    d6a6:	e8 15 6b ff ff       	call   41c0 <PyMem_Realloc@plt>
    d6ab:	49 89 c1             	mov    %rax,%r9
    d6ae:	48 85 c0             	test   %rax,%rax
    d6b1:	74 54                	je     d707 <__Pyx_AddTraceback+0x365>
    d6b3:	48 89 05 de a9 00 00 	mov    %rax,0xa9de(%rip)        # 18098 <__pyx_code_cache+0x8>
    d6ba:	44 89 35 d3 a9 00 00 	mov    %r14d,0xa9d3(%rip)        # 18094 <__pyx_code_cache+0x4>
    d6c1:	48 63 15 c8 a9 00 00 	movslq 0xa9c8(%rip),%rdx        # 18090 <__pyx_code_cache>
    d6c8:	48 89 d0             	mov    %rdx,%rax
    d6cb:	41 39 d5             	cmp    %edx,%r13d
    d6ce:	7d 17                	jge    d6e7 <__Pyx_AddTraceback+0x345>
    d6d0:	48 89 d1             	mov    %rdx,%rcx
    d6d3:	48 ff ca             	dec    %rdx
    d6d6:	48 c1 e1 04          	shl    $0x4,%rcx
    d6da:	41 0f 10 44 09 f0    	movups -0x10(%r9,%rcx,1),%xmm0
    d6e0:	41 0f 11 04 09       	movups %xmm0,(%r9,%rcx,1)
    d6e5:	eb e4                	jmp    d6cb <__Pyx_AddTraceback+0x329>
    d6e7:	49 c1 e5 04          	shl    $0x4,%r13
    d6eb:	ff c0                	inc    %eax
    d6ed:	4d 01 e9             	add    %r13,%r9
    d6f0:	89 05 9a a9 00 00    	mov    %eax,0xa99a(%rip)        # 18090 <__pyx_code_cache>
    d6f6:	45 89 61 08          	mov    %r12d,0x8(%r9)
    d6fa:	49 89 29             	mov    %rbp,(%r9)
    d6fd:	8b 45 00             	mov    0x0(%rbp),%eax
    d700:	ff c0                	inc    %eax
    d702:	74 03                	je     d707 <__Pyx_AddTraceback+0x365>
    d704:	89 45 00             	mov    %eax,0x0(%rbp)
    d707:	48 8b 15 52 a5 00 00 	mov    0xa552(%rip),%rdx        # 17c60 <__pyx_mstate_global_static>
    d70e:	48 89 df             	mov    %rbx,%rdi
    d711:	31 c9                	xor    %ecx,%ecx
    d713:	48 89 ee             	mov    %rbp,%rsi
    d716:	e8 55 69 ff ff       	call   4070 <PyFrame_New@plt>
    d71b:	48 89 c3             	mov    %rax,%rbx
    d71e:	48 85 c0             	test   %rax,%rax
    d721:	74 0f                	je     d732 <__Pyx_AddTraceback+0x390>
    d723:	8b 44 24 0c          	mov    0xc(%rsp),%eax
    d727:	48 89 df             	mov    %rbx,%rdi
    d72a:	89 43 28             	mov    %eax,0x28(%rbx)
    d72d:	e8 ce 6e ff ff       	call   4600 <PyTraceBack_Here@plt>
    d732:	48 89 ef             	mov    %rbp,%rdi
    d735:	e8 64 df ff ff       	call   b69e <Py_XDECREF>
    d73a:	48 83 c4 28          	add    $0x28,%rsp
    d73e:	48 89 df             	mov    %rbx,%rdi
    d741:	5b                   	pop    %rbx
    d742:	5d                   	pop    %rbp
    d743:	41 5c                	pop    %r12
    d745:	41 5d                	pop    %r13
    d747:	41 5e                	pop    %r14
    d749:	41 5f                	pop    %r15
    d74b:	e9 4e df ff ff       	jmp    b69e <Py_XDECREF>

000000000000d750 <__pyx_pw_4main_9calibrate_btn_1>:
    d750:	41 57                	push   %r15
    d752:	41 56                	push   %r14
    d754:	41 55                	push   %r13
    d756:	41 54                	push   %r12
    d758:	55                   	push   %rbp
    d759:	53                   	push   %rbx
    d75a:	48 83 ec 68          	sub    $0x68,%rsp
    d75e:	64 48 8b 3c 25 28 00 	mov    %fs:0x28,%rdi
    d765:	00 00 
    d767:	48 89 7c 24 58       	mov    %rdi,0x58(%rsp)
    d76c:	48 8b 3d a5 a7 00 00 	mov    0xa7a5(%rip),%rdi        # 17f18 <__pyx_mstate_global_static+0x2b8>
    d773:	e8 0c fa ff ff       	call   d184 <__Pyx__GetModuleGlobalName>
    d778:	48 89 44 24 08       	mov    %rax,0x8(%rsp)
    d77d:	48 85 c0             	test   %rax,%rax
    d780:	0f 84 63 07 00 00    	je     dee9 <__pyx_pw_4main_9calibrate_btn_1+0x799>
    d786:	48 8b 00             	mov    (%rax),%rax
    d789:	85 c0                	test   %eax,%eax
    d78b:	78 15                	js     d7a2 <__pyx_pw_4main_9calibrate_btn_1+0x52>
    d78d:	48 8b 4c 24 08       	mov    0x8(%rsp),%rcx
    d792:	48 ff c8             	dec    %rax
    d795:	48 89 01             	mov    %rax,(%rcx)
    d798:	75 08                	jne    d7a2 <__pyx_pw_4main_9calibrate_btn_1+0x52>
    d79a:	48 89 cf             	mov    %rcx,%rdi
    d79d:	e8 ae 6e ff ff       	call   4650 <_Py_Dealloc@plt>
    d7a2:	48 8d 05 77 a2 00 00 	lea    0xa277(%rip),%rax        # 17a20 <_Py_NoneStruct@@Base>
    d7a9:	48 39 44 24 08       	cmp    %rax,0x8(%rsp)
    d7ae:	0f 84 0f 07 00 00    	je     dec3 <__pyx_pw_4main_9calibrate_btn_1+0x773>
    d7b4:	48 8b 3d 35 a7 00 00 	mov    0xa735(%rip),%rdi        # 17ef0 <__pyx_mstate_global_static+0x290>
    d7bb:	e8 c4 f9 ff ff       	call   d184 <__Pyx__GetModuleGlobalName>
    d7c0:	49 89 c4             	mov    %rax,%r12
    d7c3:	48 85 c0             	test   %rax,%rax
    d7c6:	0f 84 38 07 00 00    	je     df04 <__pyx_pw_4main_9calibrate_btn_1+0x7b4>
    d7cc:	31 ed                	xor    %ebp,%ebp
    d7ce:	31 db                	xor    %ebx,%ebx
    d7d0:	48 8d 05 09 9f 00 00 	lea    0x9f09(%rip),%rax        # 176e0 <PyMethod_Type@@Base>
    d7d7:	49 39 44 24 08       	cmp    %rax,0x8(%r12)
    d7dc:	75 52                	jne    d830 <__pyx_pw_4main_9calibrate_btn_1+0xe0>
    d7de:	4c 89 e7             	mov    %r12,%rdi
    d7e1:	e8 08 eb ff ff       	call   c2ee <PyMethod_GET_SELF>
    d7e6:	48 89 c3             	mov    %rax,%rbx
    d7e9:	48 85 c0             	test   %rax,%rax
    d7ec:	74 42                	je     d830 <__pyx_pw_4main_9calibrate_btn_1+0xe0>
    d7ee:	4c 89 e7             	mov    %r12,%rdi
    d7f1:	e8 2a eb ff ff       	call   c320 <PyMethod_GET_FUNCTION>
    d7f6:	48 89 c5             	mov    %rax,%rbp
    d7f9:	8b 03                	mov    (%rbx),%eax
    d7fb:	ff c0                	inc    %eax
    d7fd:	74 02                	je     d801 <__pyx_pw_4main_9calibrate_btn_1+0xb1>
    d7ff:	89 03                	mov    %eax,(%rbx)
    d801:	8b 45 00             	mov    0x0(%rbp),%eax
    d804:	ff c0                	inc    %eax
    d806:	74 03                	je     d80b <__pyx_pw_4main_9calibrate_btn_1+0xbb>
    d808:	89 45 00             	mov    %eax,0x0(%rbp)
    d80b:	49 8b 04 24          	mov    (%r12),%rax
    d80f:	85 c0                	test   %eax,%eax
    d811:	78 09                	js     d81c <__pyx_pw_4main_9calibrate_btn_1+0xcc>
    d813:	48 ff c8             	dec    %rax
    d816:	49 89 04 24          	mov    %rax,(%r12)
    d81a:	74 0a                	je     d826 <__pyx_pw_4main_9calibrate_btn_1+0xd6>
    d81c:	49 89 ec             	mov    %rbp,%r12
    d81f:	bd 01 00 00 00       	mov    $0x1,%ebp
    d824:	eb 0a                	jmp    d830 <__pyx_pw_4main_9calibrate_btn_1+0xe0>
    d826:	4c 89 e7             	mov    %r12,%rdi
    d829:	e8 22 6e ff ff       	call   4650 <_Py_Dealloc@plt>
    d82e:	eb ec                	jmp    d81c <__pyx_pw_4main_9calibrate_btn_1+0xcc>
    d830:	48 8b 05 a9 a6 00 00 	mov    0xa6a9(%rip),%rax        # 17ee0 <__pyx_mstate_global_static+0x280>
    d837:	8d 55 01             	lea    0x1(%rbp),%edx
    d83a:	83 f5 01             	xor    $0x1,%ebp
    d83d:	4c 89 e7             	mov    %r12,%rdi
    d840:	48 63 ed             	movslq %ebp,%rbp
    d843:	48 63 d2             	movslq %edx,%rdx
    d846:	48 89 5c 24 48       	mov    %rbx,0x48(%rsp)
    d84b:	48 89 44 24 50       	mov    %rax,0x50(%rsp)
    d850:	48 8d 44 24 48       	lea    0x48(%rsp),%rax
    d855:	48 8d 34 e8          	lea    (%rax,%rbp,8),%rsi
    d859:	48 89 44 24 20       	mov    %rax,0x20(%rsp)
    d85e:	e8 38 fa ff ff       	call   d29b <__Pyx_PyObject_FastCallDict.constprop.0>
    d863:	48 89 df             	mov    %rbx,%rdi
    d866:	48 89 44 24 08       	mov    %rax,0x8(%rsp)
    d86b:	e8 2e de ff ff       	call   b69e <Py_XDECREF>
    d870:	48 83 7c 24 08 00    	cmpq   $0x0,0x8(%rsp)
    d876:	75 16                	jne    d88e <__pyx_pw_4main_9calibrate_btn_1+0x13e>
    d878:	4c 89 e3             	mov    %r12,%rbx
    d87b:	45 31 ed             	xor    %r13d,%r13d
    d87e:	31 ed                	xor    %ebp,%ebp
    d880:	45 31 e4             	xor    %r12d,%r12d
    d883:	41 be 86 11 00 00    	mov    $0x1186,%r14d
    d889:	e9 8a 06 00 00       	jmp    df18 <__pyx_pw_4main_9calibrate_btn_1+0x7c8>
    d88e:	49 8b 04 24          	mov    (%r12),%rax
    d892:	85 c0                	test   %eax,%eax
    d894:	78 11                	js     d8a7 <__pyx_pw_4main_9calibrate_btn_1+0x157>
    d896:	48 ff c8             	dec    %rax
    d899:	49 89 04 24          	mov    %rax,(%r12)
    d89d:	75 08                	jne    d8a7 <__pyx_pw_4main_9calibrate_btn_1+0x157>
    d89f:	4c 89 e7             	mov    %r12,%rdi
    d8a2:	e8 a9 6d ff ff       	call   4650 <_Py_Dealloc@plt>
    d8a7:	48 8b 4c 24 08       	mov    0x8(%rsp),%rcx
    d8ac:	48 8b 35 6d a4 00 00 	mov    0xa46d(%rip),%rsi        # 17d20 <__pyx_mstate_global_static+0xc0>
    d8b3:	48 8d 05 86 95 00 00 	lea    0x9586(%rip),%rax        # 16e40 <PyDict_Type@@Base>
    d8ba:	48 39 41 08          	cmp    %rax,0x8(%rcx)
    d8be:	75 0a                	jne    d8ca <__pyx_pw_4main_9calibrate_btn_1+0x17a>
    d8c0:	48 89 cf             	mov    %rcx,%rdi
    d8c3:	e8 2c ec ff ff       	call   c4f4 <__Pyx_PyDict_GetItem>
    d8c8:	eb 0a                	jmp    d8d4 <__pyx_pw_4main_9calibrate_btn_1+0x184>
    d8ca:	48 8b 7c 24 08       	mov    0x8(%rsp),%rdi
    d8cf:	e8 5c 69 ff ff       	call   4230 <PyObject_GetItem@plt>
    d8d4:	49 89 c4             	mov    %rax,%r12
    d8d7:	48 85 c0             	test   %rax,%rax
    d8da:	0f 84 43 06 00 00    	je     df23 <__pyx_pw_4main_9calibrate_btn_1+0x7d3>
    d8e0:	48 8b 3d a1 a7 00 00 	mov    0xa7a1(%rip),%rdi        # 18088 <__pyx_builtin_print>
    d8e7:	48 89 c6             	mov    %rax,%rsi
    d8ea:	e8 65 fa ff ff       	call   d354 <__Pyx_PyObject_CallOneArg>
    d8ef:	48 89 c3             	mov    %rax,%rbx
    d8f2:	48 85 c0             	test   %rax,%rax
    d8f5:	0f 84 3d 06 00 00    	je     df38 <__pyx_pw_4main_9calibrate_btn_1+0x7e8>
    d8fb:	48 8b 00             	mov    (%rax),%rax
    d8fe:	85 c0                	test   %eax,%eax
    d900:	78 10                	js     d912 <__pyx_pw_4main_9calibrate_btn_1+0x1c2>
    d902:	48 ff c8             	dec    %rax
    d905:	48 89 03             	mov    %rax,(%rbx)
    d908:	75 08                	jne    d912 <__pyx_pw_4main_9calibrate_btn_1+0x1c2>
    d90a:	48 89 df             	mov    %rbx,%rdi
    d90d:	e8 3e 6d ff ff       	call   4650 <_Py_Dealloc@plt>
    d912:	48 8b 3d ff a5 00 00 	mov    0xa5ff(%rip),%rdi        # 17f18 <__pyx_mstate_global_static+0x2b8>
    d919:	e8 66 f8 ff ff       	call   d184 <__Pyx__GetModuleGlobalName>
    d91e:	48 89 c3             	mov    %rax,%rbx
    d921:	48 85 c0             	test   %rax,%rax
    d924:	0f 84 21 06 00 00    	je     df4b <__pyx_pw_4main_9calibrate_btn_1+0x7fb>
    d92a:	48 8b 35 87 a6 00 00 	mov    0xa687(%rip),%rsi        # 17fb8 <__pyx_mstate_global_static+0x358>
    d931:	48 89 c7             	mov    %rax,%rdi
    d934:	e8 43 dc ff ff       	call   b57c <__Pyx_PyObject_GetAttrStr>
    d939:	48 89 c5             	mov    %rax,%rbp
    d93c:	48 85 c0             	test   %rax,%rax
    d93f:	0f 84 13 06 00 00    	je     df58 <__pyx_pw_4main_9calibrate_btn_1+0x808>
    d945:	48 8b 03             	mov    (%rbx),%rax
    d948:	85 c0                	test   %eax,%eax
    d94a:	78 10                	js     d95c <__pyx_pw_4main_9calibrate_btn_1+0x20c>
    d94c:	48 ff c8             	dec    %rax
    d94f:	48 89 03             	mov    %rax,(%rbx)
    d952:	75 08                	jne    d95c <__pyx_pw_4main_9calibrate_btn_1+0x20c>
    d954:	48 89 df             	mov    %rbx,%rdi
    d957:	e8 f4 6c ff ff       	call   4650 <_Py_Dealloc@plt>
    d95c:	bf 03 00 00 00       	mov    $0x3,%edi
    d961:	e8 3a 6d ff ff       	call   46a0 <PyTuple_New@plt>
    d966:	48 89 c3             	mov    %rax,%rbx
    d969:	48 85 c0             	test   %rax,%rax
    d96c:	0f 84 f1 05 00 00    	je     df63 <__pyx_pw_4main_9calibrate_btn_1+0x813>
    d972:	48 8b 15 37 a6 00 00 	mov    0xa637(%rip),%rdx        # 17fb0 <__pyx_mstate_global_static+0x350>
    d979:	8b 02                	mov    (%rdx),%eax
    d97b:	ff c0                	inc    %eax
    d97d:	74 02                	je     d981 <__pyx_pw_4main_9calibrate_btn_1+0x231>
    d97f:	89 02                	mov    %eax,(%rdx)
    d981:	31 f6                	xor    %esi,%esi
    d983:	48 89 df             	mov    %rbx,%rdi
    d986:	e8 30 e9 ff ff       	call   c2bb <PyTuple_SET_ITEM>
    d98b:	49 8b 44 24 08       	mov    0x8(%r12),%rax
    d990:	48 8d 15 c9 99 00 00 	lea    0x99c9(%rip),%rdx        # 17360 <PyUnicode_Type@@Base>
    d997:	48 39 d0             	cmp    %rdx,%rax
    d99a:	75 11                	jne    d9ad <__pyx_pw_4main_9calibrate_btn_1+0x25d>
    d99c:	41 8b 04 24          	mov    (%r12),%eax
    d9a0:	ff c0                	inc    %eax
    d9a2:	74 04                	je     d9a8 <__pyx_pw_4main_9calibrate_btn_1+0x258>
    d9a4:	41 89 04 24          	mov    %eax,(%r12)
    d9a8:	4d 89 e5             	mov    %r12,%r13
    d9ab:	eb 3b                	jmp    d9e8 <__pyx_pw_4main_9calibrate_btn_1+0x298>
    d9ad:	48 8d 15 cc 9e 00 00 	lea    0x9ecc(%rip),%rdx        # 17880 <PyLong_Type@@Base>
    d9b4:	48 39 d0             	cmp    %rdx,%rax
    d9b7:	74 0c                	je     d9c5 <__pyx_pw_4main_9calibrate_btn_1+0x275>
    d9b9:	48 8d 15 e0 97 00 00 	lea    0x97e0(%rip),%rdx        # 171a0 <PyFloat_Type@@Base>
    d9c0:	48 39 d0             	cmp    %rdx,%rax
    d9c3:	75 08                	jne    d9cd <__pyx_pw_4main_9calibrate_btn_1+0x27d>
    d9c5:	4c 89 e7             	mov    %r12,%rdi
    d9c8:	ff 50 58             	call   *0x58(%rax)
    d9cb:	eb 0f                	jmp    d9dc <__pyx_pw_4main_9calibrate_btn_1+0x28c>
    d9cd:	48 8b 35 b4 a2 00 00 	mov    0xa2b4(%rip),%rsi        # 17c88 <__pyx_mstate_global_static+0x28>
    d9d4:	4c 89 e7             	mov    %r12,%rdi
    d9d7:	e8 f4 6a ff ff       	call   44d0 <PyObject_Format@plt>
    d9dc:	49 89 c5             	mov    %rax,%r13
    d9df:	48 85 c0             	test   %rax,%rax
    d9e2:	0f 84 86 05 00 00    	je     df6e <__pyx_pw_4main_9calibrate_btn_1+0x81e>
    d9e8:	4c 89 ef             	mov    %r13,%rdi
    d9eb:	e8 fa e1 ff ff       	call   bbea <PyUnicode_IS_ASCII>
    d9f0:	85 c0                	test   %eax,%eax
    d9f2:	75 65                	jne    da59 <__pyx_pw_4main_9calibrate_btn_1+0x309>
    d9f4:	49 8b 45 08          	mov    0x8(%r13),%rax
    d9f8:	48 8d 0d b1 56 00 00 	lea    0x56b1(%rip),%rcx        # 130b0 <__PRETTY_FUNCTION__.35>
    d9ff:	ba 71 01 00 00       	mov    $0x171,%edx
    da04:	48 8d 35 9d 48 00 00 	lea    0x489d(%rip),%rsi        # 122a8 <_IO_stdin_used+0x2a8>
    da0b:	48 8d 3d c6 48 00 00 	lea    0x48c6(%rip),%rdi        # 122d8 <_IO_stdin_used+0x2d8>
    da12:	f6 80 ab 00 00 00 10 	testb  $0x10,0xab(%rax)
    da19:	74 39                	je     da54 <__pyx_pw_4main_9calibrate_btn_1+0x304>
    da1b:	41 8a 45 20          	mov    0x20(%r13),%al
    da1f:	c0 e8 02             	shr    $0x2,%al
    da22:	83 e0 07             	and    $0x7,%eax
    da25:	83 f8 01             	cmp    $0x1,%eax
    da28:	74 37                	je     da61 <__pyx_pw_4main_9calibrate_btn_1+0x311>
    da2a:	83 f8 02             	cmp    $0x2,%eax
    da2d:	74 3a                	je     da69 <__pyx_pw_4main_9calibrate_btn_1+0x319>
    da2f:	41 be ff ff 10 00    	mov    $0x10ffff,%r14d
    da35:	83 f8 04             	cmp    $0x4,%eax
    da38:	74 35                	je     da6f <__pyx_pw_4main_9calibrate_btn_1+0x31f>
    da3a:	48 8d 0d 6f 56 00 00 	lea    0x566f(%rip),%rcx        # 130b0 <__PRETTY_FUNCTION__.35>
    da41:	ba 78 01 00 00       	mov    $0x178,%edx
    da46:	48 8d 35 5b 48 00 00 	lea    0x485b(%rip),%rsi        # 122a8 <_IO_stdin_used+0x2a8>
    da4d:	48 8d 3d 17 4a 00 00 	lea    0x4a17(%rip),%rdi        # 1246b <_IO_stdin_used+0x46b>
    da54:	e8 c7 66 ff ff       	call   4120 <__assert_fail@plt>
    da59:	41 be 7f 00 00 00    	mov    $0x7f,%r14d
    da5f:	eb 0e                	jmp    da6f <__pyx_pw_4main_9calibrate_btn_1+0x31f>
    da61:	41 be ff 00 00 00    	mov    $0xff,%r14d
    da67:	eb 06                	jmp    da6f <__pyx_pw_4main_9calibrate_btn_1+0x31f>
    da69:	41 be ff ff 00 00    	mov    $0xffff,%r14d
    da6f:	4c 89 ef             	mov    %r13,%rdi
    da72:	e8 aa e1 ff ff       	call   bc21 <PyUnicode_GET_LENGTH>
    da77:	4c 89 ea             	mov    %r13,%rdx
    da7a:	be 01 00 00 00       	mov    $0x1,%esi
    da7f:	48 89 df             	mov    %rbx,%rdi
    da82:	49 89 c7             	mov    %rax,%r15
    da85:	e8 31 e8 ff ff       	call   c2bb <PyTuple_SET_ITEM>
    da8a:	48 8b 15 4f a2 00 00 	mov    0xa24f(%rip),%rdx        # 17ce0 <__pyx_mstate_global_static+0x80>
    da91:	8b 02                	mov    (%rdx),%eax
    da93:	ff c0                	inc    %eax
    da95:	74 02                	je     da99 <__pyx_pw_4main_9calibrate_btn_1+0x349>
    da97:	89 02                	mov    %eax,(%rdx)
    da99:	be 02 00 00 00       	mov    $0x2,%esi
    da9e:	48 89 df             	mov    %rbx,%rdi
    daa1:	e8 15 e8 ff ff       	call   c2bb <PyTuple_SET_ITEM>
    daa6:	49 8d 7f 08          	lea    0x8(%r15),%rdi
    daaa:	44 89 f6             	mov    %r14d,%esi
    daad:	e8 fe 6b ff ff       	call   46b0 <PyUnicode_New@plt>
    dab2:	49 89 c5             	mov    %rax,%r13
    dab5:	48 85 c0             	test   %rax,%rax
    dab8:	0f 84 b8 04 00 00    	je     df76 <__pyx_pw_4main_9calibrate_btn_1+0x826>
    dabe:	41 81 fe ff 00 00 00 	cmp    $0xff,%r14d
    dac5:	76 11                	jbe    dad8 <__pyx_pw_4main_9calibrate_btn_1+0x388>
    dac7:	41 bf 02 00 00 00    	mov    $0x2,%r15d
    dacd:	41 81 fe ff ff 00 00 	cmp    $0xffff,%r14d
    dad4:	74 08                	je     dade <__pyx_pw_4main_9calibrate_btn_1+0x38e>
    dad6:	eb 10                	jmp    dae8 <__pyx_pw_4main_9calibrate_btn_1+0x398>
    dad8:	41 bf 01 00 00 00    	mov    $0x1,%r15d
    dade:	41 8d 47 ff          	lea    -0x1(%r15),%eax
    dae2:	89 44 24 1c          	mov    %eax,0x1c(%rsp)
    dae6:	eb 0e                	jmp    daf6 <__pyx_pw_4main_9calibrate_btn_1+0x3a6>
    dae8:	c7 44 24 1c 02 00 00 	movl   $0x2,0x1c(%rsp)
    daef:	00 
    daf0:	41 bf 04 00 00 00    	mov    $0x4,%r15d
    daf6:	4c 89 ef             	mov    %r13,%rdi
    daf9:	45 31 f6             	xor    %r14d,%r14d
    dafc:	e8 f3 ee ff ff       	call   c9f4 <PyUnicode_DATA>
    db01:	31 f6                	xor    %esi,%esi
    db03:	48 89 44 24 28       	mov    %rax,0x28(%rsp)
    db08:	48 89 74 24 10       	mov    %rsi,0x10(%rsp)
    db0d:	48 8b 43 08          	mov    0x8(%rbx),%rax
    db11:	f6 80 ab 00 00 00 04 	testb  $0x4,0xab(%rax)
    db18:	75 1f                	jne    db39 <__pyx_pw_4main_9calibrate_btn_1+0x3e9>
    db1a:	48 8d 0d 2f 55 00 00 	lea    0x552f(%rip),%rcx        # 13050 <__PRETTY_FUNCTION__.32>
    db21:	ba 42 1e 00 00       	mov    $0x1e42,%edx
    db26:	48 8d 35 37 45 00 00 	lea    0x4537(%rip),%rsi        # 12064 <_IO_stdin_used+0x64>
    db2d:	48 8d 3d 85 4c 00 00 	lea    0x4c85(%rip),%rdi        # 127b9 <_IO_stdin_used+0x7b9>
    db34:	e9 1b ff ff ff       	jmp    da54 <__pyx_pw_4main_9calibrate_btn_1+0x304>
    db39:	4a 8b 54 f3 18       	mov    0x18(%rbx,%r14,8),%rdx
    db3e:	48 89 d7             	mov    %rdx,%rdi
    db41:	48 89 54 24 30       	mov    %rdx,0x30(%rsp)
    db46:	e8 d6 e0 ff ff       	call   bc21 <PyUnicode_GET_LENGTH>
    db4b:	49 89 c0             	mov    %rax,%r8
    db4e:	48 85 c0             	test   %rax,%rax
    db51:	0f 84 01 01 00 00    	je     dc58 <__pyx_pw_4main_9calibrate_btn_1+0x508>
    db57:	8a 4c 24 1c          	mov    0x1c(%rsp),%cl
    db5b:	48 8b 54 24 30       	mov    0x30(%rsp),%rdx
    db60:	48 b8 ff ff ff ff ff 	movabs $0x7fffffffffffffff,%rax
    db67:	ff ff 7f 
    db6a:	48 d3 f8             	sar    %cl,%rax
    db6d:	4c 29 c0             	sub    %r8,%rax
    db70:	48 39 44 24 10       	cmp    %rax,0x10(%rsp)
    db75:	7e 42                	jle    dbb9 <__pyx_pw_4main_9calibrate_btn_1+0x469>
    db77:	48 8b 3d b2 9e 00 00 	mov    0x9eb2(%rip),%rdi        # 17a30 <PyExc_OverflowError@@Base>
    db7e:	48 8d 35 4f 4c 00 00 	lea    0x4c4f(%rip),%rsi        # 127d4 <_IO_stdin_used+0x7d4>
    db85:	e8 76 6b ff ff       	call   4700 <PyErr_SetString@plt>
    db8a:	49 8b 45 00          	mov    0x0(%r13),%rax
    db8e:	85 c0                	test   %eax,%eax
    db90:	79 14                	jns    dba6 <__pyx_pw_4main_9calibrate_btn_1+0x456>
    db92:	41 be c3 11 00 00    	mov    $0x11c3,%r14d
    db98:	41 bf 50 00 00 00    	mov    $0x50,%r15d
    db9e:	45 31 ed             	xor    %r13d,%r13d
    dba1:	e9 02 04 00 00       	jmp    dfa8 <__pyx_pw_4main_9calibrate_btn_1+0x858>
    dba6:	48 ff c8             	dec    %rax
    dba9:	49 89 45 00          	mov    %rax,0x0(%r13)
    dbad:	75 e3                	jne    db92 <__pyx_pw_4main_9calibrate_btn_1+0x442>
    dbaf:	4c 89 ef             	mov    %r13,%rdi
    dbb2:	e8 99 6a ff ff       	call   4650 <_Py_Dealloc@plt>
    dbb7:	eb d9                	jmp    db92 <__pyx_pw_4main_9calibrate_btn_1+0x442>
    dbb9:	48 8b 42 08          	mov    0x8(%rdx),%rax
    dbbd:	f6 80 ab 00 00 00 10 	testb  $0x10,0xab(%rax)
    dbc4:	75 1f                	jne    dbe5 <__pyx_pw_4main_9calibrate_btn_1+0x495>
    dbc6:	48 8d 0d 83 54 00 00 	lea    0x5483(%rip),%rcx        # 13050 <__PRETTY_FUNCTION__.32>
    dbcd:	ba 4a 1e 00 00       	mov    $0x1e4a,%edx
    dbd2:	48 8d 35 8b 44 00 00 	lea    0x448b(%rip),%rsi        # 12064 <_IO_stdin_used+0x64>
    dbd9:	48 8d 3d 22 4c 00 00 	lea    0x4c22(%rip),%rdi        # 12802 <_IO_stdin_used+0x802>
    dbe0:	e9 6f fe ff ff       	jmp    da54 <__pyx_pw_4main_9calibrate_btn_1+0x304>
    dbe5:	48 89 d7             	mov    %rdx,%rdi
    dbe8:	4c 89 44 24 38       	mov    %r8,0x38(%rsp)
    dbed:	48 89 54 24 30       	mov    %rdx,0x30(%rsp)
    dbf2:	e8 fd ed ff ff       	call   c9f4 <PyUnicode_DATA>
    dbf7:	48 8b 54 24 30       	mov    0x30(%rsp),%rdx
    dbfc:	4c 8b 44 24 38       	mov    0x38(%rsp),%r8
    dc01:	48 89 c6             	mov    %rax,%rsi
    dc04:	8a 42 20             	mov    0x20(%rdx),%al
    dc07:	c0 e8 02             	shr    $0x2,%al
    dc0a:	83 e0 07             	and    $0x7,%eax
    dc0d:	44 39 f8             	cmp    %r15d,%eax
    dc10:	75 28                	jne    dc3a <__pyx_pw_4main_9calibrate_btn_1+0x4ea>
    dc12:	8a 4c 24 1c          	mov    0x1c(%rsp),%cl
    dc16:	48 8b 44 24 10       	mov    0x10(%rsp),%rax
    dc1b:	4c 89 c2             	mov    %r8,%rdx
    dc1e:	48 d3 e0             	shl    %cl,%rax
    dc21:	48 8b 4c 24 28       	mov    0x28(%rsp),%rcx
    dc26:	48 01 c8             	add    %rcx,%rax
    dc29:	8a 4c 24 1c          	mov    0x1c(%rsp),%cl
    dc2d:	48 89 c7             	mov    %rax,%rdi
    dc30:	48 d3 e2             	shl    %cl,%rdx
    dc33:	48 89 d1             	mov    %rdx,%rcx
    dc36:	f3 a4                	rep movsb %ds:(%rsi),%es:(%rdi)
    dc38:	eb 19                	jmp    dc53 <__pyx_pw_4main_9calibrate_btn_1+0x503>
    dc3a:	48 8b 74 24 10       	mov    0x10(%rsp),%rsi
    dc3f:	31 c9                	xor    %ecx,%ecx
    dc41:	4c 89 ef             	mov    %r13,%rdi
    dc44:	4c 89 44 24 30       	mov    %r8,0x30(%rsp)
    dc49:	e8 32 64 ff ff       	call   4080 <_PyUnicode_FastCopyCharacters@plt>
    dc4e:	4c 8b 44 24 30       	mov    0x30(%rsp),%r8
    dc53:	4c 01 44 24 10       	add    %r8,0x10(%rsp)
    dc58:	49 ff c6             	inc    %r14
    dc5b:	49 83 fe 03          	cmp    $0x3,%r14
    dc5f:	0f 85 a8 fe ff ff    	jne    db0d <__pyx_pw_4main_9calibrate_btn_1+0x3bd>
    dc65:	48 8b 03             	mov    (%rbx),%rax
    dc68:	85 c0                	test   %eax,%eax
    dc6a:	78 10                	js     dc7c <__pyx_pw_4main_9calibrate_btn_1+0x52c>
    dc6c:	48 ff c8             	dec    %rax
    dc6f:	48 89 03             	mov    %rax,(%rbx)
    dc72:	75 08                	jne    dc7c <__pyx_pw_4main_9calibrate_btn_1+0x52c>
    dc74:	48 89 df             	mov    %rbx,%rdi
    dc77:	e8 d4 69 ff ff       	call   4650 <_Py_Dealloc@plt>
    dc7c:	31 d2                	xor    %edx,%edx
    dc7e:	31 f6                	xor    %esi,%esi
    dc80:	4c 89 ef             	mov    %r13,%rdi
    dc83:	e8 18 64 ff ff       	call   40a0 <PyUnicode_AsEncodedString@plt>
    dc88:	48 89 c3             	mov    %rax,%rbx
    dc8b:	48 85 c0             	test   %rax,%rax
    dc8e:	0f 84 ea 02 00 00    	je     df7e <__pyx_pw_4main_9calibrate_btn_1+0x82e>
    dc94:	49 8b 45 00          	mov    0x0(%r13),%rax
    dc98:	85 c0                	test   %eax,%eax
    dc9a:	78 11                	js     dcad <__pyx_pw_4main_9calibrate_btn_1+0x55d>
    dc9c:	48 ff c8             	dec    %rax
    dc9f:	49 89 45 00          	mov    %rax,0x0(%r13)
    dca3:	75 08                	jne    dcad <__pyx_pw_4main_9calibrate_btn_1+0x55d>
    dca5:	4c 89 ef             	mov    %r13,%rdi
    dca8:	e8 a3 69 ff ff       	call   4650 <_Py_Dealloc@plt>
    dcad:	4c 8d 35 2c 9a 00 00 	lea    0x9a2c(%rip),%r14        # 176e0 <PyMethod_Type@@Base>
    dcb4:	45 31 ff             	xor    %r15d,%r15d
    dcb7:	45 31 ed             	xor    %r13d,%r13d
    dcba:	4c 39 75 08          	cmp    %r14,0x8(%rbp)
    dcbe:	75 57                	jne    dd17 <__pyx_pw_4main_9calibrate_btn_1+0x5c7>
    dcc0:	48 89 ef             	mov    %rbp,%rdi
    dcc3:	e8 26 e6 ff ff       	call   c2ee <PyMethod_GET_SELF>
    dcc8:	49 89 c7             	mov    %rax,%r15
    dccb:	48 85 c0             	test   %rax,%rax
    dcce:	74 47                	je     dd17 <__pyx_pw_4main_9calibrate_btn_1+0x5c7>
    dcd0:	48 89 ef             	mov    %rbp,%rdi
    dcd3:	e8 48 e6 ff ff       	call   c320 <PyMethod_GET_FUNCTION>
    dcd8:	41 8b 17             	mov    (%r15),%edx
    dcdb:	49 89 c5             	mov    %rax,%r13
    dcde:	ff c2                	inc    %edx
    dce0:	74 03                	je     dce5 <__pyx_pw_4main_9calibrate_btn_1+0x595>
    dce2:	41 89 17             	mov    %edx,(%r15)
    dce5:	41 8b 55 00          	mov    0x0(%r13),%edx
    dce9:	ff c2                	inc    %edx
    dceb:	74 04                	je     dcf1 <__pyx_pw_4main_9calibrate_btn_1+0x5a1>
    dced:	41 89 55 00          	mov    %edx,0x0(%r13)
    dcf1:	48 8b 55 00          	mov    0x0(%rbp),%rdx
    dcf5:	85 d2                	test   %edx,%edx
    dcf7:	78 09                	js     dd02 <__pyx_pw_4main_9calibrate_btn_1+0x5b2>
    dcf9:	48 ff ca             	dec    %rdx
    dcfc:	48 89 55 00          	mov    %rdx,0x0(%rbp)
    dd00:	74 0b                	je     dd0d <__pyx_pw_4main_9calibrate_btn_1+0x5bd>
    dd02:	4c 89 ed             	mov    %r13,%rbp
    dd05:	41 bd 01 00 00 00    	mov    $0x1,%r13d
    dd0b:	eb 0a                	jmp    dd17 <__pyx_pw_4main_9calibrate_btn_1+0x5c7>
    dd0d:	48 89 ef             	mov    %rbp,%rdi
    dd10:	e8 3b 69 ff ff       	call   4650 <_Py_Dealloc@plt>
    dd15:	eb eb                	jmp    dd02 <__pyx_pw_4main_9calibrate_btn_1+0x5b2>
    dd17:	44 89 e9             	mov    %r13d,%ecx
    dd1a:	48 8b 44 24 20       	mov    0x20(%rsp),%rax
    dd1f:	41 8d 55 01          	lea    0x1(%r13),%edx
    dd23:	48 89 ef             	mov    %rbp,%rdi
    dd26:	83 f1 01             	xor    $0x1,%ecx
    dd29:	48 63 d2             	movslq %edx,%rdx
    dd2c:	4c 89 7c 24 48       	mov    %r15,0x48(%rsp)
    dd31:	48 63 c9             	movslq %ecx,%rcx
    dd34:	48 89 5c 24 50       	mov    %rbx,0x50(%rsp)
    dd39:	48 8d 34 c8          	lea    (%rax,%rcx,8),%rsi
    dd3d:	e8 59 f5 ff ff       	call   d29b <__Pyx_PyObject_FastCallDict.constprop.0>
    dd42:	4c 89 ff             	mov    %r15,%rdi
    dd45:	49 89 c5             	mov    %rax,%r13
    dd48:	e8 51 d9 ff ff       	call   b69e <Py_XDECREF>
    dd4d:	48 8b 03             	mov    (%rbx),%rax
    dd50:	85 c0                	test   %eax,%eax
    dd52:	78 10                	js     dd64 <__pyx_pw_4main_9calibrate_btn_1+0x614>
    dd54:	48 ff c8             	dec    %rax
    dd57:	48 89 03             	mov    %rax,(%rbx)
    dd5a:	75 08                	jne    dd64 <__pyx_pw_4main_9calibrate_btn_1+0x614>
    dd5c:	48 89 df             	mov    %rbx,%rdi
    dd5f:	e8 ec 68 ff ff       	call   4650 <_Py_Dealloc@plt>
    dd64:	4d 85 ed             	test   %r13,%r13
    dd67:	75 0d                	jne    dd76 <__pyx_pw_4main_9calibrate_btn_1+0x626>
    dd69:	31 db                	xor    %ebx,%ebx
    dd6b:	41 be dc 11 00 00    	mov    $0x11dc,%r14d
    dd71:	e9 0e 02 00 00       	jmp    df84 <__pyx_pw_4main_9calibrate_btn_1+0x834>
    dd76:	48 8b 45 00          	mov    0x0(%rbp),%rax
    dd7a:	85 c0                	test   %eax,%eax
    dd7c:	78 11                	js     dd8f <__pyx_pw_4main_9calibrate_btn_1+0x63f>
    dd7e:	48 ff c8             	dec    %rax
    dd81:	48 89 45 00          	mov    %rax,0x0(%rbp)
    dd85:	75 08                	jne    dd8f <__pyx_pw_4main_9calibrate_btn_1+0x63f>
    dd87:	48 89 ef             	mov    %rbp,%rdi
    dd8a:	e8 c1 68 ff ff       	call   4650 <_Py_Dealloc@plt>
    dd8f:	49 8b 45 00          	mov    0x0(%r13),%rax
    dd93:	85 c0                	test   %eax,%eax
    dd95:	78 11                	js     dda8 <__pyx_pw_4main_9calibrate_btn_1+0x658>
    dd97:	48 ff c8             	dec    %rax
    dd9a:	49 89 45 00          	mov    %rax,0x0(%r13)
    dd9e:	75 08                	jne    dda8 <__pyx_pw_4main_9calibrate_btn_1+0x658>
    dda0:	4c 89 ef             	mov    %r13,%rdi
    dda3:	e8 a8 68 ff ff       	call   4650 <_Py_Dealloc@plt>
    dda8:	48 8b 3d 69 a1 00 00 	mov    0xa169(%rip),%rdi        # 17f18 <__pyx_mstate_global_static+0x2b8>
    ddaf:	e8 d0 f3 ff ff       	call   d184 <__Pyx__GetModuleGlobalName>
    ddb4:	48 89 c5             	mov    %rax,%rbp
    ddb7:	48 85 c0             	test   %rax,%rax
    ddba:	0f 84 cc 01 00 00    	je     df8c <__pyx_pw_4main_9calibrate_btn_1+0x83c>
    ddc0:	48 8b 35 31 a1 00 00 	mov    0xa131(%rip),%rsi        # 17ef8 <__pyx_mstate_global_static+0x298>
    ddc7:	48 89 c7             	mov    %rax,%rdi
    ddca:	e8 ad d7 ff ff       	call   b57c <__Pyx_PyObject_GetAttrStr>
    ddcf:	48 89 c3             	mov    %rax,%rbx
    ddd2:	48 85 c0             	test   %rax,%rax
    ddd5:	0f 84 be 01 00 00    	je     df99 <__pyx_pw_4main_9calibrate_btn_1+0x849>
    dddb:	48 8b 45 00          	mov    0x0(%rbp),%rax
    dddf:	85 c0                	test   %eax,%eax
    dde1:	78 11                	js     ddf4 <__pyx_pw_4main_9calibrate_btn_1+0x6a4>
    dde3:	48 ff c8             	dec    %rax
    dde6:	48 89 45 00          	mov    %rax,0x0(%rbp)
    ddea:	75 08                	jne    ddf4 <__pyx_pw_4main_9calibrate_btn_1+0x6a4>
    ddec:	48 89 ef             	mov    %rbp,%rdi
    ddef:	e8 5c 68 ff ff       	call   4650 <_Py_Dealloc@plt>
    ddf4:	31 ed                	xor    %ebp,%ebp
    ddf6:	45 31 ff             	xor    %r15d,%r15d
    ddf9:	4c 39 73 08          	cmp    %r14,0x8(%rbx)
    ddfd:	75 52                	jne    de51 <__pyx_pw_4main_9calibrate_btn_1+0x701>
    ddff:	48 89 df             	mov    %rbx,%rdi
    de02:	e8 e7 e4 ff ff       	call   c2ee <PyMethod_GET_SELF>
    de07:	49 89 c7             	mov    %rax,%r15
    de0a:	48 85 c0             	test   %rax,%rax
    de0d:	74 42                	je     de51 <__pyx_pw_4main_9calibrate_btn_1+0x701>
    de0f:	48 89 df             	mov    %rbx,%rdi
    de12:	e8 09 e5 ff ff       	call   c320 <PyMethod_GET_FUNCTION>
    de17:	48 89 c5             	mov    %rax,%rbp
    de1a:	41 8b 07             	mov    (%r15),%eax
    de1d:	ff c0                	inc    %eax
    de1f:	74 03                	je     de24 <__pyx_pw_4main_9calibrate_btn_1+0x6d4>
    de21:	41 89 07             	mov    %eax,(%r15)
    de24:	8b 45 00             	mov    0x0(%rbp),%eax
    de27:	ff c0                	inc    %eax
    de29:	74 03                	je     de2e <__pyx_pw_4main_9calibrate_btn_1+0x6de>
    de2b:	89 45 00             	mov    %eax,0x0(%rbp)
    de2e:	48 8b 03             	mov    (%rbx),%rax
    de31:	85 c0                	test   %eax,%eax
    de33:	78 08                	js     de3d <__pyx_pw_4main_9calibrate_btn_1+0x6ed>
    de35:	48 ff c8             	dec    %rax
    de38:	48 89 03             	mov    %rax,(%rbx)
    de3b:	74 0a                	je     de47 <__pyx_pw_4main_9calibrate_btn_1+0x6f7>
    de3d:	48 89 eb             	mov    %rbp,%rbx
    de40:	bd 01 00 00 00       	mov    $0x1,%ebp
    de45:	eb 0a                	jmp    de51 <__pyx_pw_4main_9calibrate_btn_1+0x701>
    de47:	48 89 df             	mov    %rbx,%rdi
    de4a:	e8 01 68 ff ff       	call   4650 <_Py_Dealloc@plt>
    de4f:	eb ec                	jmp    de3d <__pyx_pw_4main_9calibrate_btn_1+0x6ed>
    de51:	48 63 d5             	movslq %ebp,%rdx
    de54:	83 f5 01             	xor    $0x1,%ebp
    de57:	31 c9                	xor    %ecx,%ecx
    de59:	48 89 df             	mov    %rbx,%rdi
    de5c:	48 63 ed             	movslq %ebp,%rbp
    de5f:	4c 89 7c 24 48       	mov    %r15,0x48(%rsp)
    de64:	48 8d 74 ec 48       	lea    0x48(%rsp,%rbp,8),%rsi
    de69:	48 89 4c 24 50       	mov    %rcx,0x50(%rsp)
    de6e:	e8 28 f4 ff ff       	call   d29b <__Pyx_PyObject_FastCallDict.constprop.0>
    de73:	4c 89 ff             	mov    %r15,%rdi
    de76:	48 89 c5             	mov    %rax,%rbp
    de79:	e8 20 d8 ff ff       	call   b69e <Py_XDECREF>
    de7e:	48 85 ed             	test   %rbp,%rbp
    de81:	75 0e                	jne    de91 <__pyx_pw_4main_9calibrate_btn_1+0x741>
    de83:	45 31 ed             	xor    %r13d,%r13d
    de86:	41 be 00 12 00 00    	mov    $0x1200,%r14d
    de8c:	e9 11 01 00 00       	jmp    dfa2 <__pyx_pw_4main_9calibrate_btn_1+0x852>
    de91:	48 8b 03             	mov    (%rbx),%rax
    de94:	85 c0                	test   %eax,%eax
    de96:	78 10                	js     dea8 <__pyx_pw_4main_9calibrate_btn_1+0x758>
    de98:	48 ff c8             	dec    %rax
    de9b:	48 89 03             	mov    %rax,(%rbx)
    de9e:	75 08                	jne    dea8 <__pyx_pw_4main_9calibrate_btn_1+0x758>
    dea0:	48 89 df             	mov    %rbx,%rdi
    dea3:	e8 a8 67 ff ff       	call   4650 <_Py_Dealloc@plt>
    dea8:	48 8b 45 00          	mov    0x0(%rbp),%rax
    deac:	85 c0                	test   %eax,%eax
    deae:	78 1d                	js     decd <__pyx_pw_4main_9calibrate_btn_1+0x77d>
    deb0:	48 ff c8             	dec    %rax
    deb3:	48 89 45 00          	mov    %rax,0x0(%rbp)
    deb7:	75 14                	jne    decd <__pyx_pw_4main_9calibrate_btn_1+0x77d>
    deb9:	48 89 ef             	mov    %rbp,%rdi
    debc:	e8 8f 67 ff ff       	call   4650 <_Py_Dealloc@plt>
    dec1:	eb 0a                	jmp    decd <__pyx_pw_4main_9calibrate_btn_1+0x77d>
    dec3:	31 d2                	xor    %edx,%edx
    dec5:	45 31 e4             	xor    %r12d,%r12d
    dec8:	48 89 54 24 08       	mov    %rdx,0x8(%rsp)
    decd:	8b 05 4d 9b 00 00    	mov    0x9b4d(%rip),%eax        # 17a20 <_Py_NoneStruct@@Base>
    ded3:	ff c0                	inc    %eax
    ded5:	74 06                	je     dedd <__pyx_pw_4main_9calibrate_btn_1+0x78d>
    ded7:	89 05 43 9b 00 00    	mov    %eax,0x9b43(%rip)        # 17a20 <_Py_NoneStruct@@Base>
    dedd:	48 8d 1d 3c 9b 00 00 	lea    0x9b3c(%rip),%rbx        # 17a20 <_Py_NoneStruct@@Base>
    dee4:	e9 f2 00 00 00       	jmp    dfdb <__pyx_pw_4main_9calibrate_btn_1+0x88b>
    dee9:	45 31 ed             	xor    %r13d,%r13d
    deec:	31 ed                	xor    %ebp,%ebp
    deee:	31 db                	xor    %ebx,%ebx
    def0:	45 31 e4             	xor    %r12d,%r12d
    def3:	41 be 65 11 00 00    	mov    $0x1165,%r14d
    def9:	41 bf 4c 00 00 00    	mov    $0x4c,%r15d
    deff:	e9 a4 00 00 00       	jmp    dfa8 <__pyx_pw_4main_9calibrate_btn_1+0x858>
    df04:	31 c0                	xor    %eax,%eax
    df06:	45 31 ed             	xor    %r13d,%r13d
    df09:	31 ed                	xor    %ebp,%ebp
    df0b:	31 db                	xor    %ebx,%ebx
    df0d:	48 89 44 24 08       	mov    %rax,0x8(%rsp)
    df12:	41 be 72 11 00 00    	mov    $0x1172,%r14d
    df18:	41 bf 4d 00 00 00    	mov    $0x4d,%r15d
    df1e:	e9 85 00 00 00       	jmp    dfa8 <__pyx_pw_4main_9calibrate_btn_1+0x858>
    df23:	45 31 ed             	xor    %r13d,%r13d
    df26:	31 ed                	xor    %ebp,%ebp
    df28:	31 db                	xor    %ebx,%ebx
    df2a:	41 be 94 11 00 00    	mov    $0x1194,%r14d
    df30:	41 bf 4e 00 00 00    	mov    $0x4e,%r15d
    df36:	eb 70                	jmp    dfa8 <__pyx_pw_4main_9calibrate_btn_1+0x858>
    df38:	45 31 ed             	xor    %r13d,%r13d
    df3b:	31 ed                	xor    %ebp,%ebp
    df3d:	41 be a0 11 00 00    	mov    $0x11a0,%r14d
    df43:	41 bf 4f 00 00 00    	mov    $0x4f,%r15d
    df49:	eb 5d                	jmp    dfa8 <__pyx_pw_4main_9calibrate_btn_1+0x858>
    df4b:	45 31 ed             	xor    %r13d,%r13d
    df4e:	31 ed                	xor    %ebp,%ebp
    df50:	41 be ab 11 00 00    	mov    $0x11ab,%r14d
    df56:	eb 2c                	jmp    df84 <__pyx_pw_4main_9calibrate_btn_1+0x834>
    df58:	45 31 ed             	xor    %r13d,%r13d
    df5b:	41 be ad 11 00 00    	mov    $0x11ad,%r14d
    df61:	eb 21                	jmp    df84 <__pyx_pw_4main_9calibrate_btn_1+0x834>
    df63:	45 31 ed             	xor    %r13d,%r13d
    df66:	41 be b0 11 00 00    	mov    $0x11b0,%r14d
    df6c:	eb 16                	jmp    df84 <__pyx_pw_4main_9calibrate_btn_1+0x834>
    df6e:	41 be b8 11 00 00    	mov    $0x11b8,%r14d
    df74:	eb 0e                	jmp    df84 <__pyx_pw_4main_9calibrate_btn_1+0x834>
    df76:	41 be c3 11 00 00    	mov    $0x11c3,%r14d
    df7c:	eb 06                	jmp    df84 <__pyx_pw_4main_9calibrate_btn_1+0x834>
    df7e:	41 be c6 11 00 00    	mov    $0x11c6,%r14d
    df84:	41 bf 50 00 00 00    	mov    $0x50,%r15d
    df8a:	eb 1c                	jmp    dfa8 <__pyx_pw_4main_9calibrate_btn_1+0x858>
    df8c:	45 31 ed             	xor    %r13d,%r13d
    df8f:	31 db                	xor    %ebx,%ebx
    df91:	41 be e9 11 00 00    	mov    $0x11e9,%r14d
    df97:	eb 09                	jmp    dfa2 <__pyx_pw_4main_9calibrate_btn_1+0x852>
    df99:	45 31 ed             	xor    %r13d,%r13d
    df9c:	41 be eb 11 00 00    	mov    $0x11eb,%r14d
    dfa2:	41 bf 51 00 00 00    	mov    $0x51,%r15d
    dfa8:	48 89 df             	mov    %rbx,%rdi
    dfab:	31 db                	xor    %ebx,%ebx
    dfad:	e8 ec d6 ff ff       	call   b69e <Py_XDECREF>
    dfb2:	48 89 ef             	mov    %rbp,%rdi
    dfb5:	e8 e4 d6 ff ff       	call   b69e <Py_XDECREF>
    dfba:	4c 89 ef             	mov    %r13,%rdi
    dfbd:	e8 dc d6 ff ff       	call   b69e <Py_XDECREF>
    dfc2:	48 8d 0d 4f 48 00 00 	lea    0x484f(%rip),%rcx        # 12818 <_IO_stdin_used+0x818>
    dfc9:	44 89 fa             	mov    %r15d,%edx
    dfcc:	44 89 f6             	mov    %r14d,%esi
    dfcf:	48 8d 3d 4a 48 00 00 	lea    0x484a(%rip),%rdi        # 12820 <_IO_stdin_used+0x820>
    dfd6:	e8 c7 f3 ff ff       	call   d3a2 <__Pyx_AddTraceback>
    dfdb:	48 8b 7c 24 08       	mov    0x8(%rsp),%rdi
    dfe0:	e8 b9 d6 ff ff       	call   b69e <Py_XDECREF>
    dfe5:	4c 89 e7             	mov    %r12,%rdi
    dfe8:	e8 b1 d6 ff ff       	call   b69e <Py_XDECREF>
    dfed:	48 8b 44 24 58       	mov    0x58(%rsp),%rax
    dff2:	64 48 2b 04 25 28 00 	sub    %fs:0x28,%rax
    dff9:	00 00 
    dffb:	74 05                	je     e002 <__pyx_pw_4main_9calibrate_btn_1+0x8b2>
    dffd:	e8 2e 65 ff ff       	call   4530 <__stack_chk_fail@plt>
    e002:	48 83 c4 68          	add    $0x68,%rsp
    e006:	48 89 d8             	mov    %rbx,%rax
    e009:	5b                   	pop    %rbx
    e00a:	5d                   	pop    %rbp
    e00b:	41 5c                	pop    %r12
    e00d:	41 5d                	pop    %r13
    e00f:	41 5e                	pop    %r14
    e011:	41 5f                	pop    %r15
    e013:	c3                   	ret

000000000000e014 <__pyx_pw_4main_7readbuttonvalues>:
    e014:	41 57                	push   %r15
    e016:	48 8d 05 8b 9e 00 00 	lea    0x9e8b(%rip),%rax        # 17ea8 <__pyx_mstate_global_static+0x248>
    e01d:	41 56                	push   %r14
    e01f:	41 55                	push   %r13
    e021:	41 54                	push   %r12
    e023:	55                   	push   %rbp
    e024:	53                   	push   %rbx
    e025:	31 db                	xor    %ebx,%ebx
    e027:	48 83 ec 68          	sub    $0x68,%rsp
    e02b:	64 4c 8b 24 25 28 00 	mov    %fs:0x28,%r12
    e032:	00 00 
    e034:	4c 89 64 24 58       	mov    %r12,0x58(%rsp)
    e039:	49 89 d4             	mov    %rdx,%r12
    e03c:	48 89 44 24 48       	mov    %rax,0x48(%rsp)
    e041:	48 8b 05 90 9c 00 00 	mov    0x9c90(%rip),%rax        # 17cd8 <__pyx_mstate_global_static+0x78>
    e048:	48 89 5c 24 50       	mov    %rbx,0x50(%rsp)
    e04d:	48 89 44 24 40       	mov    %rax,0x40(%rsp)
    e052:	48 85 c9             	test   %rcx,%rcx
    e055:	0f 84 93 03 00 00    	je     e3ee <__pyx_pw_4main_7readbuttonvalues+0x3da>
    e05b:	48 89 cb             	mov    %rcx,%rbx
    e05e:	4d 85 e4             	test   %r12,%r12
    e061:	74 12                	je     e075 <__pyx_pw_4main_7readbuttonvalues+0x61>
    e063:	49 83 fc 01          	cmp    $0x1,%r12
    e067:	0f 85 b8 1e 00 00    	jne    ff25 <__pyx_pw_4main_7readbuttonvalues+0x1f11>
    e06d:	48 8b 06             	mov    (%rsi),%rax
    e070:	48 89 44 24 40       	mov    %rax,0x40(%rsp)
    e075:	4e 8d 2c e5 00 00 00 	lea    0x0(,%r12,8),%r13
    e07c:	00 
    e07d:	48 89 df             	mov    %rbx,%rdi
    e080:	4a 8d 2c 2e          	lea    (%rsi,%r13,1),%rbp
    e084:	e8 48 dc ff ff       	call   bcd1 <PyTuple_GET_SIZE>
    e089:	49 89 c6             	mov    %rax,%r14
    e08c:	4d 85 e4             	test   %r12,%r12
    e08f:	0f 85 f1 00 00 00    	jne    e186 <__pyx_pw_4main_7readbuttonvalues+0x172>
    e095:	48 85 c0             	test   %rax,%rax
    e098:	0f 8e 67 03 00 00    	jle    e405 <__pyx_pw_4main_7readbuttonvalues+0x3f1>
    e09e:	48 8b 43 08          	mov    0x8(%rbx),%rax
    e0a2:	48 8b 15 ff 9d 00 00 	mov    0x9dff(%rip),%rdx        # 17ea8 <__pyx_mstate_global_static+0x248>
    e0a9:	45 31 ff             	xor    %r15d,%r15d
    e0ac:	f6 80 ab 00 00 00 04 	testb  $0x4,0xab(%rax)
    e0b3:	75 1a                	jne    e0cf <__pyx_pw_4main_7readbuttonvalues+0xbb>
    e0b5:	48 8d 0d 04 4f 00 00 	lea    0x4f04(%rip),%rcx        # 12fc0 <__PRETTY_FUNCTION__.26>
    e0bc:	ba e4 19 00 00       	mov    $0x19e4,%edx
    e0c1:	eb 5b                	jmp    e11e <__pyx_pw_4main_7readbuttonvalues+0x10a>
    e0c3:	49 8d 47 01          	lea    0x1(%r15),%rax
    e0c7:	49 39 c6             	cmp    %rax,%r14
    e0ca:	74 39                	je     e105 <__pyx_pw_4main_7readbuttonvalues+0xf1>
    e0cc:	49 89 c7             	mov    %rax,%r15
    e0cf:	4a 3b 54 fb 18       	cmp    0x18(%rbx,%r15,8),%rdx
    e0d4:	75 ed                	jne    e0c3 <__pyx_pw_4main_7readbuttonvalues+0xaf>
    e0d6:	4a 8b 44 fd 00       	mov    0x0(%rbp,%r15,8),%rax
    e0db:	eb 5b                	jmp    e138 <__pyx_pw_4main_7readbuttonvalues+0x124>
    e0dd:	4a 8b 74 e3 18       	mov    0x18(%rbx,%r12,8),%rsi
    e0e2:	48 89 d7             	mov    %rdx,%rdi
    e0e5:	48 89 54 24 08       	mov    %rdx,0x8(%rsp)
    e0ea:	e8 60 e9 ff ff       	call   ca4f <__Pyx_PyUnicode_Equals.constprop.0>
    e0ef:	48 8b 54 24 08       	mov    0x8(%rsp),%rdx
    e0f4:	85 c0                	test   %eax,%eax
    e0f6:	75 39                	jne    e131 <__pyx_pw_4main_7readbuttonvalues+0x11d>
    e0f8:	49 8d 44 24 01       	lea    0x1(%r12),%rax
    e0fd:	4d 39 fc             	cmp    %r15,%r12
    e100:	74 45                	je     e147 <__pyx_pw_4main_7readbuttonvalues+0x133>
    e102:	49 89 c4             	mov    %rax,%r12
    e105:	48 8b 43 08          	mov    0x8(%rbx),%rax
    e109:	f6 80 ab 00 00 00 04 	testb  $0x4,0xab(%rax)
    e110:	75 cb                	jne    e0dd <__pyx_pw_4main_7readbuttonvalues+0xc9>
    e112:	48 8d 0d a7 4e 00 00 	lea    0x4ea7(%rip),%rcx        # 12fc0 <__PRETTY_FUNCTION__.26>
    e119:	ba e8 19 00 00       	mov    $0x19e8,%edx
    e11e:	48 8d 35 3f 3f 00 00 	lea    0x3f3f(%rip),%rsi        # 12064 <_IO_stdin_used+0x64>
    e125:	48 8d 3d 1a 47 00 00 	lea    0x471a(%rip),%rdi        # 12846 <_IO_stdin_used+0x846>
    e12c:	e8 ef 5f ff ff       	call   4120 <__assert_fail@plt>
    e131:	78 14                	js     e147 <__pyx_pw_4main_7readbuttonvalues+0x133>
    e133:	4a 8b 44 e5 00       	mov    0x0(%rbp,%r12,8),%rax
    e138:	48 85 c0             	test   %rax,%rax
    e13b:	74 0a                	je     e147 <__pyx_pw_4main_7readbuttonvalues+0x133>
    e13d:	48 89 44 24 40       	mov    %rax,0x40(%rsp)
    e142:	49 ff ce             	dec    %r14
    e145:	eb 3f                	jmp    e186 <__pyx_pw_4main_7readbuttonvalues+0x172>
    e147:	e8 a4 61 ff ff       	call   42f0 <PyErr_Occurred@plt>
    e14c:	48 85 c0             	test   %rax,%rax
    e14f:	0f 85 22 1e 00 00    	jne    ff77 <__pyx_pw_4main_7readbuttonvalues+0x1f63>
    e155:	48 8b 43 08          	mov    0x8(%rbx),%rax
    e159:	45 31 db             	xor    %r11d,%r11d
    e15c:	4c 8d 64 24 48       	lea    0x48(%rsp),%r12
    e161:	4c 89 5c 24 28       	mov    %r11,0x28(%rsp)
    e166:	4d 01 e5             	add    %r12,%r13
    e169:	48 8b 80 a8 00 00 00 	mov    0xa8(%rax),%rax
    e170:	4c 89 5c 24 30       	mov    %r11,0x30(%rsp)
    e175:	4c 89 5c 24 38       	mov    %r11,0x38(%rsp)
    e17a:	25 00 00 00 04       	and    $0x4000000,%eax
    e17f:	48 89 44 24 18       	mov    %rax,0x18(%rsp)
    e184:	eb 25                	jmp    e1ab <__pyx_pw_4main_7readbuttonvalues+0x197>
    e186:	4d 85 f6             	test   %r14,%r14
    e189:	0f 8e 76 02 00 00    	jle    e405 <__pyx_pw_4main_7readbuttonvalues+0x3f1>
    e18f:	eb c4                	jmp    e155 <__pyx_pw_4main_7readbuttonvalues+0x141>
    e191:	48 8b 54 24 30       	mov    0x30(%rsp),%rdx
    e196:	45 31 c0             	xor    %r8d,%r8d
    e199:	4c 29 e0             	sub    %r12,%rax
    e19c:	4c 89 44 24 28       	mov    %r8,0x28(%rsp)
    e1a1:	48 89 54 04 40       	mov    %rdx,0x40(%rsp,%rax,1)
    e1a6:	4c 89 44 24 30       	mov    %r8,0x30(%rsp)
    e1ab:	48 8b 7c 24 28       	mov    0x28(%rsp),%rdi
    e1b0:	e8 e9 d4 ff ff       	call   b69e <Py_XDECREF>
    e1b5:	48 8b 7c 24 30       	mov    0x30(%rsp),%rdi
    e1ba:	45 31 c9             	xor    %r9d,%r9d
    e1bd:	4c 89 4c 24 28       	mov    %r9,0x28(%rsp)
    e1c2:	e8 d7 d4 ff ff       	call   b69e <Py_XDECREF>
    e1c7:	45 31 d2             	xor    %r10d,%r10d
    e1ca:	48 83 7c 24 18 00    	cmpq   $0x0,0x18(%rsp)
    e1d0:	4c 89 54 24 30       	mov    %r10,0x30(%rsp)
    e1d5:	74 63                	je     e23a <__pyx_pw_4main_7readbuttonvalues+0x226>
    e1d7:	48 89 df             	mov    %rbx,%rdi
    e1da:	e8 f2 da ff ff       	call   bcd1 <PyTuple_GET_SIZE>
    e1df:	48 89 c2             	mov    %rax,%rdx
    e1e2:	48 8b 44 24 38       	mov    0x38(%rsp),%rax
    e1e7:	48 39 c2             	cmp    %rax,%rdx
    e1ea:	0f 8e ca 01 00 00    	jle    e3ba <__pyx_pw_4main_7readbuttonvalues+0x3a6>
    e1f0:	48 8b 53 08          	mov    0x8(%rbx),%rdx
    e1f4:	f6 82 ab 00 00 00 04 	testb  $0x4,0xab(%rdx)
    e1fb:	75 1f                	jne    e21c <__pyx_pw_4main_7readbuttonvalues+0x208>
    e1fd:	48 8d 0d 6c 4d 00 00 	lea    0x4d6c(%rip),%rcx        # 12f70 <__PRETTY_FUNCTION__.23>
    e204:	ba 96 1c 00 00       	mov    $0x1c96,%edx
    e209:	48 8d 35 54 3e 00 00 	lea    0x3e54(%rip),%rsi        # 12064 <_IO_stdin_used+0x64>
    e210:	48 8d 3d 46 46 00 00 	lea    0x4646(%rip),%rdi        # 1285d <_IO_stdin_used+0x85d>
    e217:	e9 10 ff ff ff       	jmp    e12c <__pyx_pw_4main_7readbuttonvalues+0x118>
    e21c:	48 8b 54 c3 18       	mov    0x18(%rbx,%rax,8),%rdx
    e221:	48 89 54 24 28       	mov    %rdx,0x28(%rsp)
    e226:	48 8b 54 c5 00       	mov    0x0(%rbp,%rax,8),%rdx
    e22b:	48 ff c0             	inc    %rax
    e22e:	48 89 44 24 38       	mov    %rax,0x38(%rsp)
    e233:	48 89 54 24 30       	mov    %rdx,0x30(%rsp)
    e238:	eb 1f                	jmp    e259 <__pyx_pw_4main_7readbuttonvalues+0x245>
    e23a:	48 8d 4c 24 30       	lea    0x30(%rsp),%rcx
    e23f:	48 8d 54 24 28       	lea    0x28(%rsp),%rdx
    e244:	48 89 df             	mov    %rbx,%rdi
    e247:	48 8d 74 24 38       	lea    0x38(%rsp),%rsi
    e24c:	e8 ff 5f ff ff       	call   4250 <PyDict_Next@plt>
    e251:	85 c0                	test   %eax,%eax
    e253:	0f 84 61 01 00 00    	je     e3ba <__pyx_pw_4main_7readbuttonvalues+0x3a6>
    e259:	48 8b 54 24 28       	mov    0x28(%rsp),%rdx
    e25e:	4c 89 e8             	mov    %r13,%rax
    e261:	48 8b 08             	mov    (%rax),%rcx
    e264:	48 85 c9             	test   %rcx,%rcx
    e267:	74 0f                	je     e278 <__pyx_pw_4main_7readbuttonvalues+0x264>
    e269:	48 39 11             	cmp    %rdx,(%rcx)
    e26c:	0f 84 1f ff ff ff    	je     e191 <__pyx_pw_4main_7readbuttonvalues+0x17d>
    e272:	48 83 c0 08          	add    $0x8,%rax
    e276:	eb e9                	jmp    e261 <__pyx_pw_4main_7readbuttonvalues+0x24d>
    e278:	8b 02                	mov    (%rdx),%eax
    e27a:	48 8b 4c 24 30       	mov    0x30(%rsp),%rcx
    e27f:	ff c0                	inc    %eax
    e281:	74 02                	je     e285 <__pyx_pw_4main_7readbuttonvalues+0x271>
    e283:	89 02                	mov    %eax,(%rdx)
    e285:	8b 01                	mov    (%rcx),%eax
    e287:	ff c0                	inc    %eax
    e289:	74 02                	je     e28d <__pyx_pw_4main_7readbuttonvalues+0x279>
    e28b:	89 01                	mov    %eax,(%rcx)
    e28d:	48 8b 42 08          	mov    0x8(%rdx),%rax
    e291:	f6 80 ab 00 00 00 10 	testb  $0x10,0xab(%rax)
    e298:	0f 84 dd 00 00 00    	je     e37b <__pyx_pw_4main_7readbuttonvalues+0x367>
    e29e:	4d 89 ee             	mov    %r13,%r14
    e2a1:	48 8b 4c 24 28       	mov    0x28(%rsp),%rcx
    e2a6:	49 8b 06             	mov    (%r14),%rax
    e2a9:	48 89 4c 24 10       	mov    %rcx,0x10(%rsp)
    e2ae:	48 85 c0             	test   %rax,%rax
    e2b1:	0f 84 86 00 00 00    	je     e33d <__pyx_pw_4main_7readbuttonvalues+0x329>
    e2b7:	48 8b 00             	mov    (%rax),%rax
    e2ba:	48 89 c7             	mov    %rax,%rdi
    e2bd:	48 89 44 24 08       	mov    %rax,0x8(%rsp)
    e2c2:	e8 5a d9 ff ff       	call   bc21 <PyUnicode_GET_LENGTH>
    e2c7:	48 8b 7c 24 10       	mov    0x10(%rsp),%rdi
    e2cc:	49 89 c7             	mov    %rax,%r15
    e2cf:	e8 4d d9 ff ff       	call   bc21 <PyUnicode_GET_LENGTH>
    e2d4:	49 39 c7             	cmp    %rax,%r15
    e2d7:	75 36                	jne    e30f <__pyx_pw_4main_7readbuttonvalues+0x2fb>
    e2d9:	48 8b 74 24 10       	mov    0x10(%rsp),%rsi
    e2de:	48 8b 7c 24 08       	mov    0x8(%rsp),%rdi
    e2e3:	e8 78 5d ff ff       	call   4060 <PyUnicode_Compare@plt>
    e2e8:	85 c0                	test   %eax,%eax
    e2ea:	79 0f                	jns    e2fb <__pyx_pw_4main_7readbuttonvalues+0x2e7>
    e2ec:	e8 ff 5f ff ff       	call   42f0 <PyErr_Occurred@plt>
    e2f1:	48 85 c0             	test   %rax,%rax
    e2f4:	74 19                	je     e30f <__pyx_pw_4main_7readbuttonvalues+0x2fb>
    e2f6:	e9 d5 00 00 00       	jmp    e3d0 <__pyx_pw_4main_7readbuttonvalues+0x3bc>
    e2fb:	75 12                	jne    e30f <__pyx_pw_4main_7readbuttonvalues+0x2fb>
    e2fd:	48 8b 44 24 30       	mov    0x30(%rsp),%rax
    e302:	4d 29 e6             	sub    %r12,%r14
    e305:	4a 89 44 34 40       	mov    %rax,0x40(%rsp,%r14,1)
    e30a:	e9 9c fe ff ff       	jmp    e1ab <__pyx_pw_4main_7readbuttonvalues+0x197>
    e30f:	49 83 c6 08          	add    $0x8,%r14
    e313:	eb 8c                	jmp    e2a1 <__pyx_pw_4main_7readbuttonvalues+0x28d>
    e315:	49 8b 04 24          	mov    (%r12),%rax
    e319:	48 8b 28             	mov    (%rax),%rbp
    e31c:	48 39 dd             	cmp    %rbx,%rbp
    e31f:	74 39                	je     e35a <__pyx_pw_4main_7readbuttonvalues+0x346>
    e321:	48 89 ef             	mov    %rbp,%rdi
    e324:	e8 f8 d8 ff ff       	call   bc21 <PyUnicode_GET_LENGTH>
    e329:	48 89 df             	mov    %rbx,%rdi
    e32c:	49 89 c6             	mov    %rax,%r14
    e32f:	e8 ed d8 ff ff       	call   bc21 <PyUnicode_GET_LENGTH>
    e334:	49 39 c6             	cmp    %rax,%r14
    e337:	74 10                	je     e349 <__pyx_pw_4main_7readbuttonvalues+0x335>
    e339:	49 83 c4 08          	add    $0x8,%r12
    e33d:	48 8b 5c 24 28       	mov    0x28(%rsp),%rbx
    e342:	4d 39 e5             	cmp    %r12,%r13
    e345:	75 ce                	jne    e315 <__pyx_pw_4main_7readbuttonvalues+0x301>
    e347:	eb 50                	jmp    e399 <__pyx_pw_4main_7readbuttonvalues+0x385>
    e349:	48 89 de             	mov    %rbx,%rsi
    e34c:	48 89 ef             	mov    %rbp,%rdi
    e34f:	e8 0c 5d ff ff       	call   4060 <PyUnicode_Compare@plt>
    e354:	85 c0                	test   %eax,%eax
    e356:	78 17                	js     e36f <__pyx_pw_4main_7readbuttonvalues+0x35b>
    e358:	75 df                	jne    e339 <__pyx_pw_4main_7readbuttonvalues+0x325>
    e35a:	48 8b 4c 24 28       	mov    0x28(%rsp),%rcx
    e35f:	48 8d 15 92 45 00 00 	lea    0x4592(%rip),%rdx        # 128f8 <_IO_stdin_used+0x8f8>
    e366:	48 8d 35 04 45 00 00 	lea    0x4504(%rip),%rsi        # 12871 <_IO_stdin_used+0x871>
    e36d:	eb 3b                	jmp    e3aa <__pyx_pw_4main_7readbuttonvalues+0x396>
    e36f:	e8 7c 5f ff ff       	call   42f0 <PyErr_Occurred@plt>
    e374:	48 85 c0             	test   %rax,%rax
    e377:	74 c0                	je     e339 <__pyx_pw_4main_7readbuttonvalues+0x325>
    e379:	eb 55                	jmp    e3d0 <__pyx_pw_4main_7readbuttonvalues+0x3bc>
    e37b:	48 8b 3d 9e 8a 00 00 	mov    0x8a9e(%rip),%rdi        # 16e20 <PyExc_TypeError@@Base>
    e382:	48 8d 15 6f 45 00 00 	lea    0x456f(%rip),%rdx        # 128f8 <_IO_stdin_used+0x8f8>
    e389:	48 8d 35 14 45 00 00 	lea    0x4514(%rip),%rsi        # 128a4 <_IO_stdin_used+0x8a4>
    e390:	31 c0                	xor    %eax,%eax
    e392:	e8 f9 5e ff ff       	call   4290 <PyErr_Format@plt>
    e397:	eb 37                	jmp    e3d0 <__pyx_pw_4main_7readbuttonvalues+0x3bc>
    e399:	48 89 d9             	mov    %rbx,%rcx
    e39c:	48 8d 15 55 45 00 00 	lea    0x4555(%rip),%rdx        # 128f8 <_IO_stdin_used+0x8f8>
    e3a3:	48 8d 35 1c 45 00 00 	lea    0x451c(%rip),%rsi        # 128c6 <_IO_stdin_used+0x8c6>
    e3aa:	48 8b 3d 6f 8a 00 00 	mov    0x8a6f(%rip),%rdi        # 16e20 <PyExc_TypeError@@Base>
    e3b1:	31 c0                	xor    %eax,%eax
    e3b3:	e8 d8 5e ff ff       	call   4290 <PyErr_Format@plt>
    e3b8:	eb 16                	jmp    e3d0 <__pyx_pw_4main_7readbuttonvalues+0x3bc>
    e3ba:	48 8b 7c 24 28       	mov    0x28(%rsp),%rdi
    e3bf:	e8 da d2 ff ff       	call   b69e <Py_XDECREF>
    e3c4:	48 8b 7c 24 30       	mov    0x30(%rsp),%rdi
    e3c9:	e8 d0 d2 ff ff       	call   b69e <Py_XDECREF>
    e3ce:	eb 35                	jmp    e405 <__pyx_pw_4main_7readbuttonvalues+0x3f1>
    e3d0:	48 8b 7c 24 28       	mov    0x28(%rsp),%rdi
    e3d5:	e8 c4 d2 ff ff       	call   b69e <Py_XDECREF>
    e3da:	48 8b 7c 24 30       	mov    0x30(%rsp),%rdi
    e3df:	e8 ba d2 ff ff       	call   b69e <Py_XDECREF>
    e3e4:	be ab 0e 00 00       	mov    $0xeab,%esi
    e3e9:	e9 8e 1b 00 00       	jmp    ff7c <__pyx_pw_4main_7readbuttonvalues+0x1f68>
    e3ee:	4d 85 e4             	test   %r12,%r12
    e3f1:	74 12                	je     e405 <__pyx_pw_4main_7readbuttonvalues+0x3f1>
    e3f3:	49 83 fc 01          	cmp    $0x1,%r12
    e3f7:	0f 85 28 1b 00 00    	jne    ff25 <__pyx_pw_4main_7readbuttonvalues+0x1f11>
    e3fd:	48 8b 06             	mov    (%rsi),%rax
    e400:	48 89 44 24 40       	mov    %rax,0x40(%rsp)
    e405:	48 8b 44 24 40       	mov    0x40(%rsp),%rax
    e40a:	48 8b 3d 3f 9a 00 00 	mov    0x9a3f(%rip),%rdi        # 17e50 <__pyx_mstate_global_static+0x1f0>
    e411:	48 89 44 24 08       	mov    %rax,0x8(%rsp)
    e416:	e8 69 ed ff ff       	call   d184 <__Pyx__GetModuleGlobalName>
    e41b:	49 89 c7             	mov    %rax,%r15
    e41e:	48 85 c0             	test   %rax,%rax
    e421:	0f 84 2c 15 00 00    	je     f953 <__pyx_pw_4main_7readbuttonvalues+0x193f>
    e427:	48 8b 3d 82 99 00 00 	mov    0x9982(%rip),%rdi        # 17db0 <__pyx_mstate_global_static+0x150>
    e42e:	e8 51 ed ff ff       	call   d184 <__Pyx__GetModuleGlobalName>
    e433:	48 89 c5             	mov    %rax,%rbp
    e436:	48 85 c0             	test   %rax,%rax
    e439:	0f 84 23 15 00 00    	je     f962 <__pyx_pw_4main_7readbuttonvalues+0x194e>
    e43f:	48 89 c6             	mov    %rax,%rsi
    e442:	4c 89 ff             	mov    %r15,%rdi
    e445:	e8 56 60 ff ff       	call   44a0 <PyNumber_Add@plt>
    e44a:	49 89 c4             	mov    %rax,%r12
    e44d:	48 85 c0             	test   %rax,%rax
    e450:	0f 84 22 15 00 00    	je     f978 <__pyx_pw_4main_7readbuttonvalues+0x1964>
    e456:	49 8b 07             	mov    (%r15),%rax
    e459:	85 c0                	test   %eax,%eax
    e45b:	78 10                	js     e46d <__pyx_pw_4main_7readbuttonvalues+0x459>
    e45d:	48 ff c8             	dec    %rax
    e460:	49 89 07             	mov    %rax,(%r15)
    e463:	75 08                	jne    e46d <__pyx_pw_4main_7readbuttonvalues+0x459>
    e465:	4c 89 ff             	mov    %r15,%rdi
    e468:	e8 e3 61 ff ff       	call   4650 <_Py_Dealloc@plt>
    e46d:	48 8b 45 00          	mov    0x0(%rbp),%rax
    e471:	85 c0                	test   %eax,%eax
    e473:	78 11                	js     e486 <__pyx_pw_4main_7readbuttonvalues+0x472>
    e475:	48 ff c8             	dec    %rax
    e478:	48 89 45 00          	mov    %rax,0x0(%rbp)
    e47c:	75 08                	jne    e486 <__pyx_pw_4main_7readbuttonvalues+0x472>
    e47e:	48 89 ef             	mov    %rbp,%rdi
    e481:	e8 ca 61 ff ff       	call   4650 <_Py_Dealloc@plt>
    e486:	48 8b 3d eb 9a 00 00 	mov    0x9aeb(%rip),%rdi        # 17f78 <__pyx_mstate_global_static+0x318>
    e48d:	e8 f2 ec ff ff       	call   d184 <__Pyx__GetModuleGlobalName>
    e492:	49 89 c7             	mov    %rax,%r15
    e495:	48 85 c0             	test   %rax,%rax
    e498:	0f 84 e4 14 00 00    	je     f982 <__pyx_pw_4main_7readbuttonvalues+0x196e>
    e49e:	48 8b 35 d3 9a 00 00 	mov    0x9ad3(%rip),%rsi        # 17f78 <__pyx_mstate_global_static+0x318>
    e4a5:	48 89 c7             	mov    %rax,%rdi
    e4a8:	e8 cf d0 ff ff       	call   b57c <__Pyx_PyObject_GetAttrStr>
    e4ad:	48 89 c3             	mov    %rax,%rbx
    e4b0:	48 85 c0             	test   %rax,%rax
    e4b3:	0f 84 d5 14 00 00    	je     f98e <__pyx_pw_4main_7readbuttonvalues+0x197a>
    e4b9:	49 8b 07             	mov    (%r15),%rax
    e4bc:	85 c0                	test   %eax,%eax
    e4be:	78 10                	js     e4d0 <__pyx_pw_4main_7readbuttonvalues+0x4bc>
    e4c0:	48 ff c8             	dec    %rax
    e4c3:	49 89 07             	mov    %rax,(%r15)
    e4c6:	75 08                	jne    e4d0 <__pyx_pw_4main_7readbuttonvalues+0x4bc>
    e4c8:	4c 89 ff             	mov    %r15,%rdi
    e4cb:	e8 80 61 ff ff       	call   4650 <_Py_Dealloc@plt>
    e4d0:	4c 8d 35 09 92 00 00 	lea    0x9209(%rip),%r14        # 176e0 <PyMethod_Type@@Base>
    e4d7:	31 ed                	xor    %ebp,%ebp
    e4d9:	45 31 ff             	xor    %r15d,%r15d
    e4dc:	4c 39 73 08          	cmp    %r14,0x8(%rbx)
    e4e0:	75 52                	jne    e534 <__pyx_pw_4main_7readbuttonvalues+0x520>
    e4e2:	48 89 df             	mov    %rbx,%rdi
    e4e5:	e8 04 de ff ff       	call   c2ee <PyMethod_GET_SELF>
    e4ea:	49 89 c7             	mov    %rax,%r15
    e4ed:	48 85 c0             	test   %rax,%rax
    e4f0:	74 42                	je     e534 <__pyx_pw_4main_7readbuttonvalues+0x520>
    e4f2:	48 89 df             	mov    %rbx,%rdi
    e4f5:	e8 26 de ff ff       	call   c320 <PyMethod_GET_FUNCTION>
    e4fa:	48 89 c5             	mov    %rax,%rbp
    e4fd:	41 8b 07             	mov    (%r15),%eax
    e500:	ff c0                	inc    %eax
    e502:	74 03                	je     e507 <__pyx_pw_4main_7readbuttonvalues+0x4f3>
    e504:	41 89 07             	mov    %eax,(%r15)
    e507:	8b 45 00             	mov    0x0(%rbp),%eax
    e50a:	ff c0                	inc    %eax
    e50c:	74 03                	je     e511 <__pyx_pw_4main_7readbuttonvalues+0x4fd>
    e50e:	89 45 00             	mov    %eax,0x0(%rbp)
    e511:	48 8b 03             	mov    (%rbx),%rax
    e514:	85 c0                	test   %eax,%eax
    e516:	78 08                	js     e520 <__pyx_pw_4main_7readbuttonvalues+0x50c>
    e518:	48 ff c8             	dec    %rax
    e51b:	48 89 03             	mov    %rax,(%rbx)
    e51e:	74 0a                	je     e52a <__pyx_pw_4main_7readbuttonvalues+0x516>
    e520:	48 89 eb             	mov    %rbp,%rbx
    e523:	bd 01 00 00 00       	mov    $0x1,%ebp
    e528:	eb 0a                	jmp    e534 <__pyx_pw_4main_7readbuttonvalues+0x520>
    e52a:	48 89 df             	mov    %rbx,%rdi
    e52d:	e8 1e 61 ff ff       	call   4650 <_Py_Dealloc@plt>
    e532:	eb ec                	jmp    e520 <__pyx_pw_4main_7readbuttonvalues+0x50c>
    e534:	48 63 d5             	movslq %ebp,%rdx
    e537:	83 f5 01             	xor    $0x1,%ebp
    e53a:	31 ff                	xor    %edi,%edi
    e53c:	4c 89 7c 24 48       	mov    %r15,0x48(%rsp)
    e541:	48 63 ed             	movslq %ebp,%rbp
    e544:	4c 8d 6c 24 48       	lea    0x48(%rsp),%r13
    e549:	48 89 7c 24 50       	mov    %rdi,0x50(%rsp)
    e54e:	48 89 df             	mov    %rbx,%rdi
    e551:	49 8d 74 ed 00       	lea    0x0(%r13,%rbp,8),%rsi
    e556:	e8 40 ed ff ff       	call   d29b <__Pyx_PyObject_FastCallDict.constprop.0>
    e55b:	4c 89 ff             	mov    %r15,%rdi
    e55e:	48 89 c5             	mov    %rax,%rbp
    e561:	e8 38 d1 ff ff       	call   b69e <Py_XDECREF>
    e566:	48 85 ed             	test   %rbp,%rbp
    e569:	75 0e                	jne    e579 <__pyx_pw_4main_7readbuttonvalues+0x565>
    e56b:	45 31 ff             	xor    %r15d,%r15d
    e56e:	41 bd 09 0f 00 00    	mov    $0xf09,%r13d
    e574:	e9 f4 13 00 00       	jmp    f96d <__pyx_pw_4main_7readbuttonvalues+0x1959>
    e579:	48 8b 03             	mov    (%rbx),%rax
    e57c:	85 c0                	test   %eax,%eax
    e57e:	78 10                	js     e590 <__pyx_pw_4main_7readbuttonvalues+0x57c>
    e580:	48 ff c8             	dec    %rax
    e583:	48 89 03             	mov    %rax,(%rbx)
    e586:	75 08                	jne    e590 <__pyx_pw_4main_7readbuttonvalues+0x57c>
    e588:	48 89 df             	mov    %rbx,%rdi
    e58b:	e8 c0 60 ff ff       	call   4650 <_Py_Dealloc@plt>
    e590:	31 d2                	xor    %edx,%edx
    e592:	48 89 ee             	mov    %rbp,%rsi
    e595:	4c 89 e7             	mov    %r12,%rdi
    e598:	e8 a3 5e ff ff       	call   4440 <PyObject_RichCompare@plt>
    e59d:	48 89 c3             	mov    %rax,%rbx
    e5a0:	48 85 c0             	test   %rax,%rax
    e5a3:	0f 84 ef 13 00 00    	je     f998 <__pyx_pw_4main_7readbuttonvalues+0x1984>
    e5a9:	49 8b 04 24          	mov    (%r12),%rax
    e5ad:	85 c0                	test   %eax,%eax
    e5af:	78 11                	js     e5c2 <__pyx_pw_4main_7readbuttonvalues+0x5ae>
    e5b1:	48 ff c8             	dec    %rax
    e5b4:	49 89 04 24          	mov    %rax,(%r12)
    e5b8:	75 08                	jne    e5c2 <__pyx_pw_4main_7readbuttonvalues+0x5ae>
    e5ba:	4c 89 e7             	mov    %r12,%rdi
    e5bd:	e8 8e 60 ff ff       	call   4650 <_Py_Dealloc@plt>
    e5c2:	48 8b 45 00          	mov    0x0(%rbp),%rax
    e5c6:	85 c0                	test   %eax,%eax
    e5c8:	78 11                	js     e5db <__pyx_pw_4main_7readbuttonvalues+0x5c7>
    e5ca:	48 ff c8             	dec    %rax
    e5cd:	48 89 45 00          	mov    %rax,0x0(%rbp)
    e5d1:	75 08                	jne    e5db <__pyx_pw_4main_7readbuttonvalues+0x5c7>
    e5d3:	48 89 ef             	mov    %rbp,%rdi
    e5d6:	e8 75 60 ff ff       	call   4650 <_Py_Dealloc@plt>
    e5db:	48 89 df             	mov    %rbx,%rdi
    e5de:	e8 66 cf ff ff       	call   b549 <__Pyx_PyObject_IsTrue>
    e5e3:	89 c5                	mov    %eax,%ebp
    e5e5:	85 c0                	test   %eax,%eax
    e5e7:	0f 88 b6 13 00 00    	js     f9a3 <__pyx_pw_4main_7readbuttonvalues+0x198f>
    e5ed:	48 8b 13             	mov    (%rbx),%rdx
    e5f0:	85 d2                	test   %edx,%edx
    e5f2:	78 10                	js     e604 <__pyx_pw_4main_7readbuttonvalues+0x5f0>
    e5f4:	48 ff ca             	dec    %rdx
    e5f7:	48 89 13             	mov    %rdx,(%rbx)
    e5fa:	75 08                	jne    e604 <__pyx_pw_4main_7readbuttonvalues+0x5f0>
    e5fc:	48 89 df             	mov    %rbx,%rdi
    e5ff:	e8 4c 60 ff ff       	call   4650 <_Py_Dealloc@plt>
    e604:	85 ed                	test   %ebp,%ebp
    e606:	0f 84 cc 12 00 00    	je     f8d8 <__pyx_pw_4main_7readbuttonvalues+0x18c4>
    e60c:	48 8b 3d 05 99 00 00 	mov    0x9905(%rip),%rdi        # 17f18 <__pyx_mstate_global_static+0x2b8>
    e613:	e8 6c eb ff ff       	call   d184 <__Pyx__GetModuleGlobalName>
    e618:	48 89 c3             	mov    %rax,%rbx
    e61b:	48 85 c0             	test   %rax,%rax
    e61e:	0f 84 90 13 00 00    	je     f9b4 <__pyx_pw_4main_7readbuttonvalues+0x19a0>
    e624:	ba 03 00 00 00       	mov    $0x3,%edx
    e629:	48 8d 35 f0 93 00 00 	lea    0x93f0(%rip),%rsi        # 17a20 <_Py_NoneStruct@@Base>
    e630:	48 89 c7             	mov    %rax,%rdi
    e633:	e8 08 5e ff ff       	call   4440 <PyObject_RichCompare@plt>
    e638:	48 89 c5             	mov    %rax,%rbp
    e63b:	48 85 c0             	test   %rax,%rax
    e63e:	0f 84 80 13 00 00    	je     f9c4 <__pyx_pw_4main_7readbuttonvalues+0x19b0>
    e644:	48 8b 03             	mov    (%rbx),%rax
    e647:	85 c0                	test   %eax,%eax
    e649:	78 10                	js     e65b <__pyx_pw_4main_7readbuttonvalues+0x647>
    e64b:	48 ff c8             	dec    %rax
    e64e:	48 89 03             	mov    %rax,(%rbx)
    e651:	75 08                	jne    e65b <__pyx_pw_4main_7readbuttonvalues+0x647>
    e653:	48 89 df             	mov    %rbx,%rdi
    e656:	e8 f5 5f ff ff       	call   4650 <_Py_Dealloc@plt>
    e65b:	48 89 ef             	mov    %rbp,%rdi
    e65e:	e8 e6 ce ff ff       	call   b549 <__Pyx_PyObject_IsTrue>
    e663:	89 c3                	mov    %eax,%ebx
    e665:	85 c0                	test   %eax,%eax
    e667:	0f 88 65 13 00 00    	js     f9d2 <__pyx_pw_4main_7readbuttonvalues+0x19be>
    e66d:	48 8b 55 00          	mov    0x0(%rbp),%rdx
    e671:	85 d2                	test   %edx,%edx
    e673:	78 11                	js     e686 <__pyx_pw_4main_7readbuttonvalues+0x672>
    e675:	48 ff ca             	dec    %rdx
    e678:	48 89 55 00          	mov    %rdx,0x0(%rbp)
    e67c:	75 08                	jne    e686 <__pyx_pw_4main_7readbuttonvalues+0x672>
    e67e:	48 89 ef             	mov    %rbp,%rdi
    e681:	e8 ca 5f ff ff       	call   4650 <_Py_Dealloc@plt>
    e686:	85 db                	test   %ebx,%ebx
    e688:	0f 84 4a 12 00 00    	je     f8d8 <__pyx_pw_4main_7readbuttonvalues+0x18c4>
    e68e:	48 8b 3d 83 98 00 00 	mov    0x9883(%rip),%rdi        # 17f18 <__pyx_mstate_global_static+0x2b8>
    e695:	e8 ea ea ff ff       	call   d184 <__Pyx__GetModuleGlobalName>
    e69a:	48 89 c3             	mov    %rax,%rbx
    e69d:	48 85 c0             	test   %rax,%rax
    e6a0:	0f 84 3d 13 00 00    	je     f9e3 <__pyx_pw_4main_7readbuttonvalues+0x19cf>
    e6a6:	48 8b 35 0b 99 00 00 	mov    0x990b(%rip),%rsi        # 17fb8 <__pyx_mstate_global_static+0x358>
    e6ad:	48 89 c7             	mov    %rax,%rdi
    e6b0:	e8 c7 ce ff ff       	call   b57c <__Pyx_PyObject_GetAttrStr>
    e6b5:	49 89 c7             	mov    %rax,%r15
    e6b8:	48 85 c0             	test   %rax,%rax
    e6bb:	0f 84 32 13 00 00    	je     f9f3 <__pyx_pw_4main_7readbuttonvalues+0x19df>
    e6c1:	48 8b 03             	mov    (%rbx),%rax
    e6c4:	85 c0                	test   %eax,%eax
    e6c6:	78 10                	js     e6d8 <__pyx_pw_4main_7readbuttonvalues+0x6c4>
    e6c8:	48 ff c8             	dec    %rax
    e6cb:	48 89 03             	mov    %rax,(%rbx)
    e6ce:	75 08                	jne    e6d8 <__pyx_pw_4main_7readbuttonvalues+0x6c4>
    e6d0:	48 89 df             	mov    %rbx,%rdi
    e6d3:	e8 78 5f ff ff       	call   4650 <_Py_Dealloc@plt>
    e6d8:	31 ed                	xor    %ebp,%ebp
    e6da:	31 db                	xor    %ebx,%ebx
    e6dc:	4d 39 77 08          	cmp    %r14,0x8(%r15)
    e6e0:	75 50                	jne    e732 <__pyx_pw_4main_7readbuttonvalues+0x71e>
    e6e2:	4c 89 ff             	mov    %r15,%rdi
    e6e5:	e8 04 dc ff ff       	call   c2ee <PyMethod_GET_SELF>
    e6ea:	48 89 c3             	mov    %rax,%rbx
    e6ed:	48 85 c0             	test   %rax,%rax
    e6f0:	74 40                	je     e732 <__pyx_pw_4main_7readbuttonvalues+0x71e>
    e6f2:	4c 89 ff             	mov    %r15,%rdi
    e6f5:	e8 26 dc ff ff       	call   c320 <PyMethod_GET_FUNCTION>
    e6fa:	48 89 c5             	mov    %rax,%rbp
    e6fd:	8b 03                	mov    (%rbx),%eax
    e6ff:	ff c0                	inc    %eax
    e701:	74 02                	je     e705 <__pyx_pw_4main_7readbuttonvalues+0x6f1>
    e703:	89 03                	mov    %eax,(%rbx)
    e705:	8b 45 00             	mov    0x0(%rbp),%eax
    e708:	ff c0                	inc    %eax
    e70a:	74 03                	je     e70f <__pyx_pw_4main_7readbuttonvalues+0x6fb>
    e70c:	89 45 00             	mov    %eax,0x0(%rbp)
    e70f:	49 8b 07             	mov    (%r15),%rax
    e712:	85 c0                	test   %eax,%eax
    e714:	78 08                	js     e71e <__pyx_pw_4main_7readbuttonvalues+0x70a>
    e716:	48 ff c8             	dec    %rax
    e719:	49 89 07             	mov    %rax,(%r15)
    e71c:	74 0a                	je     e728 <__pyx_pw_4main_7readbuttonvalues+0x714>
    e71e:	49 89 ef             	mov    %rbp,%r15
    e721:	bd 01 00 00 00       	mov    $0x1,%ebp
    e726:	eb 0a                	jmp    e732 <__pyx_pw_4main_7readbuttonvalues+0x71e>
    e728:	4c 89 ff             	mov    %r15,%rdi
    e72b:	e8 20 5f ff ff       	call   4650 <_Py_Dealloc@plt>
    e730:	eb ec                	jmp    e71e <__pyx_pw_4main_7readbuttonvalues+0x70a>
    e732:	8d 55 01             	lea    0x1(%rbp),%edx
    e735:	83 f5 01             	xor    $0x1,%ebp
    e738:	4c 89 ff             	mov    %r15,%rdi
    e73b:	48 89 5c 24 48       	mov    %rbx,0x48(%rsp)
    e740:	48 8b 05 a1 97 00 00 	mov    0x97a1(%rip),%rax        # 17ee8 <__pyx_mstate_global_static+0x288>
    e747:	48 63 ed             	movslq %ebp,%rbp
    e74a:	48 63 d2             	movslq %edx,%rdx
    e74d:	49 8d 74 ed 00       	lea    0x0(%r13,%rbp,8),%rsi
    e752:	48 89 44 24 50       	mov    %rax,0x50(%rsp)
    e757:	e8 3f eb ff ff       	call   d29b <__Pyx_PyObject_FastCallDict.constprop.0>
    e75c:	48 89 df             	mov    %rbx,%rdi
    e75f:	48 89 c5             	mov    %rax,%rbp
    e762:	e8 37 cf ff ff       	call   b69e <Py_XDECREF>
    e767:	48 85 ed             	test   %rbp,%rbp
    e76a:	75 13                	jne    e77f <__pyx_pw_4main_7readbuttonvalues+0x76b>
    e76c:	4d 89 fc             	mov    %r15,%r12
    e76f:	31 db                	xor    %ebx,%ebx
    e771:	45 31 ff             	xor    %r15d,%r15d
    e774:	41 bd 3f 0f 00 00    	mov    $0xf3f,%r13d
    e77a:	e9 7f 12 00 00       	jmp    f9fe <__pyx_pw_4main_7readbuttonvalues+0x19ea>
    e77f:	49 8b 07             	mov    (%r15),%rax
    e782:	85 c0                	test   %eax,%eax
    e784:	78 10                	js     e796 <__pyx_pw_4main_7readbuttonvalues+0x782>
    e786:	48 ff c8             	dec    %rax
    e789:	49 89 07             	mov    %rax,(%r15)
    e78c:	75 08                	jne    e796 <__pyx_pw_4main_7readbuttonvalues+0x782>
    e78e:	4c 89 ff             	mov    %r15,%rdi
    e791:	e8 ba 5e ff ff       	call   4650 <_Py_Dealloc@plt>
    e796:	48 8b 45 00          	mov    0x0(%rbp),%rax
    e79a:	85 c0                	test   %eax,%eax
    e79c:	78 11                	js     e7af <__pyx_pw_4main_7readbuttonvalues+0x79b>
    e79e:	48 ff c8             	dec    %rax
    e7a1:	48 89 45 00          	mov    %rax,0x0(%rbp)
    e7a5:	75 08                	jne    e7af <__pyx_pw_4main_7readbuttonvalues+0x79b>
    e7a7:	48 89 ef             	mov    %rbp,%rdi
    e7aa:	e8 a1 5e ff ff       	call   4650 <_Py_Dealloc@plt>
    e7af:	48 8b 3d 62 97 00 00 	mov    0x9762(%rip),%rdi        # 17f18 <__pyx_mstate_global_static+0x2b8>
    e7b6:	e8 c9 e9 ff ff       	call   d184 <__Pyx__GetModuleGlobalName>
    e7bb:	49 89 c4             	mov    %rax,%r12
    e7be:	48 85 c0             	test   %rax,%rax
    e7c1:	0f 84 42 12 00 00    	je     fa09 <__pyx_pw_4main_7readbuttonvalues+0x19f5>
    e7c7:	48 8b 35 2a 97 00 00 	mov    0x972a(%rip),%rsi        # 17ef8 <__pyx_mstate_global_static+0x298>
    e7ce:	48 89 c7             	mov    %rax,%rdi
    e7d1:	e8 a6 cd ff ff       	call   b57c <__Pyx_PyObject_GetAttrStr>
    e7d6:	49 89 c7             	mov    %rax,%r15
    e7d9:	48 85 c0             	test   %rax,%rax
    e7dc:	0f 84 36 12 00 00    	je     fa18 <__pyx_pw_4main_7readbuttonvalues+0x1a04>
    e7e2:	49 8b 04 24          	mov    (%r12),%rax
    e7e6:	85 c0                	test   %eax,%eax
    e7e8:	78 11                	js     e7fb <__pyx_pw_4main_7readbuttonvalues+0x7e7>
    e7ea:	48 ff c8             	dec    %rax
    e7ed:	49 89 04 24          	mov    %rax,(%r12)
    e7f1:	75 08                	jne    e7fb <__pyx_pw_4main_7readbuttonvalues+0x7e7>
    e7f3:	4c 89 e7             	mov    %r12,%rdi
    e7f6:	e8 55 5e ff ff       	call   4650 <_Py_Dealloc@plt>
    e7fb:	31 ed                	xor    %ebp,%ebp
    e7fd:	31 db                	xor    %ebx,%ebx
    e7ff:	4d 39 77 08          	cmp    %r14,0x8(%r15)
    e803:	75 50                	jne    e855 <__pyx_pw_4main_7readbuttonvalues+0x841>
    e805:	4c 89 ff             	mov    %r15,%rdi
    e808:	e8 e1 da ff ff       	call   c2ee <PyMethod_GET_SELF>
    e80d:	48 89 c3             	mov    %rax,%rbx
    e810:	48 85 c0             	test   %rax,%rax
    e813:	74 40                	je     e855 <__pyx_pw_4main_7readbuttonvalues+0x841>
    e815:	4c 89 ff             	mov    %r15,%rdi
    e818:	e8 03 db ff ff       	call   c320 <PyMethod_GET_FUNCTION>
    e81d:	48 89 c5             	mov    %rax,%rbp
    e820:	8b 03                	mov    (%rbx),%eax
    e822:	ff c0                	inc    %eax
    e824:	74 02                	je     e828 <__pyx_pw_4main_7readbuttonvalues+0x814>
    e826:	89 03                	mov    %eax,(%rbx)
    e828:	8b 45 00             	mov    0x0(%rbp),%eax
    e82b:	ff c0                	inc    %eax
    e82d:	74 03                	je     e832 <__pyx_pw_4main_7readbuttonvalues+0x81e>
    e82f:	89 45 00             	mov    %eax,0x0(%rbp)
    e832:	49 8b 07             	mov    (%r15),%rax
    e835:	85 c0                	test   %eax,%eax
    e837:	78 08                	js     e841 <__pyx_pw_4main_7readbuttonvalues+0x82d>
    e839:	48 ff c8             	dec    %rax
    e83c:	49 89 07             	mov    %rax,(%r15)
    e83f:	74 0a                	je     e84b <__pyx_pw_4main_7readbuttonvalues+0x837>
    e841:	49 89 ef             	mov    %rbp,%r15
    e844:	bd 01 00 00 00       	mov    $0x1,%ebp
    e849:	eb 0a                	jmp    e855 <__pyx_pw_4main_7readbuttonvalues+0x841>
    e84b:	4c 89 ff             	mov    %r15,%rdi
    e84e:	e8 fd 5d ff ff       	call   4650 <_Py_Dealloc@plt>
    e853:	eb ec                	jmp    e841 <__pyx_pw_4main_7readbuttonvalues+0x82d>
    e855:	48 63 d5             	movslq %ebp,%rdx
    e858:	83 f5 01             	xor    $0x1,%ebp
    e85b:	31 f6                	xor    %esi,%esi
    e85d:	4c 89 ff             	mov    %r15,%rdi
    e860:	48 63 ed             	movslq %ebp,%rbp
    e863:	48 89 74 24 50       	mov    %rsi,0x50(%rsp)
    e868:	49 8d 74 ed 00       	lea    0x0(%r13,%rbp,8),%rsi
    e86d:	48 89 5c 24 48       	mov    %rbx,0x48(%rsp)
    e872:	e8 24 ea ff ff       	call   d29b <__Pyx_PyObject_FastCallDict.constprop.0>
    e877:	48 89 df             	mov    %rbx,%rdi
    e87a:	48 89 c5             	mov    %rax,%rbp
    e87d:	e8 1c ce ff ff       	call   b69e <Py_XDECREF>
    e882:	48 85 ed             	test   %rbp,%rbp
    e885:	75 14                	jne    e89b <__pyx_pw_4main_7readbuttonvalues+0x887>
    e887:	4c 89 fb             	mov    %r15,%rbx
    e88a:	45 31 e4             	xor    %r12d,%r12d
    e88d:	45 31 ff             	xor    %r15d,%r15d
    e890:	41 bd 63 0f 00 00    	mov    $0xf63,%r13d
    e896:	e9 87 11 00 00       	jmp    fa22 <__pyx_pw_4main_7readbuttonvalues+0x1a0e>
    e89b:	49 8b 07             	mov    (%r15),%rax
    e89e:	85 c0                	test   %eax,%eax
    e8a0:	78 10                	js     e8b2 <__pyx_pw_4main_7readbuttonvalues+0x89e>
    e8a2:	48 ff c8             	dec    %rax
    e8a5:	49 89 07             	mov    %rax,(%r15)
    e8a8:	75 08                	jne    e8b2 <__pyx_pw_4main_7readbuttonvalues+0x89e>
    e8aa:	4c 89 ff             	mov    %r15,%rdi
    e8ad:	e8 9e 5d ff ff       	call   4650 <_Py_Dealloc@plt>
    e8b2:	48 8b 35 87 95 00 00 	mov    0x9587(%rip),%rsi        # 17e40 <__pyx_mstate_global_static+0x1e0>
    e8b9:	48 8b 3d a0 93 00 00 	mov    0x93a0(%rip),%rdi        # 17c60 <__pyx_mstate_global_static>
    e8c0:	48 89 ea             	mov    %rbp,%rdx
    e8c3:	e8 e8 5e ff ff       	call   47b0 <PyDict_SetItem@plt>
    e8c8:	85 c0                	test   %eax,%eax
    e8ca:	0f 88 5d 11 00 00    	js     fa2d <__pyx_pw_4main_7readbuttonvalues+0x1a19>
    e8d0:	48 8b 45 00          	mov    0x0(%rbp),%rax
    e8d4:	85 c0                	test   %eax,%eax
    e8d6:	78 11                	js     e8e9 <__pyx_pw_4main_7readbuttonvalues+0x8d5>
    e8d8:	48 ff c8             	dec    %rax
    e8db:	48 89 45 00          	mov    %rax,0x0(%rbp)
    e8df:	75 08                	jne    e8e9 <__pyx_pw_4main_7readbuttonvalues+0x8d5>
    e8e1:	48 89 ef             	mov    %rbp,%rdi
    e8e4:	e8 67 5d ff ff       	call   4650 <_Py_Dealloc@plt>
    e8e9:	48 8b 3d 40 95 00 00 	mov    0x9540(%rip),%rdi        # 17e30 <__pyx_mstate_global_static+0x1d0>
    e8f0:	e8 8f e8 ff ff       	call   d184 <__Pyx__GetModuleGlobalName>
    e8f5:	48 89 c3             	mov    %rax,%rbx
    e8f8:	48 85 c0             	test   %rax,%rax
    e8fb:	0f 84 3d 11 00 00    	je     fa3e <__pyx_pw_4main_7readbuttonvalues+0x1a2a>
    e901:	48 8b 35 58 95 00 00 	mov    0x9558(%rip),%rsi        # 17e60 <__pyx_mstate_global_static+0x200>
    e908:	48 89 c7             	mov    %rax,%rdi
    e90b:	e8 6c cc ff ff       	call   b57c <__Pyx_PyObject_GetAttrStr>
    e910:	49 89 c4             	mov    %rax,%r12
    e913:	48 85 c0             	test   %rax,%rax
    e916:	0f 84 3b 11 00 00    	je     fa57 <__pyx_pw_4main_7readbuttonvalues+0x1a43>
    e91c:	48 8b 03             	mov    (%rbx),%rax
    e91f:	85 c0                	test   %eax,%eax
    e921:	78 10                	js     e933 <__pyx_pw_4main_7readbuttonvalues+0x91f>
    e923:	48 ff c8             	dec    %rax
    e926:	48 89 03             	mov    %rax,(%rbx)
    e929:	75 08                	jne    e933 <__pyx_pw_4main_7readbuttonvalues+0x91f>
    e92b:	48 89 df             	mov    %rbx,%rdi
    e92e:	e8 1d 5d ff ff       	call   4650 <_Py_Dealloc@plt>
    e933:	48 8b 3d 06 95 00 00 	mov    0x9506(%rip),%rdi        # 17e40 <__pyx_mstate_global_static+0x1e0>
    e93a:	e8 45 e8 ff ff       	call   d184 <__Pyx__GetModuleGlobalName>
    e93f:	49 89 c7             	mov    %rax,%r15
    e942:	48 85 c0             	test   %rax,%rax
    e945:	0f 84 19 11 00 00    	je     fa64 <__pyx_pw_4main_7readbuttonvalues+0x1a50>
    e94b:	31 ed                	xor    %ebp,%ebp
    e94d:	31 db                	xor    %ebx,%ebx
    e94f:	48 8d 05 8a 8d 00 00 	lea    0x8d8a(%rip),%rax        # 176e0 <PyMethod_Type@@Base>
    e956:	49 39 44 24 08       	cmp    %rax,0x8(%r12)
    e95b:	75 52                	jne    e9af <__pyx_pw_4main_7readbuttonvalues+0x99b>
    e95d:	4c 89 e7             	mov    %r12,%rdi
    e960:	e8 89 d9 ff ff       	call   c2ee <PyMethod_GET_SELF>
    e965:	48 89 c3             	mov    %rax,%rbx
    e968:	48 85 c0             	test   %rax,%rax
    e96b:	74 42                	je     e9af <__pyx_pw_4main_7readbuttonvalues+0x99b>
    e96d:	4c 89 e7             	mov    %r12,%rdi
    e970:	e8 ab d9 ff ff       	call   c320 <PyMethod_GET_FUNCTION>
    e975:	48 89 c5             	mov    %rax,%rbp
    e978:	8b 03                	mov    (%rbx),%eax
    e97a:	ff c0                	inc    %eax
    e97c:	74 02                	je     e980 <__pyx_pw_4main_7readbuttonvalues+0x96c>
    e97e:	89 03                	mov    %eax,(%rbx)
    e980:	8b 45 00             	mov    0x0(%rbp),%eax
    e983:	ff c0                	inc    %eax
    e985:	74 03                	je     e98a <__pyx_pw_4main_7readbuttonvalues+0x976>
    e987:	89 45 00             	mov    %eax,0x0(%rbp)
    e98a:	49 8b 04 24          	mov    (%r12),%rax
    e98e:	85 c0                	test   %eax,%eax
    e990:	78 09                	js     e99b <__pyx_pw_4main_7readbuttonvalues+0x987>
    e992:	48 ff c8             	dec    %rax
    e995:	49 89 04 24          	mov    %rax,(%r12)
    e999:	74 0a                	je     e9a5 <__pyx_pw_4main_7readbuttonvalues+0x991>
    e99b:	49 89 ec             	mov    %rbp,%r12
    e99e:	bd 01 00 00 00       	mov    $0x1,%ebp
    e9a3:	eb 0a                	jmp    e9af <__pyx_pw_4main_7readbuttonvalues+0x99b>
    e9a5:	4c 89 e7             	mov    %r12,%rdi
    e9a8:	e8 a3 5c ff ff       	call   4650 <_Py_Dealloc@plt>
    e9ad:	eb ec                	jmp    e99b <__pyx_pw_4main_7readbuttonvalues+0x987>
    e9af:	8d 55 01             	lea    0x1(%rbp),%edx
    e9b2:	83 f5 01             	xor    $0x1,%ebp
    e9b5:	4c 89 e7             	mov    %r12,%rdi
    e9b8:	48 89 5c 24 48       	mov    %rbx,0x48(%rsp)
    e9bd:	48 63 ed             	movslq %ebp,%rbp
    e9c0:	48 63 d2             	movslq %edx,%rdx
    e9c3:	4c 89 7c 24 50       	mov    %r15,0x50(%rsp)
    e9c8:	48 8d 74 ec 48       	lea    0x48(%rsp,%rbp,8),%rsi
    e9cd:	e8 c9 e8 ff ff       	call   d29b <__Pyx_PyObject_FastCallDict.constprop.0>
    e9d2:	48 89 df             	mov    %rbx,%rdi
    e9d5:	48 89 c5             	mov    %rax,%rbp
    e9d8:	e8 c1 cc ff ff       	call   b69e <Py_XDECREF>
    e9dd:	49 8b 07             	mov    (%r15),%rax
    e9e0:	85 c0                	test   %eax,%eax
    e9e2:	78 10                	js     e9f4 <__pyx_pw_4main_7readbuttonvalues+0x9e0>
    e9e4:	48 ff c8             	dec    %rax
    e9e7:	49 89 07             	mov    %rax,(%r15)
    e9ea:	75 08                	jne    e9f4 <__pyx_pw_4main_7readbuttonvalues+0x9e0>
    e9ec:	4c 89 ff             	mov    %r15,%rdi
    e9ef:	e8 5c 5c ff ff       	call   4650 <_Py_Dealloc@plt>
    e9f4:	48 85 ed             	test   %rbp,%rbp
    e9f7:	75 10                	jne    ea09 <__pyx_pw_4main_7readbuttonvalues+0x9f5>
    e9f9:	31 db                	xor    %ebx,%ebx
    e9fb:	45 31 ff             	xor    %r15d,%r15d
    e9fe:	41 bd 8b 0f 00 00    	mov    $0xf8b,%r13d
    ea04:	e9 43 10 00 00       	jmp    fa4c <__pyx_pw_4main_7readbuttonvalues+0x1a38>
    ea09:	49 8b 04 24          	mov    (%r12),%rax
    ea0d:	85 c0                	test   %eax,%eax
    ea0f:	78 11                	js     ea22 <__pyx_pw_4main_7readbuttonvalues+0xa0e>
    ea11:	48 ff c8             	dec    %rax
    ea14:	49 89 04 24          	mov    %rax,(%r12)
    ea18:	75 08                	jne    ea22 <__pyx_pw_4main_7readbuttonvalues+0xa0e>
    ea1a:	4c 89 e7             	mov    %r12,%rdi
    ea1d:	e8 2e 5c ff ff       	call   4650 <_Py_Dealloc@plt>
    ea22:	48 8b 35 17 94 00 00 	mov    0x9417(%rip),%rsi        # 17e40 <__pyx_mstate_global_static+0x1e0>
    ea29:	48 8b 3d 30 92 00 00 	mov    0x9230(%rip),%rdi        # 17c60 <__pyx_mstate_global_static>
    ea30:	48 89 ea             	mov    %rbp,%rdx
    ea33:	e8 78 5d ff ff       	call   47b0 <PyDict_SetItem@plt>
    ea38:	85 c0                	test   %eax,%eax
    ea3a:	0f 88 30 10 00 00    	js     fa70 <__pyx_pw_4main_7readbuttonvalues+0x1a5c>
    ea40:	48 8b 45 00          	mov    0x0(%rbp),%rax
    ea44:	85 c0                	test   %eax,%eax
    ea46:	78 11                	js     ea59 <__pyx_pw_4main_7readbuttonvalues+0xa45>
    ea48:	48 ff c8             	dec    %rax
    ea4b:	48 89 45 00          	mov    %rax,0x0(%rbp)
    ea4f:	75 08                	jne    ea59 <__pyx_pw_4main_7readbuttonvalues+0xa45>
    ea51:	48 89 ef             	mov    %rbp,%rdi
    ea54:	e8 f7 5b ff ff       	call   4650 <_Py_Dealloc@plt>
    ea59:	48 8b 3d e0 93 00 00 	mov    0x93e0(%rip),%rdi        # 17e40 <__pyx_mstate_global_static+0x1e0>
    ea60:	e8 1f e7 ff ff       	call   d184 <__Pyx__GetModuleGlobalName>
    ea65:	48 89 c5             	mov    %rax,%rbp
    ea68:	48 85 c0             	test   %rax,%rax
    ea6b:	0f 84 10 10 00 00    	je     fa81 <__pyx_pw_4main_7readbuttonvalues+0x1a6d>
    ea71:	48 8b 35 c0 93 00 00 	mov    0x93c0(%rip),%rsi        # 17e38 <__pyx_mstate_global_static+0x1d8>
    ea78:	48 8b 3d e1 91 00 00 	mov    0x91e1(%rip),%rdi        # 17c60 <__pyx_mstate_global_static>
    ea7f:	48 89 c2             	mov    %rax,%rdx
    ea82:	e8 29 5d ff ff       	call   47b0 <PyDict_SetItem@plt>
    ea87:	85 c0                	test   %eax,%eax
    ea89:	0f 88 0b 10 00 00    	js     fa9a <__pyx_pw_4main_7readbuttonvalues+0x1a86>
    ea8f:	48 8b 45 00          	mov    0x0(%rbp),%rax
    ea93:	85 c0                	test   %eax,%eax
    ea95:	78 11                	js     eaa8 <__pyx_pw_4main_7readbuttonvalues+0xa94>
    ea97:	48 ff c8             	dec    %rax
    ea9a:	48 89 45 00          	mov    %rax,0x0(%rbp)
    ea9e:	75 08                	jne    eaa8 <__pyx_pw_4main_7readbuttonvalues+0xa94>
    eaa0:	48 89 ef             	mov    %rbp,%rdi
    eaa3:	e8 a8 5b ff ff       	call   4650 <_Py_Dealloc@plt>
    eaa8:	48 8b 3d 89 93 00 00 	mov    0x9389(%rip),%rdi        # 17e38 <__pyx_mstate_global_static+0x1d8>
    eaaf:	e8 d0 e6 ff ff       	call   d184 <__Pyx__GetModuleGlobalName>
    eab4:	48 89 c5             	mov    %rax,%rbp
    eab7:	48 85 c0             	test   %rax,%rax
    eaba:	0f 84 eb 0f 00 00    	je     faab <__pyx_pw_4main_7readbuttonvalues+0x1a97>
    eac0:	48 8b 3d c1 95 00 00 	mov    0x95c1(%rip),%rdi        # 18088 <__pyx_builtin_print>
    eac7:	48 89 c6             	mov    %rax,%rsi
    eaca:	e8 85 e8 ff ff       	call   d354 <__Pyx_PyObject_CallOneArg>
    eacf:	49 89 c7             	mov    %rax,%r15
    ead2:	48 85 c0             	test   %rax,%rax
    ead5:	0f 84 e0 0f 00 00    	je     fabb <__pyx_pw_4main_7readbuttonvalues+0x1aa7>
    eadb:	48 8b 45 00          	mov    0x0(%rbp),%rax
    eadf:	85 c0                	test   %eax,%eax
    eae1:	78 11                	js     eaf4 <__pyx_pw_4main_7readbuttonvalues+0xae0>
    eae3:	48 ff c8             	dec    %rax
    eae6:	48 89 45 00          	mov    %rax,0x0(%rbp)
    eaea:	75 08                	jne    eaf4 <__pyx_pw_4main_7readbuttonvalues+0xae0>
    eaec:	48 89 ef             	mov    %rbp,%rdi
    eaef:	e8 5c 5b ff ff       	call   4650 <_Py_Dealloc@plt>
    eaf4:	49 8b 07             	mov    (%r15),%rax
    eaf7:	85 c0                	test   %eax,%eax
    eaf9:	78 10                	js     eb0b <__pyx_pw_4main_7readbuttonvalues+0xaf7>
    eafb:	48 ff c8             	dec    %rax
    eafe:	49 89 07             	mov    %rax,(%r15)
    eb01:	75 08                	jne    eb0b <__pyx_pw_4main_7readbuttonvalues+0xaf7>
    eb03:	4c 89 ff             	mov    %r15,%rdi
    eb06:	e8 45 5b ff ff       	call   4650 <_Py_Dealloc@plt>
    eb0b:	48 8b 3d 26 93 00 00 	mov    0x9326(%rip),%rdi        # 17e38 <__pyx_mstate_global_static+0x1d8>
    eb12:	e8 6d e6 ff ff       	call   d184 <__Pyx__GetModuleGlobalName>
    eb17:	49 89 c4             	mov    %rax,%r12
    eb1a:	48 85 c0             	test   %rax,%rax
    eb1d:	0f 84 ae 0f 00 00    	je     fad1 <__pyx_pw_4main_7readbuttonvalues+0x1abd>
    eb23:	48 8b 35 f6 91 00 00 	mov    0x91f6(%rip),%rsi        # 17d20 <__pyx_mstate_global_static+0xc0>
    eb2a:	48 8d 1d 0f 83 00 00 	lea    0x830f(%rip),%rbx        # 16e40 <PyDict_Type@@Base>
    eb31:	48 89 c7             	mov    %rax,%rdi
    eb34:	48 39 58 08          	cmp    %rbx,0x8(%rax)
    eb38:	75 07                	jne    eb41 <__pyx_pw_4main_7readbuttonvalues+0xb2d>
    eb3a:	e8 b5 d9 ff ff       	call   c4f4 <__Pyx_PyDict_GetItem>
    eb3f:	eb 05                	jmp    eb46 <__pyx_pw_4main_7readbuttonvalues+0xb32>
    eb41:	e8 ea 56 ff ff       	call   4230 <PyObject_GetItem@plt>
    eb46:	48 89 c5             	mov    %rax,%rbp
    eb49:	48 85 c0             	test   %rax,%rax
    eb4c:	0f 84 8e 0f 00 00    	je     fae0 <__pyx_pw_4main_7readbuttonvalues+0x1acc>
    eb52:	49 8b 04 24          	mov    (%r12),%rax
    eb56:	85 c0                	test   %eax,%eax
    eb58:	78 11                	js     eb6b <__pyx_pw_4main_7readbuttonvalues+0xb57>
    eb5a:	48 ff c8             	dec    %rax
    eb5d:	49 89 04 24          	mov    %rax,(%r12)
    eb61:	75 08                	jne    eb6b <__pyx_pw_4main_7readbuttonvalues+0xb57>
    eb63:	4c 89 e7             	mov    %r12,%rdi
    eb66:	e8 e5 5a ff ff       	call   4650 <_Py_Dealloc@plt>
    eb6b:	4c 8d 2d 0e 8d 00 00 	lea    0x8d0e(%rip),%r13        # 17880 <PyLong_Type@@Base>
    eb72:	4c 39 6d 08          	cmp    %r13,0x8(%rbp)
    eb76:	75 0f                	jne    eb87 <__pyx_pw_4main_7readbuttonvalues+0xb73>
    eb78:	8b 45 00             	mov    0x0(%rbp),%eax
    eb7b:	ff c0                	inc    %eax
    eb7d:	74 03                	je     eb82 <__pyx_pw_4main_7readbuttonvalues+0xb6e>
    eb7f:	89 45 00             	mov    %eax,0x0(%rbp)
    eb82:	49 89 ec             	mov    %rbp,%r12
    eb85:	eb 17                	jmp    eb9e <__pyx_pw_4main_7readbuttonvalues+0xb8a>
    eb87:	48 89 ef             	mov    %rbp,%rdi
    eb8a:	e8 21 57 ff ff       	call   42b0 <PyNumber_Long@plt>
    eb8f:	49 89 c7             	mov    %rax,%r15
    eb92:	48 85 c0             	test   %rax,%rax
    eb95:	0f 84 52 0f 00 00    	je     faed <__pyx_pw_4main_7readbuttonvalues+0x1ad9>
    eb9b:	49 89 c4             	mov    %rax,%r12
    eb9e:	48 8b 45 00          	mov    0x0(%rbp),%rax
    eba2:	85 c0                	test   %eax,%eax
    eba4:	78 11                	js     ebb7 <__pyx_pw_4main_7readbuttonvalues+0xba3>
    eba6:	48 ff c8             	dec    %rax
    eba9:	48 89 45 00          	mov    %rax,0x0(%rbp)
    ebad:	75 08                	jne    ebb7 <__pyx_pw_4main_7readbuttonvalues+0xba3>
    ebaf:	48 89 ef             	mov    %rbp,%rdi
    ebb2:	e8 99 5a ff ff       	call   4650 <_Py_Dealloc@plt>
    ebb7:	48 8b 3d da 92 00 00 	mov    0x92da(%rip),%rdi        # 17e98 <__pyx_mstate_global_static+0x238>
    ebbe:	e8 c1 e5 ff ff       	call   d184 <__Pyx__GetModuleGlobalName>
    ebc3:	48 89 c5             	mov    %rax,%rbp
    ebc6:	48 85 c0             	test   %rax,%rax
    ebc9:	0f 84 2b 0f 00 00    	je     fafa <__pyx_pw_4main_7readbuttonvalues+0x1ae6>
    ebcf:	31 d2                	xor    %edx,%edx
    ebd1:	48 89 c6             	mov    %rax,%rsi
    ebd4:	4c 89 e7             	mov    %r12,%rdi
    ebd7:	e8 64 58 ff ff       	call   4440 <PyObject_RichCompare@plt>
    ebdc:	49 89 c7             	mov    %rax,%r15
    ebdf:	48 85 c0             	test   %rax,%rax
    ebe2:	0f 84 1f 0f 00 00    	je     fb07 <__pyx_pw_4main_7readbuttonvalues+0x1af3>
    ebe8:	48 89 c7             	mov    %rax,%rdi
    ebeb:	e8 59 c9 ff ff       	call   b549 <__Pyx_PyObject_IsTrue>
    ebf0:	41 89 c6             	mov    %eax,%r14d
    ebf3:	85 c0                	test   %eax,%eax
    ebf5:	0f 88 1f 0f 00 00    	js     fb1a <__pyx_pw_4main_7readbuttonvalues+0x1b06>
    ebfb:	49 8b 17             	mov    (%r15),%rdx
    ebfe:	85 d2                	test   %edx,%edx
    ec00:	78 10                	js     ec12 <__pyx_pw_4main_7readbuttonvalues+0xbfe>
    ec02:	48 ff ca             	dec    %rdx
    ec05:	49 89 17             	mov    %rdx,(%r15)
    ec08:	75 08                	jne    ec12 <__pyx_pw_4main_7readbuttonvalues+0xbfe>
    ec0a:	4c 89 ff             	mov    %r15,%rdi
    ec0d:	e8 3e 5a ff ff       	call   4650 <_Py_Dealloc@plt>
    ec12:	45 85 f6             	test   %r14d,%r14d
    ec15:	74 11                	je     ec28 <__pyx_pw_4main_7readbuttonvalues+0xc14>
    ec17:	41 8b 04 24          	mov    (%r12),%eax
    ec1b:	ff c0                	inc    %eax
    ec1d:	74 04                	je     ec23 <__pyx_pw_4main_7readbuttonvalues+0xc0f>
    ec1f:	41 89 04 24          	mov    %eax,(%r12)
    ec23:	4d 89 e6             	mov    %r12,%r14
    ec26:	eb 0d                	jmp    ec35 <__pyx_pw_4main_7readbuttonvalues+0xc21>
    ec28:	8b 45 00             	mov    0x0(%rbp),%eax
    ec2b:	ff c0                	inc    %eax
    ec2d:	74 03                	je     ec32 <__pyx_pw_4main_7readbuttonvalues+0xc1e>
    ec2f:	89 45 00             	mov    %eax,0x0(%rbp)
    ec32:	49 89 ee             	mov    %rbp,%r14
    ec35:	48 8b 45 00          	mov    0x0(%rbp),%rax
    ec39:	85 c0                	test   %eax,%eax
    ec3b:	78 11                	js     ec4e <__pyx_pw_4main_7readbuttonvalues+0xc3a>
    ec3d:	48 ff c8             	dec    %rax
    ec40:	48 89 45 00          	mov    %rax,0x0(%rbp)
    ec44:	75 08                	jne    ec4e <__pyx_pw_4main_7readbuttonvalues+0xc3a>
    ec46:	48 89 ef             	mov    %rbp,%rdi
    ec49:	e8 02 5a ff ff       	call   4650 <_Py_Dealloc@plt>
    ec4e:	49 8b 04 24          	mov    (%r12),%rax
    ec52:	85 c0                	test   %eax,%eax
    ec54:	78 11                	js     ec67 <__pyx_pw_4main_7readbuttonvalues+0xc53>
    ec56:	48 ff c8             	dec    %rax
    ec59:	49 89 04 24          	mov    %rax,(%r12)
    ec5d:	75 08                	jne    ec67 <__pyx_pw_4main_7readbuttonvalues+0xc53>
    ec5f:	4c 89 e7             	mov    %r12,%rdi
    ec62:	e8 e9 59 ff ff       	call   4650 <_Py_Dealloc@plt>
    ec67:	41 8b 06             	mov    (%r14),%eax
    ec6a:	ff c0                	inc    %eax
    ec6c:	74 03                	je     ec71 <__pyx_pw_4main_7readbuttonvalues+0xc5d>
    ec6e:	41 89 06             	mov    %eax,(%r14)
    ec71:	49 8b 06             	mov    (%r14),%rax
    ec74:	85 c0                	test   %eax,%eax
    ec76:	78 10                	js     ec88 <__pyx_pw_4main_7readbuttonvalues+0xc74>
    ec78:	48 ff c8             	dec    %rax
    ec7b:	49 89 06             	mov    %rax,(%r14)
    ec7e:	75 08                	jne    ec88 <__pyx_pw_4main_7readbuttonvalues+0xc74>
    ec80:	4c 89 f7             	mov    %r14,%rdi
    ec83:	e8 c8 59 ff ff       	call   4650 <_Py_Dealloc@plt>
    ec88:	48 8b 35 09 92 00 00 	mov    0x9209(%rip),%rsi        # 17e98 <__pyx_mstate_global_static+0x238>
    ec8f:	48 8b 3d ca 8f 00 00 	mov    0x8fca(%rip),%rdi        # 17c60 <__pyx_mstate_global_static>
    ec96:	4c 89 f2             	mov    %r14,%rdx
    ec99:	e8 12 5b ff ff       	call   47b0 <PyDict_SetItem@plt>
    ec9e:	85 c0                	test   %eax,%eax
    eca0:	0f 88 85 0e 00 00    	js     fb2b <__pyx_pw_4main_7readbuttonvalues+0x1b17>
    eca6:	49 8b 06             	mov    (%r14),%rax
    eca9:	85 c0                	test   %eax,%eax
    ecab:	78 10                	js     ecbd <__pyx_pw_4main_7readbuttonvalues+0xca9>
    ecad:	48 ff c8             	dec    %rax
    ecb0:	49 89 06             	mov    %rax,(%r14)
    ecb3:	75 08                	jne    ecbd <__pyx_pw_4main_7readbuttonvalues+0xca9>
    ecb5:	4c 89 f7             	mov    %r14,%rdi
    ecb8:	e8 93 59 ff ff       	call   4650 <_Py_Dealloc@plt>
    ecbd:	48 8b 3d 74 91 00 00 	mov    0x9174(%rip),%rdi        # 17e38 <__pyx_mstate_global_static+0x1d8>
    ecc4:	e8 bb e4 ff ff       	call   d184 <__Pyx__GetModuleGlobalName>
    ecc9:	49 89 c4             	mov    %rax,%r12
    eccc:	48 85 c0             	test   %rax,%rax
    eccf:	0f 84 6a 0e 00 00    	je     fb3f <__pyx_pw_4main_7readbuttonvalues+0x1b2b>
    ecd5:	48 8b 35 54 90 00 00 	mov    0x9054(%rip),%rsi        # 17d30 <__pyx_mstate_global_static+0xd0>
    ecdc:	48 89 c7             	mov    %rax,%rdi
    ecdf:	48 39 58 08          	cmp    %rbx,0x8(%rax)
    ece3:	75 07                	jne    ecec <__pyx_pw_4main_7readbuttonvalues+0xcd8>
    ece5:	e8 0a d8 ff ff       	call   c4f4 <__Pyx_PyDict_GetItem>
    ecea:	eb 05                	jmp    ecf1 <__pyx_pw_4main_7readbuttonvalues+0xcdd>
    ecec:	e8 3f 55 ff ff       	call   4230 <PyObject_GetItem@plt>
    ecf1:	48 89 c3             	mov    %rax,%rbx
    ecf4:	48 85 c0             	test   %rax,%rax
    ecf7:	0f 84 51 0e 00 00    	je     fb4e <__pyx_pw_4main_7readbuttonvalues+0x1b3a>
    ecfd:	49 8b 04 24          	mov    (%r12),%rax
    ed01:	85 c0                	test   %eax,%eax
    ed03:	78 11                	js     ed16 <__pyx_pw_4main_7readbuttonvalues+0xd02>
    ed05:	48 ff c8             	dec    %rax
    ed08:	49 89 04 24          	mov    %rax,(%r12)
    ed0c:	75 08                	jne    ed16 <__pyx_pw_4main_7readbuttonvalues+0xd02>
    ed0e:	4c 89 e7             	mov    %r12,%rdi
    ed11:	e8 3a 59 ff ff       	call   4650 <_Py_Dealloc@plt>
    ed16:	4c 39 6b 08          	cmp    %r13,0x8(%rbx)
    ed1a:	75 0d                	jne    ed29 <__pyx_pw_4main_7readbuttonvalues+0xd15>
    ed1c:	8b 03                	mov    (%rbx),%eax
    ed1e:	ff c0                	inc    %eax
    ed20:	74 02                	je     ed24 <__pyx_pw_4main_7readbuttonvalues+0xd10>
    ed22:	89 03                	mov    %eax,(%rbx)
    ed24:	49 89 dc             	mov    %rbx,%r12
    ed27:	eb 17                	jmp    ed40 <__pyx_pw_4main_7readbuttonvalues+0xd2c>
    ed29:	48 89 df             	mov    %rbx,%rdi
    ed2c:	e8 7f 55 ff ff       	call   42b0 <PyNumber_Long@plt>
    ed31:	49 89 c7             	mov    %rax,%r15
    ed34:	48 85 c0             	test   %rax,%rax
    ed37:	0f 84 1e 0e 00 00    	je     fb5b <__pyx_pw_4main_7readbuttonvalues+0x1b47>
    ed3d:	49 89 c4             	mov    %rax,%r12
    ed40:	48 8b 03             	mov    (%rbx),%rax
    ed43:	85 c0                	test   %eax,%eax
    ed45:	78 10                	js     ed57 <__pyx_pw_4main_7readbuttonvalues+0xd43>
    ed47:	48 ff c8             	dec    %rax
    ed4a:	48 89 03             	mov    %rax,(%rbx)
    ed4d:	75 08                	jne    ed57 <__pyx_pw_4main_7readbuttonvalues+0xd43>
    ed4f:	48 89 df             	mov    %rbx,%rdi
    ed52:	e8 f9 58 ff ff       	call   4650 <_Py_Dealloc@plt>
    ed57:	48 8b 3d 42 91 00 00 	mov    0x9142(%rip),%rdi        # 17ea0 <__pyx_mstate_global_static+0x240>
    ed5e:	e8 21 e4 ff ff       	call   d184 <__Pyx__GetModuleGlobalName>
    ed63:	48 89 c3             	mov    %rax,%rbx
    ed66:	48 85 c0             	test   %rax,%rax
    ed69:	0f 84 f9 0d 00 00    	je     fb68 <__pyx_pw_4main_7readbuttonvalues+0x1b54>
    ed6f:	31 d2                	xor    %edx,%edx
    ed71:	48 89 c6             	mov    %rax,%rsi
    ed74:	4c 89 e7             	mov    %r12,%rdi
    ed77:	e8 c4 56 ff ff       	call   4440 <PyObject_RichCompare@plt>
    ed7c:	49 89 c7             	mov    %rax,%r15
    ed7f:	48 85 c0             	test   %rax,%rax
    ed82:	0f 84 ed 0d 00 00    	je     fb75 <__pyx_pw_4main_7readbuttonvalues+0x1b61>
    ed88:	48 89 c7             	mov    %rax,%rdi
    ed8b:	e8 b9 c7 ff ff       	call   b549 <__Pyx_PyObject_IsTrue>
    ed90:	89 c5                	mov    %eax,%ebp
    ed92:	85 c0                	test   %eax,%eax
    ed94:	0f 88 ee 0d 00 00    	js     fb88 <__pyx_pw_4main_7readbuttonvalues+0x1b74>
    ed9a:	49 8b 17             	mov    (%r15),%rdx
    ed9d:	85 d2                	test   %edx,%edx
    ed9f:	78 10                	js     edb1 <__pyx_pw_4main_7readbuttonvalues+0xd9d>
    eda1:	48 ff ca             	dec    %rdx
    eda4:	49 89 17             	mov    %rdx,(%r15)
    eda7:	75 08                	jne    edb1 <__pyx_pw_4main_7readbuttonvalues+0xd9d>
    eda9:	4c 89 ff             	mov    %r15,%rdi
    edac:	e8 9f 58 ff ff       	call   4650 <_Py_Dealloc@plt>
    edb1:	85 ed                	test   %ebp,%ebp
    edb3:	74 11                	je     edc6 <__pyx_pw_4main_7readbuttonvalues+0xdb2>
    edb5:	41 8b 04 24          	mov    (%r12),%eax
    edb9:	ff c0                	inc    %eax
    edbb:	74 04                	je     edc1 <__pyx_pw_4main_7readbuttonvalues+0xdad>
    edbd:	41 89 04 24          	mov    %eax,(%r12)
    edc1:	4c 89 e5             	mov    %r12,%rbp
    edc4:	eb 0b                	jmp    edd1 <__pyx_pw_4main_7readbuttonvalues+0xdbd>
    edc6:	8b 03                	mov    (%rbx),%eax
    edc8:	ff c0                	inc    %eax
    edca:	74 02                	je     edce <__pyx_pw_4main_7readbuttonvalues+0xdba>
    edcc:	89 03                	mov    %eax,(%rbx)
    edce:	48 89 dd             	mov    %rbx,%rbp
    edd1:	48 8b 03             	mov    (%rbx),%rax
    edd4:	85 c0                	test   %eax,%eax
    edd6:	78 10                	js     ede8 <__pyx_pw_4main_7readbuttonvalues+0xdd4>
    edd8:	48 ff c8             	dec    %rax
    eddb:	48 89 03             	mov    %rax,(%rbx)
    edde:	75 08                	jne    ede8 <__pyx_pw_4main_7readbuttonvalues+0xdd4>
    ede0:	48 89 df             	mov    %rbx,%rdi
    ede3:	e8 68 58 ff ff       	call   4650 <_Py_Dealloc@plt>
    ede8:	49 8b 04 24          	mov    (%r12),%rax
    edec:	85 c0                	test   %eax,%eax
    edee:	78 11                	js     ee01 <__pyx_pw_4main_7readbuttonvalues+0xded>
    edf0:	48 ff c8             	dec    %rax
    edf3:	49 89 04 24          	mov    %rax,(%r12)
    edf7:	75 08                	jne    ee01 <__pyx_pw_4main_7readbuttonvalues+0xded>
    edf9:	4c 89 e7             	mov    %r12,%rdi
    edfc:	e8 4f 58 ff ff       	call   4650 <_Py_Dealloc@plt>
    ee01:	8b 45 00             	mov    0x0(%rbp),%eax
    ee04:	ff c0                	inc    %eax
    ee06:	74 03                	je     ee0b <__pyx_pw_4main_7readbuttonvalues+0xdf7>
    ee08:	89 45 00             	mov    %eax,0x0(%rbp)
    ee0b:	48 8b 45 00          	mov    0x0(%rbp),%rax
    ee0f:	85 c0                	test   %eax,%eax
    ee11:	78 11                	js     ee24 <__pyx_pw_4main_7readbuttonvalues+0xe10>
    ee13:	48 ff c8             	dec    %rax
    ee16:	48 89 45 00          	mov    %rax,0x0(%rbp)
    ee1a:	75 08                	jne    ee24 <__pyx_pw_4main_7readbuttonvalues+0xe10>
    ee1c:	48 89 ef             	mov    %rbp,%rdi
    ee1f:	e8 2c 58 ff ff       	call   4650 <_Py_Dealloc@plt>
    ee24:	48 8b 35 75 90 00 00 	mov    0x9075(%rip),%rsi        # 17ea0 <__pyx_mstate_global_static+0x240>
    ee2b:	48 8b 3d 2e 8e 00 00 	mov    0x8e2e(%rip),%rdi        # 17c60 <__pyx_mstate_global_static>
    ee32:	48 89 ea             	mov    %rbp,%rdx
    ee35:	e8 76 59 ff ff       	call   47b0 <PyDict_SetItem@plt>
    ee3a:	85 c0                	test   %eax,%eax
    ee3c:	0f 88 57 0d 00 00    	js     fb99 <__pyx_pw_4main_7readbuttonvalues+0x1b85>
    ee42:	48 8b 45 00          	mov    0x0(%rbp),%rax
    ee46:	85 c0                	test   %eax,%eax
    ee48:	78 11                	js     ee5b <__pyx_pw_4main_7readbuttonvalues+0xe47>
    ee4a:	48 ff c8             	dec    %rax
    ee4d:	48 89 45 00          	mov    %rax,0x0(%rbp)
    ee51:	75 08                	jne    ee5b <__pyx_pw_4main_7readbuttonvalues+0xe47>
    ee53:	48 89 ef             	mov    %rbp,%rdi
    ee56:	e8 f5 57 ff ff       	call   4650 <_Py_Dealloc@plt>
    ee5b:	48 8b 3d d6 8f 00 00 	mov    0x8fd6(%rip),%rdi        # 17e38 <__pyx_mstate_global_static+0x1d8>
    ee62:	e8 1d e3 ff ff       	call   d184 <__Pyx__GetModuleGlobalName>
    ee67:	49 89 c4             	mov    %rax,%r12
    ee6a:	48 85 c0             	test   %rax,%rax
    ee6d:	0f 84 3a 0d 00 00    	je     fbad <__pyx_pw_4main_7readbuttonvalues+0x1b99>
    ee73:	48 8b 35 a6 8e 00 00 	mov    0x8ea6(%rip),%rsi        # 17d20 <__pyx_mstate_global_static+0xc0>
    ee7a:	48 8d 1d bf 7f 00 00 	lea    0x7fbf(%rip),%rbx        # 16e40 <PyDict_Type@@Base>
    ee81:	48 89 c7             	mov    %rax,%rdi
    ee84:	48 39 58 08          	cmp    %rbx,0x8(%rax)
    ee88:	75 07                	jne    ee91 <__pyx_pw_4main_7readbuttonvalues+0xe7d>
    ee8a:	e8 65 d6 ff ff       	call   c4f4 <__Pyx_PyDict_GetItem>
    ee8f:	eb 05                	jmp    ee96 <__pyx_pw_4main_7readbuttonvalues+0xe82>
    ee91:	e8 9a 53 ff ff       	call   4230 <PyObject_GetItem@plt>
    ee96:	48 89 c5             	mov    %rax,%rbp
    ee99:	48 85 c0             	test   %rax,%rax
    ee9c:	0f 84 1a 0d 00 00    	je     fbbc <__pyx_pw_4main_7readbuttonvalues+0x1ba8>
    eea2:	49 8b 04 24          	mov    (%r12),%rax
    eea6:	85 c0                	test   %eax,%eax
    eea8:	78 11                	js     eebb <__pyx_pw_4main_7readbuttonvalues+0xea7>
    eeaa:	48 ff c8             	dec    %rax
    eead:	49 89 04 24          	mov    %rax,(%r12)
    eeb1:	75 08                	jne    eebb <__pyx_pw_4main_7readbuttonvalues+0xea7>
    eeb3:	4c 89 e7             	mov    %r12,%rdi
    eeb6:	e8 95 57 ff ff       	call   4650 <_Py_Dealloc@plt>
    eebb:	4c 8d 2d be 89 00 00 	lea    0x89be(%rip),%r13        # 17880 <PyLong_Type@@Base>
    eec2:	4c 39 6d 08          	cmp    %r13,0x8(%rbp)
    eec6:	75 0f                	jne    eed7 <__pyx_pw_4main_7readbuttonvalues+0xec3>
    eec8:	8b 45 00             	mov    0x0(%rbp),%eax
    eecb:	ff c0                	inc    %eax
    eecd:	74 03                	je     eed2 <__pyx_pw_4main_7readbuttonvalues+0xebe>
    eecf:	89 45 00             	mov    %eax,0x0(%rbp)
    eed2:	49 89 ec             	mov    %rbp,%r12
    eed5:	eb 17                	jmp    eeee <__pyx_pw_4main_7readbuttonvalues+0xeda>
    eed7:	48 89 ef             	mov    %rbp,%rdi
    eeda:	e8 d1 53 ff ff       	call   42b0 <PyNumber_Long@plt>
    eedf:	49 89 c7             	mov    %rax,%r15
    eee2:	48 85 c0             	test   %rax,%rax
    eee5:	0f 84 de 0c 00 00    	je     fbc9 <__pyx_pw_4main_7readbuttonvalues+0x1bb5>
    eeeb:	49 89 c4             	mov    %rax,%r12
    eeee:	48 8b 45 00          	mov    0x0(%rbp),%rax
    eef2:	85 c0                	test   %eax,%eax
    eef4:	78 11                	js     ef07 <__pyx_pw_4main_7readbuttonvalues+0xef3>
    eef6:	48 ff c8             	dec    %rax
    eef9:	48 89 45 00          	mov    %rax,0x0(%rbp)
    eefd:	75 08                	jne    ef07 <__pyx_pw_4main_7readbuttonvalues+0xef3>
    eeff:	48 89 ef             	mov    %rbp,%rdi
    ef02:	e8 49 57 ff ff       	call   4650 <_Py_Dealloc@plt>
    ef07:	48 8b 3d 7a 8f 00 00 	mov    0x8f7a(%rip),%rdi        # 17e88 <__pyx_mstate_global_static+0x228>
    ef0e:	e8 71 e2 ff ff       	call   d184 <__Pyx__GetModuleGlobalName>
    ef13:	48 89 c5             	mov    %rax,%rbp
    ef16:	48 85 c0             	test   %rax,%rax
    ef19:	0f 84 b7 0c 00 00    	je     fbd6 <__pyx_pw_4main_7readbuttonvalues+0x1bc2>
    ef1f:	ba 04 00 00 00       	mov    $0x4,%edx
    ef24:	48 89 c6             	mov    %rax,%rsi
    ef27:	4c 89 e7             	mov    %r12,%rdi
    ef2a:	e8 11 55 ff ff       	call   4440 <PyObject_RichCompare@plt>
    ef2f:	49 89 c7             	mov    %rax,%r15
    ef32:	48 85 c0             	test   %rax,%rax
    ef35:	0f 84 a8 0c 00 00    	je     fbe3 <__pyx_pw_4main_7readbuttonvalues+0x1bcf>
    ef3b:	48 89 c7             	mov    %rax,%rdi
    ef3e:	e8 06 c6 ff ff       	call   b549 <__Pyx_PyObject_IsTrue>
    ef43:	41 89 c6             	mov    %eax,%r14d
    ef46:	85 c0                	test   %eax,%eax
    ef48:	0f 88 a8 0c 00 00    	js     fbf6 <__pyx_pw_4main_7readbuttonvalues+0x1be2>
    ef4e:	49 8b 17             	mov    (%r15),%rdx
    ef51:	85 d2                	test   %edx,%edx
    ef53:	78 10                	js     ef65 <__pyx_pw_4main_7readbuttonvalues+0xf51>
    ef55:	48 ff ca             	dec    %rdx
    ef58:	49 89 17             	mov    %rdx,(%r15)
    ef5b:	75 08                	jne    ef65 <__pyx_pw_4main_7readbuttonvalues+0xf51>
    ef5d:	4c 89 ff             	mov    %r15,%rdi
    ef60:	e8 eb 56 ff ff       	call   4650 <_Py_Dealloc@plt>
    ef65:	45 85 f6             	test   %r14d,%r14d
    ef68:	74 11                	je     ef7b <__pyx_pw_4main_7readbuttonvalues+0xf67>
    ef6a:	41 8b 04 24          	mov    (%r12),%eax
    ef6e:	ff c0                	inc    %eax
    ef70:	74 04                	je     ef76 <__pyx_pw_4main_7readbuttonvalues+0xf62>
    ef72:	41 89 04 24          	mov    %eax,(%r12)
    ef76:	4d 89 e6             	mov    %r12,%r14
    ef79:	eb 0d                	jmp    ef88 <__pyx_pw_4main_7readbuttonvalues+0xf74>
    ef7b:	8b 45 00             	mov    0x0(%rbp),%eax
    ef7e:	ff c0                	inc    %eax
    ef80:	74 03                	je     ef85 <__pyx_pw_4main_7readbuttonvalues+0xf71>
    ef82:	89 45 00             	mov    %eax,0x0(%rbp)
    ef85:	49 89 ee             	mov    %rbp,%r14
    ef88:	48 8b 45 00          	mov    0x0(%rbp),%rax
    ef8c:	85 c0                	test   %eax,%eax
    ef8e:	78 11                	js     efa1 <__pyx_pw_4main_7readbuttonvalues+0xf8d>
    ef90:	48 ff c8             	dec    %rax
    ef93:	48 89 45 00          	mov    %rax,0x0(%rbp)
    ef97:	75 08                	jne    efa1 <__pyx_pw_4main_7readbuttonvalues+0xf8d>
    ef99:	48 89 ef             	mov    %rbp,%rdi
    ef9c:	e8 af 56 ff ff       	call   4650 <_Py_Dealloc@plt>
    efa1:	49 8b 04 24          	mov    (%r12),%rax
    efa5:	85 c0                	test   %eax,%eax
    efa7:	78 11                	js     efba <__pyx_pw_4main_7readbuttonvalues+0xfa6>
    efa9:	48 ff c8             	dec    %rax
    efac:	49 89 04 24          	mov    %rax,(%r12)
    efb0:	75 08                	jne    efba <__pyx_pw_4main_7readbuttonvalues+0xfa6>
    efb2:	4c 89 e7             	mov    %r12,%rdi
    efb5:	e8 96 56 ff ff       	call   4650 <_Py_Dealloc@plt>
    efba:	41 8b 06             	mov    (%r14),%eax
    efbd:	ff c0                	inc    %eax
    efbf:	74 03                	je     efc4 <__pyx_pw_4main_7readbuttonvalues+0xfb0>
    efc1:	41 89 06             	mov    %eax,(%r14)
    efc4:	49 8b 06             	mov    (%r14),%rax
    efc7:	85 c0                	test   %eax,%eax
    efc9:	78 10                	js     efdb <__pyx_pw_4main_7readbuttonvalues+0xfc7>
    efcb:	48 ff c8             	dec    %rax
    efce:	49 89 06             	mov    %rax,(%r14)
    efd1:	75 08                	jne    efdb <__pyx_pw_4main_7readbuttonvalues+0xfc7>
    efd3:	4c 89 f7             	mov    %r14,%rdi
    efd6:	e8 75 56 ff ff       	call   4650 <_Py_Dealloc@plt>
    efdb:	48 8b 35 a6 8e 00 00 	mov    0x8ea6(%rip),%rsi        # 17e88 <__pyx_mstate_global_static+0x228>
    efe2:	48 8b 3d 77 8c 00 00 	mov    0x8c77(%rip),%rdi        # 17c60 <__pyx_mstate_global_static>
    efe9:	4c 89 f2             	mov    %r14,%rdx
    efec:	e8 bf 57 ff ff       	call   47b0 <PyDict_SetItem@plt>
    eff1:	85 c0                	test   %eax,%eax
    eff3:	0f 88 10 0c 00 00    	js     fc09 <__pyx_pw_4main_7readbuttonvalues+0x1bf5>
    eff9:	49 8b 06             	mov    (%r14),%rax
    effc:	85 c0                	test   %eax,%eax
    effe:	78 10                	js     f010 <__pyx_pw_4main_7readbuttonvalues+0xffc>
    f000:	48 ff c8             	dec    %rax
    f003:	49 89 06             	mov    %rax,(%r14)
    f006:	75 08                	jne    f010 <__pyx_pw_4main_7readbuttonvalues+0xffc>
    f008:	4c 89 f7             	mov    %r14,%rdi
    f00b:	e8 40 56 ff ff       	call   4650 <_Py_Dealloc@plt>
    f010:	48 8b 3d 21 8e 00 00 	mov    0x8e21(%rip),%rdi        # 17e38 <__pyx_mstate_global_static+0x1d8>
    f017:	e8 68 e1 ff ff       	call   d184 <__Pyx__GetModuleGlobalName>
    f01c:	49 89 c4             	mov    %rax,%r12
    f01f:	48 85 c0             	test   %rax,%rax
    f022:	0f 84 f5 0b 00 00    	je     fc1d <__pyx_pw_4main_7readbuttonvalues+0x1c09>
    f028:	48 8b 35 01 8d 00 00 	mov    0x8d01(%rip),%rsi        # 17d30 <__pyx_mstate_global_static+0xd0>
    f02f:	48 89 c7             	mov    %rax,%rdi
    f032:	48 39 58 08          	cmp    %rbx,0x8(%rax)
    f036:	75 07                	jne    f03f <__pyx_pw_4main_7readbuttonvalues+0x102b>
    f038:	e8 b7 d4 ff ff       	call   c4f4 <__Pyx_PyDict_GetItem>
    f03d:	eb 05                	jmp    f044 <__pyx_pw_4main_7readbuttonvalues+0x1030>
    f03f:	e8 ec 51 ff ff       	call   4230 <PyObject_GetItem@plt>
    f044:	48 89 c3             	mov    %rax,%rbx
    f047:	48 85 c0             	test   %rax,%rax
    f04a:	0f 84 dc 0b 00 00    	je     fc2c <__pyx_pw_4main_7readbuttonvalues+0x1c18>
    f050:	49 8b 04 24          	mov    (%r12),%rax
    f054:	85 c0                	test   %eax,%eax
    f056:	78 11                	js     f069 <__pyx_pw_4main_7readbuttonvalues+0x1055>
    f058:	48 ff c8             	dec    %rax
    f05b:	49 89 04 24          	mov    %rax,(%r12)
    f05f:	75 08                	jne    f069 <__pyx_pw_4main_7readbuttonvalues+0x1055>
    f061:	4c 89 e7             	mov    %r12,%rdi
    f064:	e8 e7 55 ff ff       	call   4650 <_Py_Dealloc@plt>
    f069:	4c 39 6b 08          	cmp    %r13,0x8(%rbx)
    f06d:	75 0d                	jne    f07c <__pyx_pw_4main_7readbuttonvalues+0x1068>
    f06f:	8b 03                	mov    (%rbx),%eax
    f071:	ff c0                	inc    %eax
    f073:	74 02                	je     f077 <__pyx_pw_4main_7readbuttonvalues+0x1063>
    f075:	89 03                	mov    %eax,(%rbx)
    f077:	49 89 dc             	mov    %rbx,%r12
    f07a:	eb 17                	jmp    f093 <__pyx_pw_4main_7readbuttonvalues+0x107f>
    f07c:	48 89 df             	mov    %rbx,%rdi
    f07f:	e8 2c 52 ff ff       	call   42b0 <PyNumber_Long@plt>
    f084:	49 89 c7             	mov    %rax,%r15
    f087:	48 85 c0             	test   %rax,%rax
    f08a:	0f 84 a9 0b 00 00    	je     fc39 <__pyx_pw_4main_7readbuttonvalues+0x1c25>
    f090:	49 89 c4             	mov    %rax,%r12
    f093:	48 8b 03             	mov    (%rbx),%rax
    f096:	85 c0                	test   %eax,%eax
    f098:	78 10                	js     f0aa <__pyx_pw_4main_7readbuttonvalues+0x1096>
    f09a:	48 ff c8             	dec    %rax
    f09d:	48 89 03             	mov    %rax,(%rbx)
    f0a0:	75 08                	jne    f0aa <__pyx_pw_4main_7readbuttonvalues+0x1096>
    f0a2:	48 89 df             	mov    %rbx,%rdi
    f0a5:	e8 a6 55 ff ff       	call   4650 <_Py_Dealloc@plt>
    f0aa:	48 8b 3d df 8d 00 00 	mov    0x8ddf(%rip),%rdi        # 17e90 <__pyx_mstate_global_static+0x230>
    f0b1:	e8 ce e0 ff ff       	call   d184 <__Pyx__GetModuleGlobalName>
    f0b6:	48 89 c3             	mov    %rax,%rbx
    f0b9:	48 85 c0             	test   %rax,%rax
    f0bc:	0f 84 84 0b 00 00    	je     fc46 <__pyx_pw_4main_7readbuttonvalues+0x1c32>
    f0c2:	ba 04 00 00 00       	mov    $0x4,%edx
    f0c7:	48 89 c6             	mov    %rax,%rsi
    f0ca:	4c 89 e7             	mov    %r12,%rdi
    f0cd:	e8 6e 53 ff ff       	call   4440 <PyObject_RichCompare@plt>
    f0d2:	49 89 c7             	mov    %rax,%r15
    f0d5:	48 85 c0             	test   %rax,%rax
    f0d8:	0f 84 75 0b 00 00    	je     fc53 <__pyx_pw_4main_7readbuttonvalues+0x1c3f>
    f0de:	48 89 c7             	mov    %rax,%rdi
    f0e1:	e8 63 c4 ff ff       	call   b549 <__Pyx_PyObject_IsTrue>
    f0e6:	89 c5                	mov    %eax,%ebp
    f0e8:	85 c0                	test   %eax,%eax
    f0ea:	0f 88 76 0b 00 00    	js     fc66 <__pyx_pw_4main_7readbuttonvalues+0x1c52>
    f0f0:	49 8b 17             	mov    (%r15),%rdx
    f0f3:	85 d2                	test   %edx,%edx
    f0f5:	78 10                	js     f107 <__pyx_pw_4main_7readbuttonvalues+0x10f3>
    f0f7:	48 ff ca             	dec    %rdx
    f0fa:	49 89 17             	mov    %rdx,(%r15)
    f0fd:	75 08                	jne    f107 <__pyx_pw_4main_7readbuttonvalues+0x10f3>
    f0ff:	4c 89 ff             	mov    %r15,%rdi
    f102:	e8 49 55 ff ff       	call   4650 <_Py_Dealloc@plt>
    f107:	85 ed                	test   %ebp,%ebp
    f109:	74 11                	je     f11c <__pyx_pw_4main_7readbuttonvalues+0x1108>
    f10b:	41 8b 04 24          	mov    (%r12),%eax
    f10f:	ff c0                	inc    %eax
    f111:	74 04                	je     f117 <__pyx_pw_4main_7readbuttonvalues+0x1103>
    f113:	41 89 04 24          	mov    %eax,(%r12)
    f117:	4c 89 e5             	mov    %r12,%rbp
    f11a:	eb 0b                	jmp    f127 <__pyx_pw_4main_7readbuttonvalues+0x1113>
    f11c:	8b 03                	mov    (%rbx),%eax
    f11e:	ff c0                	inc    %eax
    f120:	74 02                	je     f124 <__pyx_pw_4main_7readbuttonvalues+0x1110>
    f122:	89 03                	mov    %eax,(%rbx)
    f124:	48 89 dd             	mov    %rbx,%rbp
    f127:	48 8b 03             	mov    (%rbx),%rax
    f12a:	85 c0                	test   %eax,%eax
    f12c:	78 10                	js     f13e <__pyx_pw_4main_7readbuttonvalues+0x112a>
    f12e:	48 ff c8             	dec    %rax
    f131:	48 89 03             	mov    %rax,(%rbx)
    f134:	75 08                	jne    f13e <__pyx_pw_4main_7readbuttonvalues+0x112a>
    f136:	48 89 df             	mov    %rbx,%rdi
    f139:	e8 12 55 ff ff       	call   4650 <_Py_Dealloc@plt>
    f13e:	49 8b 04 24          	mov    (%r12),%rax
    f142:	85 c0                	test   %eax,%eax
    f144:	78 11                	js     f157 <__pyx_pw_4main_7readbuttonvalues+0x1143>
    f146:	48 ff c8             	dec    %rax
    f149:	49 89 04 24          	mov    %rax,(%r12)
    f14d:	75 08                	jne    f157 <__pyx_pw_4main_7readbuttonvalues+0x1143>
    f14f:	4c 89 e7             	mov    %r12,%rdi
    f152:	e8 f9 54 ff ff       	call   4650 <_Py_Dealloc@plt>
    f157:	8b 45 00             	mov    0x0(%rbp),%eax
    f15a:	ff c0                	inc    %eax
    f15c:	74 03                	je     f161 <__pyx_pw_4main_7readbuttonvalues+0x114d>
    f15e:	89 45 00             	mov    %eax,0x0(%rbp)
    f161:	48 8b 45 00          	mov    0x0(%rbp),%rax
    f165:	85 c0                	test   %eax,%eax
    f167:	78 11                	js     f17a <__pyx_pw_4main_7readbuttonvalues+0x1166>
    f169:	48 ff c8             	dec    %rax
    f16c:	48 89 45 00          	mov    %rax,0x0(%rbp)
    f170:	75 08                	jne    f17a <__pyx_pw_4main_7readbuttonvalues+0x1166>
    f172:	48 89 ef             	mov    %rbp,%rdi
    f175:	e8 d6 54 ff ff       	call   4650 <_Py_Dealloc@plt>
    f17a:	48 8b 35 0f 8d 00 00 	mov    0x8d0f(%rip),%rsi        # 17e90 <__pyx_mstate_global_static+0x230>
    f181:	48 8b 3d d8 8a 00 00 	mov    0x8ad8(%rip),%rdi        # 17c60 <__pyx_mstate_global_static>
    f188:	48 89 ea             	mov    %rbp,%rdx
    f18b:	e8 20 56 ff ff       	call   47b0 <PyDict_SetItem@plt>
    f190:	85 c0                	test   %eax,%eax
    f192:	0f 88 df 0a 00 00    	js     fc77 <__pyx_pw_4main_7readbuttonvalues+0x1c63>
    f198:	48 8b 45 00          	mov    0x0(%rbp),%rax
    f19c:	85 c0                	test   %eax,%eax
    f19e:	78 11                	js     f1b1 <__pyx_pw_4main_7readbuttonvalues+0x119d>
    f1a0:	48 ff c8             	dec    %rax
    f1a3:	48 89 45 00          	mov    %rax,0x0(%rbp)
    f1a7:	75 08                	jne    f1b1 <__pyx_pw_4main_7readbuttonvalues+0x119d>
    f1a9:	48 89 ef             	mov    %rbp,%rdi
    f1ac:	e8 9f 54 ff ff       	call   4650 <_Py_Dealloc@plt>
    f1b1:	48 8b 3d d0 8c 00 00 	mov    0x8cd0(%rip),%rdi        # 17e88 <__pyx_mstate_global_static+0x228>
    f1b8:	e8 c7 df ff ff       	call   d184 <__Pyx__GetModuleGlobalName>
    f1bd:	49 89 c4             	mov    %rax,%r12
    f1c0:	48 85 c0             	test   %rax,%rax
    f1c3:	0f 84 c2 0a 00 00    	je     fc8b <__pyx_pw_4main_7readbuttonvalues+0x1c77>
    f1c9:	48 8b 3d c8 8c 00 00 	mov    0x8cc8(%rip),%rdi        # 17e98 <__pyx_mstate_global_static+0x238>
    f1d0:	e8 af df ff ff       	call   d184 <__Pyx__GetModuleGlobalName>
    f1d5:	48 89 c5             	mov    %rax,%rbp
    f1d8:	48 85 c0             	test   %rax,%rax
    f1db:	0f 84 b9 0a 00 00    	je     fc9a <__pyx_pw_4main_7readbuttonvalues+0x1c86>
    f1e1:	48 89 c6             	mov    %rax,%rsi
    f1e4:	4c 89 e7             	mov    %r12,%rdi
    f1e7:	e8 14 53 ff ff       	call   4500 <PyNumber_Subtract@plt>
    f1ec:	48 89 c3             	mov    %rax,%rbx
    f1ef:	48 85 c0             	test   %rax,%rax
    f1f2:	0f 84 af 0a 00 00    	je     fca7 <__pyx_pw_4main_7readbuttonvalues+0x1c93>
    f1f8:	49 8b 04 24          	mov    (%r12),%rax
    f1fc:	85 c0                	test   %eax,%eax
    f1fe:	78 11                	js     f211 <__pyx_pw_4main_7readbuttonvalues+0x11fd>
    f200:	48 ff c8             	dec    %rax
    f203:	49 89 04 24          	mov    %rax,(%r12)
    f207:	75 08                	jne    f211 <__pyx_pw_4main_7readbuttonvalues+0x11fd>
    f209:	4c 89 e7             	mov    %r12,%rdi
    f20c:	e8 3f 54 ff ff       	call   4650 <_Py_Dealloc@plt>
    f211:	48 8b 45 00          	mov    0x0(%rbp),%rax
    f215:	85 c0                	test   %eax,%eax
    f217:	78 11                	js     f22a <__pyx_pw_4main_7readbuttonvalues+0x1216>
    f219:	48 ff c8             	dec    %rax
    f21c:	48 89 45 00          	mov    %rax,0x0(%rbp)
    f220:	75 08                	jne    f22a <__pyx_pw_4main_7readbuttonvalues+0x1216>
    f222:	48 89 ef             	mov    %rbp,%rdi
    f225:	e8 26 54 ff ff       	call   4650 <_Py_Dealloc@plt>
    f22a:	48 8b 35 9f 8d 00 00 	mov    0x8d9f(%rip),%rsi        # 17fd0 <__pyx_mstate_global_static+0x370>
    f231:	48 89 df             	mov    %rbx,%rdi
    f234:	e8 eb d4 ff ff       	call   c724 <__Pyx_PyInt_BoolNeObjC.constprop.0>
    f239:	89 c5                	mov    %eax,%ebp
    f23b:	85 c0                	test   %eax,%eax
    f23d:	0f 88 78 0a 00 00    	js     fcbb <__pyx_pw_4main_7readbuttonvalues+0x1ca7>
    f243:	48 8b 13             	mov    (%rbx),%rdx
    f246:	85 d2                	test   %edx,%edx
    f248:	78 10                	js     f25a <__pyx_pw_4main_7readbuttonvalues+0x1246>
    f24a:	48 ff ca             	dec    %rdx
    f24d:	48 89 13             	mov    %rdx,(%rbx)
    f250:	75 08                	jne    f25a <__pyx_pw_4main_7readbuttonvalues+0x1246>
    f252:	48 89 df             	mov    %rbx,%rdi
    f255:	e8 f6 53 ff ff       	call   4650 <_Py_Dealloc@plt>
    f25a:	48 8b 3d d7 8b 00 00 	mov    0x8bd7(%rip),%rdi        # 17e38 <__pyx_mstate_global_static+0x1d8>
    f261:	85 ed                	test   %ebp,%ebp
    f263:	0f 84 3d 02 00 00    	je     f4a6 <__pyx_pw_4main_7readbuttonvalues+0x1492>
    f269:	e8 16 df ff ff       	call   d184 <__Pyx__GetModuleGlobalName>
    f26e:	48 89 c3             	mov    %rax,%rbx
    f271:	48 85 c0             	test   %rax,%rax
    f274:	0f 84 52 0a 00 00    	je     fccc <__pyx_pw_4main_7readbuttonvalues+0x1cb8>
    f27a:	48 8b 35 9f 8a 00 00 	mov    0x8a9f(%rip),%rsi        # 17d20 <__pyx_mstate_global_static+0xc0>
    f281:	48 8d 05 b8 7b 00 00 	lea    0x7bb8(%rip),%rax        # 16e40 <PyDict_Type@@Base>
    f288:	48 89 df             	mov    %rbx,%rdi
    f28b:	48 39 43 08          	cmp    %rax,0x8(%rbx)
    f28f:	75 07                	jne    f298 <__pyx_pw_4main_7readbuttonvalues+0x1284>
    f291:	e8 5e d2 ff ff       	call   c4f4 <__Pyx_PyDict_GetItem>
    f296:	eb 05                	jmp    f29d <__pyx_pw_4main_7readbuttonvalues+0x1289>
    f298:	e8 93 4f ff ff       	call   4230 <PyObject_GetItem@plt>
    f29d:	48 89 c5             	mov    %rax,%rbp
    f2a0:	48 85 c0             	test   %rax,%rax
    f2a3:	0f 84 33 0a 00 00    	je     fcdc <__pyx_pw_4main_7readbuttonvalues+0x1cc8>
    f2a9:	48 8b 03             	mov    (%rbx),%rax
    f2ac:	85 c0                	test   %eax,%eax
    f2ae:	78 10                	js     f2c0 <__pyx_pw_4main_7readbuttonvalues+0x12ac>
    f2b0:	48 ff c8             	dec    %rax
    f2b3:	48 89 03             	mov    %rax,(%rbx)
    f2b6:	75 08                	jne    f2c0 <__pyx_pw_4main_7readbuttonvalues+0x12ac>
    f2b8:	48 89 df             	mov    %rbx,%rdi
    f2bb:	e8 90 53 ff ff       	call   4650 <_Py_Dealloc@plt>
    f2c0:	48 8d 05 b9 85 00 00 	lea    0x85b9(%rip),%rax        # 17880 <PyLong_Type@@Base>
    f2c7:	48 39 45 08          	cmp    %rax,0x8(%rbp)
    f2cb:	75 0f                	jne    f2dc <__pyx_pw_4main_7readbuttonvalues+0x12c8>
    f2cd:	8b 45 00             	mov    0x0(%rbp),%eax
    f2d0:	ff c0                	inc    %eax
    f2d2:	74 03                	je     f2d7 <__pyx_pw_4main_7readbuttonvalues+0x12c3>
    f2d4:	89 45 00             	mov    %eax,0x0(%rbp)
    f2d7:	48 89 eb             	mov    %rbp,%rbx
    f2da:	eb 17                	jmp    f2f3 <__pyx_pw_4main_7readbuttonvalues+0x12df>
    f2dc:	48 89 ef             	mov    %rbp,%rdi
    f2df:	e8 cc 4f ff ff       	call   42b0 <PyNumber_Long@plt>
    f2e4:	49 89 c7             	mov    %rax,%r15
    f2e7:	48 85 c0             	test   %rax,%rax
    f2ea:	0f 84 fa 09 00 00    	je     fcea <__pyx_pw_4main_7readbuttonvalues+0x1cd6>
    f2f0:	48 89 c3             	mov    %rax,%rbx
    f2f3:	48 8b 45 00          	mov    0x0(%rbp),%rax
    f2f7:	85 c0                	test   %eax,%eax
    f2f9:	78 11                	js     f30c <__pyx_pw_4main_7readbuttonvalues+0x12f8>
    f2fb:	48 ff c8             	dec    %rax
    f2fe:	48 89 45 00          	mov    %rax,0x0(%rbp)
    f302:	75 08                	jne    f30c <__pyx_pw_4main_7readbuttonvalues+0x12f8>
    f304:	48 89 ef             	mov    %rbp,%rdi
    f307:	e8 44 53 ff ff       	call   4650 <_Py_Dealloc@plt>
    f30c:	48 8b 3d 85 8b 00 00 	mov    0x8b85(%rip),%rdi        # 17e98 <__pyx_mstate_global_static+0x238>
    f313:	e8 6c de ff ff       	call   d184 <__Pyx__GetModuleGlobalName>
    f318:	48 89 c5             	mov    %rax,%rbp
    f31b:	48 85 c0             	test   %rax,%rax
    f31e:	0f 84 d3 09 00 00    	je     fcf7 <__pyx_pw_4main_7readbuttonvalues+0x1ce3>
    f324:	48 89 c6             	mov    %rax,%rsi
    f327:	48 89 df             	mov    %rbx,%rdi
    f32a:	e8 d1 51 ff ff       	call   4500 <PyNumber_Subtract@plt>
    f32f:	49 89 c4             	mov    %rax,%r12
    f332:	48 85 c0             	test   %rax,%rax
    f335:	0f 84 ca 09 00 00    	je     fd05 <__pyx_pw_4main_7readbuttonvalues+0x1cf1>
    f33b:	48 8b 03             	mov    (%rbx),%rax
    f33e:	85 c0                	test   %eax,%eax
    f340:	78 10                	js     f352 <__pyx_pw_4main_7readbuttonvalues+0x133e>
    f342:	48 ff c8             	dec    %rax
    f345:	48 89 03             	mov    %rax,(%rbx)
    f348:	75 08                	jne    f352 <__pyx_pw_4main_7readbuttonvalues+0x133e>
    f34a:	48 89 df             	mov    %rbx,%rdi
    f34d:	e8 fe 52 ff ff       	call   4650 <_Py_Dealloc@plt>
    f352:	48 8b 45 00          	mov    0x0(%rbp),%rax
    f356:	85 c0                	test   %eax,%eax
    f358:	78 11                	js     f36b <__pyx_pw_4main_7readbuttonvalues+0x1357>
    f35a:	48 ff c8             	dec    %rax
    f35d:	48 89 45 00          	mov    %rax,0x0(%rbp)
    f361:	75 08                	jne    f36b <__pyx_pw_4main_7readbuttonvalues+0x1357>
    f363:	48 89 ef             	mov    %rbp,%rdi
    f366:	e8 e5 52 ff ff       	call   4650 <_Py_Dealloc@plt>
    f36b:	48 8b 3d 16 8b 00 00 	mov    0x8b16(%rip),%rdi        # 17e88 <__pyx_mstate_global_static+0x228>
    f372:	e8 0d de ff ff       	call   d184 <__Pyx__GetModuleGlobalName>
    f377:	48 89 c5             	mov    %rax,%rbp
    f37a:	48 85 c0             	test   %rax,%rax
    f37d:	0f 84 8d 09 00 00    	je     fd10 <__pyx_pw_4main_7readbuttonvalues+0x1cfc>
    f383:	48 8b 3d 0e 8b 00 00 	mov    0x8b0e(%rip),%rdi        # 17e98 <__pyx_mstate_global_static+0x238>
    f38a:	e8 f5 dd ff ff       	call   d184 <__Pyx__GetModuleGlobalName>
    f38f:	48 89 c3             	mov    %rax,%rbx
    f392:	48 85 c0             	test   %rax,%rax
    f395:	0f 84 82 09 00 00    	je     fd1d <__pyx_pw_4main_7readbuttonvalues+0x1d09>
    f39b:	48 89 c6             	mov    %rax,%rsi
    f39e:	48 89 ef             	mov    %rbp,%rdi
    f3a1:	e8 5a 51 ff ff       	call   4500 <PyNumber_Subtract@plt>
    f3a6:	49 89 c7             	mov    %rax,%r15
    f3a9:	48 85 c0             	test   %rax,%rax
    f3ac:	0f 84 76 09 00 00    	je     fd28 <__pyx_pw_4main_7readbuttonvalues+0x1d14>
    f3b2:	48 8b 45 00          	mov    0x0(%rbp),%rax
    f3b6:	85 c0                	test   %eax,%eax
    f3b8:	78 11                	js     f3cb <__pyx_pw_4main_7readbuttonvalues+0x13b7>
    f3ba:	48 ff c8             	dec    %rax
    f3bd:	48 89 45 00          	mov    %rax,0x0(%rbp)
    f3c1:	75 08                	jne    f3cb <__pyx_pw_4main_7readbuttonvalues+0x13b7>
    f3c3:	48 89 ef             	mov    %rbp,%rdi
    f3c6:	e8 85 52 ff ff       	call   4650 <_Py_Dealloc@plt>
    f3cb:	48 8b 03             	mov    (%rbx),%rax
    f3ce:	85 c0                	test   %eax,%eax
    f3d0:	78 10                	js     f3e2 <__pyx_pw_4main_7readbuttonvalues+0x13ce>
    f3d2:	48 ff c8             	dec    %rax
    f3d5:	48 89 03             	mov    %rax,(%rbx)
    f3d8:	75 08                	jne    f3e2 <__pyx_pw_4main_7readbuttonvalues+0x13ce>
    f3da:	48 89 df             	mov    %rbx,%rdi
    f3dd:	e8 6e 52 ff ff       	call   4650 <_Py_Dealloc@plt>
    f3e2:	4c 89 fe             	mov    %r15,%rsi
    f3e5:	4c 89 e7             	mov    %r12,%rdi
    f3e8:	e8 23 53 ff ff       	call   4710 <PyNumber_TrueDivide@plt>
    f3ed:	48 89 c3             	mov    %rax,%rbx
    f3f0:	48 85 c0             	test   %rax,%rax
    f3f3:	0f 84 37 09 00 00    	je     fd30 <__pyx_pw_4main_7readbuttonvalues+0x1d1c>
    f3f9:	49 8b 04 24          	mov    (%r12),%rax
    f3fd:	85 c0                	test   %eax,%eax
    f3ff:	78 11                	js     f412 <__pyx_pw_4main_7readbuttonvalues+0x13fe>
    f401:	48 ff c8             	dec    %rax
    f404:	49 89 04 24          	mov    %rax,(%r12)
    f408:	75 08                	jne    f412 <__pyx_pw_4main_7readbuttonvalues+0x13fe>
    f40a:	4c 89 e7             	mov    %r12,%rdi
    f40d:	e8 3e 52 ff ff       	call   4650 <_Py_Dealloc@plt>
    f412:	49 8b 07             	mov    (%r15),%rax
    f415:	85 c0                	test   %eax,%eax
    f417:	78 10                	js     f429 <__pyx_pw_4main_7readbuttonvalues+0x1415>
    f419:	48 ff c8             	dec    %rax
    f41c:	49 89 07             	mov    %rax,(%r15)
    f41f:	75 08                	jne    f429 <__pyx_pw_4main_7readbuttonvalues+0x1415>
    f421:	4c 89 ff             	mov    %r15,%rdi
    f424:	e8 27 52 ff ff       	call   4650 <_Py_Dealloc@plt>
    f429:	48 8b 35 b0 8b 00 00 	mov    0x8bb0(%rip),%rsi        # 17fe0 <__pyx_mstate_global_static+0x380>
    f430:	48 89 df             	mov    %rbx,%rdi
    f433:	e8 7a d3 ff ff       	call   c7b2 <__Pyx_PyInt_MultiplyObjC.constprop.0>
    f438:	49 89 c7             	mov    %rax,%r15
    f43b:	48 85 c0             	test   %rax,%rax
    f43e:	0f 84 f6 08 00 00    	je     fd3a <__pyx_pw_4main_7readbuttonvalues+0x1d26>
    f444:	48 8b 03             	mov    (%rbx),%rax
    f447:	85 c0                	test   %eax,%eax
    f449:	78 10                	js     f45b <__pyx_pw_4main_7readbuttonvalues+0x1447>
    f44b:	48 ff c8             	dec    %rax
    f44e:	48 89 03             	mov    %rax,(%rbx)
    f451:	75 08                	jne    f45b <__pyx_pw_4main_7readbuttonvalues+0x1447>
    f453:	48 89 df             	mov    %rbx,%rdi
    f456:	e8 f5 51 ff ff       	call   4650 <_Py_Dealloc@plt>
    f45b:	48 8b 3d d6 89 00 00 	mov    0x89d6(%rip),%rdi        # 17e38 <__pyx_mstate_global_static+0x1d8>
    f462:	e8 1d dd ff ff       	call   d184 <__Pyx__GetModuleGlobalName>
    f467:	48 89 c3             	mov    %rax,%rbx
    f46a:	48 85 c0             	test   %rax,%rax
    f46d:	0f 84 d4 08 00 00    	je     fd47 <__pyx_pw_4main_7readbuttonvalues+0x1d33>
    f473:	48 8b 35 a6 88 00 00 	mov    0x88a6(%rip),%rsi        # 17d20 <__pyx_mstate_global_static+0xc0>
    f47a:	4c 89 fa             	mov    %r15,%rdx
    f47d:	48 89 c7             	mov    %rax,%rdi
    f480:	e8 ab 4f ff ff       	call   4430 <PyObject_SetItem@plt>
    f485:	85 c0                	test   %eax,%eax
    f487:	0f 88 d0 08 00 00    	js     fd5d <__pyx_pw_4main_7readbuttonvalues+0x1d49>
    f48d:	48 8b 03             	mov    (%rbx),%rax
    f490:	85 c0                	test   %eax,%eax
    f492:	78 41                	js     f4d5 <__pyx_pw_4main_7readbuttonvalues+0x14c1>
    f494:	48 ff c8             	dec    %rax
    f497:	48 89 03             	mov    %rax,(%rbx)
    f49a:	75 39                	jne    f4d5 <__pyx_pw_4main_7readbuttonvalues+0x14c1>
    f49c:	48 89 df             	mov    %rbx,%rdi
    f49f:	e8 ac 51 ff ff       	call   4650 <_Py_Dealloc@plt>
    f4a4:	eb 2f                	jmp    f4d5 <__pyx_pw_4main_7readbuttonvalues+0x14c1>
    f4a6:	e8 d9 dc ff ff       	call   d184 <__Pyx__GetModuleGlobalName>
    f4ab:	49 89 c7             	mov    %rax,%r15
    f4ae:	48 85 c0             	test   %rax,%rax
    f4b1:	0f 84 b7 08 00 00    	je     fd6e <__pyx_pw_4main_7readbuttonvalues+0x1d5a>
    f4b7:	48 8b 15 12 8b 00 00 	mov    0x8b12(%rip),%rdx        # 17fd0 <__pyx_mstate_global_static+0x370>
    f4be:	48 8b 35 5b 88 00 00 	mov    0x885b(%rip),%rsi        # 17d20 <__pyx_mstate_global_static+0xc0>
    f4c5:	48 89 c7             	mov    %rax,%rdi
    f4c8:	e8 63 4f ff ff       	call   4430 <PyObject_SetItem@plt>
    f4cd:	85 c0                	test   %eax,%eax
    f4cf:	0f 88 b1 08 00 00    	js     fd86 <__pyx_pw_4main_7readbuttonvalues+0x1d72>
    f4d5:	49 8b 07             	mov    (%r15),%rax
    f4d8:	85 c0                	test   %eax,%eax
    f4da:	78 10                	js     f4ec <__pyx_pw_4main_7readbuttonvalues+0x14d8>
    f4dc:	48 ff c8             	dec    %rax
    f4df:	49 89 07             	mov    %rax,(%r15)
    f4e2:	75 08                	jne    f4ec <__pyx_pw_4main_7readbuttonvalues+0x14d8>
    f4e4:	4c 89 ff             	mov    %r15,%rdi
    f4e7:	e8 64 51 ff ff       	call   4650 <_Py_Dealloc@plt>
    f4ec:	48 8b 3d 9d 89 00 00 	mov    0x899d(%rip),%rdi        # 17e90 <__pyx_mstate_global_static+0x230>
    f4f3:	e8 8c dc ff ff       	call   d184 <__Pyx__GetModuleGlobalName>
    f4f8:	49 89 c7             	mov    %rax,%r15
    f4fb:	48 85 c0             	test   %rax,%rax
    f4fe:	0f 84 93 08 00 00    	je     fd97 <__pyx_pw_4main_7readbuttonvalues+0x1d83>
    f504:	48 8b 3d 95 89 00 00 	mov    0x8995(%rip),%rdi        # 17ea0 <__pyx_mstate_global_static+0x240>
    f50b:	e8 74 dc ff ff       	call   d184 <__Pyx__GetModuleGlobalName>
    f510:	48 89 c3             	mov    %rax,%rbx
    f513:	48 85 c0             	test   %rax,%rax
    f516:	0f 84 8a 08 00 00    	je     fda6 <__pyx_pw_4main_7readbuttonvalues+0x1d92>
    f51c:	48 89 c6             	mov    %rax,%rsi
    f51f:	4c 89 ff             	mov    %r15,%rdi
    f522:	e8 d9 4f ff ff       	call   4500 <PyNumber_Subtract@plt>
    f527:	49 89 c4             	mov    %rax,%r12
    f52a:	48 85 c0             	test   %rax,%rax
    f52d:	0f 84 80 08 00 00    	je     fdb3 <__pyx_pw_4main_7readbuttonvalues+0x1d9f>
    f533:	49 8b 07             	mov    (%r15),%rax
    f536:	85 c0                	test   %eax,%eax
    f538:	78 10                	js     f54a <__pyx_pw_4main_7readbuttonvalues+0x1536>
    f53a:	48 ff c8             	dec    %rax
    f53d:	49 89 07             	mov    %rax,(%r15)
    f540:	75 08                	jne    f54a <__pyx_pw_4main_7readbuttonvalues+0x1536>
    f542:	4c 89 ff             	mov    %r15,%rdi
    f545:	e8 06 51 ff ff       	call   4650 <_Py_Dealloc@plt>
    f54a:	48 8b 03             	mov    (%rbx),%rax
    f54d:	85 c0                	test   %eax,%eax
    f54f:	78 10                	js     f561 <__pyx_pw_4main_7readbuttonvalues+0x154d>
    f551:	48 ff c8             	dec    %rax
    f554:	48 89 03             	mov    %rax,(%rbx)
    f557:	75 08                	jne    f561 <__pyx_pw_4main_7readbuttonvalues+0x154d>
    f559:	48 89 df             	mov    %rbx,%rdi
    f55c:	e8 ef 50 ff ff       	call   4650 <_Py_Dealloc@plt>
    f561:	48 8b 35 68 8a 00 00 	mov    0x8a68(%rip),%rsi        # 17fd0 <__pyx_mstate_global_static+0x370>
    f568:	4c 89 e7             	mov    %r12,%rdi
    f56b:	e8 b4 d1 ff ff       	call   c724 <__Pyx_PyInt_BoolNeObjC.constprop.0>
    f570:	89 c3                	mov    %eax,%ebx
    f572:	85 c0                	test   %eax,%eax
    f574:	0f 88 4c 08 00 00    	js     fdc6 <__pyx_pw_4main_7readbuttonvalues+0x1db2>
    f57a:	49 8b 14 24          	mov    (%r12),%rdx
    f57e:	85 d2                	test   %edx,%edx
    f580:	78 11                	js     f593 <__pyx_pw_4main_7readbuttonvalues+0x157f>
    f582:	48 ff ca             	dec    %rdx
    f585:	49 89 14 24          	mov    %rdx,(%r12)
    f589:	75 08                	jne    f593 <__pyx_pw_4main_7readbuttonvalues+0x157f>
    f58b:	4c 89 e7             	mov    %r12,%rdi
    f58e:	e8 bd 50 ff ff       	call   4650 <_Py_Dealloc@plt>
    f593:	48 8b 3d 9e 88 00 00 	mov    0x889e(%rip),%rdi        # 17e38 <__pyx_mstate_global_static+0x1d8>
    f59a:	85 db                	test   %ebx,%ebx
    f59c:	0f 84 40 02 00 00    	je     f7e2 <__pyx_pw_4main_7readbuttonvalues+0x17ce>
    f5a2:	e8 dd db ff ff       	call   d184 <__Pyx__GetModuleGlobalName>
    f5a7:	49 89 c4             	mov    %rax,%r12
    f5aa:	48 85 c0             	test   %rax,%rax
    f5ad:	0f 84 26 08 00 00    	je     fdd9 <__pyx_pw_4main_7readbuttonvalues+0x1dc5>
    f5b3:	48 8b 35 76 87 00 00 	mov    0x8776(%rip),%rsi        # 17d30 <__pyx_mstate_global_static+0xd0>
    f5ba:	48 8d 05 7f 78 00 00 	lea    0x787f(%rip),%rax        # 16e40 <PyDict_Type@@Base>
    f5c1:	4c 89 e7             	mov    %r12,%rdi
    f5c4:	49 39 44 24 08       	cmp    %rax,0x8(%r12)
    f5c9:	75 07                	jne    f5d2 <__pyx_pw_4main_7readbuttonvalues+0x15be>
    f5cb:	e8 24 cf ff ff       	call   c4f4 <__Pyx_PyDict_GetItem>
    f5d0:	eb 05                	jmp    f5d7 <__pyx_pw_4main_7readbuttonvalues+0x15c3>
    f5d2:	e8 59 4c ff ff       	call   4230 <PyObject_GetItem@plt>
    f5d7:	48 89 c3             	mov    %rax,%rbx
    f5da:	48 85 c0             	test   %rax,%rax
    f5dd:	0f 84 05 08 00 00    	je     fde8 <__pyx_pw_4main_7readbuttonvalues+0x1dd4>
    f5e3:	49 8b 04 24          	mov    (%r12),%rax
    f5e7:	85 c0                	test   %eax,%eax
    f5e9:	78 11                	js     f5fc <__pyx_pw_4main_7readbuttonvalues+0x15e8>
    f5eb:	48 ff c8             	dec    %rax
    f5ee:	49 89 04 24          	mov    %rax,(%r12)
    f5f2:	75 08                	jne    f5fc <__pyx_pw_4main_7readbuttonvalues+0x15e8>
    f5f4:	4c 89 e7             	mov    %r12,%rdi
    f5f7:	e8 54 50 ff ff       	call   4650 <_Py_Dealloc@plt>
    f5fc:	48 8d 05 7d 82 00 00 	lea    0x827d(%rip),%rax        # 17880 <PyLong_Type@@Base>
    f603:	48 39 43 08          	cmp    %rax,0x8(%rbx)
    f607:	75 0d                	jne    f616 <__pyx_pw_4main_7readbuttonvalues+0x1602>
    f609:	8b 03                	mov    (%rbx),%eax
    f60b:	ff c0                	inc    %eax
    f60d:	74 02                	je     f611 <__pyx_pw_4main_7readbuttonvalues+0x15fd>
    f60f:	89 03                	mov    %eax,(%rbx)
    f611:	49 89 dc             	mov    %rbx,%r12
    f614:	eb 17                	jmp    f62d <__pyx_pw_4main_7readbuttonvalues+0x1619>
    f616:	48 89 df             	mov    %rbx,%rdi
    f619:	e8 92 4c ff ff       	call   42b0 <PyNumber_Long@plt>
    f61e:	49 89 c7             	mov    %rax,%r15
    f621:	48 85 c0             	test   %rax,%rax
    f624:	0f 84 cb 07 00 00    	je     fdf5 <__pyx_pw_4main_7readbuttonvalues+0x1de1>
    f62a:	49 89 c4             	mov    %rax,%r12
    f62d:	48 8b 03             	mov    (%rbx),%rax
    f630:	85 c0                	test   %eax,%eax
    f632:	78 10                	js     f644 <__pyx_pw_4main_7readbuttonvalues+0x1630>
    f634:	48 ff c8             	dec    %rax
    f637:	48 89 03             	mov    %rax,(%rbx)
    f63a:	75 08                	jne    f644 <__pyx_pw_4main_7readbuttonvalues+0x1630>
    f63c:	48 89 df             	mov    %rbx,%rdi
    f63f:	e8 0c 50 ff ff       	call   4650 <_Py_Dealloc@plt>
    f644:	48 8b 3d 55 88 00 00 	mov    0x8855(%rip),%rdi        # 17ea0 <__pyx_mstate_global_static+0x240>
    f64b:	e8 34 db ff ff       	call   d184 <__Pyx__GetModuleGlobalName>
    f650:	48 89 c3             	mov    %rax,%rbx
    f653:	48 85 c0             	test   %rax,%rax
    f656:	0f 84 a6 07 00 00    	je     fe02 <__pyx_pw_4main_7readbuttonvalues+0x1dee>
    f65c:	48 89 c6             	mov    %rax,%rsi
    f65f:	4c 89 e7             	mov    %r12,%rdi
    f662:	e8 99 4e ff ff       	call   4500 <PyNumber_Subtract@plt>
    f667:	49 89 c7             	mov    %rax,%r15
    f66a:	48 85 c0             	test   %rax,%rax
    f66d:	0f 84 9c 07 00 00    	je     fe0f <__pyx_pw_4main_7readbuttonvalues+0x1dfb>
    f673:	49 8b 04 24          	mov    (%r12),%rax
    f677:	85 c0                	test   %eax,%eax
    f679:	78 11                	js     f68c <__pyx_pw_4main_7readbuttonvalues+0x1678>
    f67b:	48 ff c8             	dec    %rax
    f67e:	49 89 04 24          	mov    %rax,(%r12)
    f682:	75 08                	jne    f68c <__pyx_pw_4main_7readbuttonvalues+0x1678>
    f684:	4c 89 e7             	mov    %r12,%rdi
    f687:	e8 c4 4f ff ff       	call   4650 <_Py_Dealloc@plt>
    f68c:	48 8b 03             	mov    (%rbx),%rax
    f68f:	85 c0                	test   %eax,%eax
    f691:	78 10                	js     f6a3 <__pyx_pw_4main_7readbuttonvalues+0x168f>
    f693:	48 ff c8             	dec    %rax
    f696:	48 89 03             	mov    %rax,(%rbx)
    f699:	75 08                	jne    f6a3 <__pyx_pw_4main_7readbuttonvalues+0x168f>
    f69b:	48 89 df             	mov    %rbx,%rdi
    f69e:	e8 ad 4f ff ff       	call   4650 <_Py_Dealloc@plt>
    f6a3:	48 8b 3d e6 87 00 00 	mov    0x87e6(%rip),%rdi        # 17e90 <__pyx_mstate_global_static+0x230>
    f6aa:	e8 d5 da ff ff       	call   d184 <__Pyx__GetModuleGlobalName>
    f6af:	48 89 c3             	mov    %rax,%rbx
    f6b2:	48 85 c0             	test   %rax,%rax
    f6b5:	0f 84 5e 07 00 00    	je     fe19 <__pyx_pw_4main_7readbuttonvalues+0x1e05>
    f6bb:	48 8b 3d de 87 00 00 	mov    0x87de(%rip),%rdi        # 17ea0 <__pyx_mstate_global_static+0x240>
    f6c2:	e8 bd da ff ff       	call   d184 <__Pyx__GetModuleGlobalName>
    f6c7:	49 89 c4             	mov    %rax,%r12
    f6ca:	48 85 c0             	test   %rax,%rax
    f6cd:	0f 84 53 07 00 00    	je     fe26 <__pyx_pw_4main_7readbuttonvalues+0x1e12>
    f6d3:	48 89 c6             	mov    %rax,%rsi
    f6d6:	48 89 df             	mov    %rbx,%rdi
    f6d9:	e8 22 4e ff ff       	call   4500 <PyNumber_Subtract@plt>
    f6de:	48 89 c5             	mov    %rax,%rbp
    f6e1:	48 85 c0             	test   %rax,%rax
    f6e4:	0f 84 46 07 00 00    	je     fe30 <__pyx_pw_4main_7readbuttonvalues+0x1e1c>
    f6ea:	48 8b 03             	mov    (%rbx),%rax
    f6ed:	85 c0                	test   %eax,%eax
    f6ef:	78 10                	js     f701 <__pyx_pw_4main_7readbuttonvalues+0x16ed>
    f6f1:	48 ff c8             	dec    %rax
    f6f4:	48 89 03             	mov    %rax,(%rbx)
    f6f7:	75 08                	jne    f701 <__pyx_pw_4main_7readbuttonvalues+0x16ed>
    f6f9:	48 89 df             	mov    %rbx,%rdi
    f6fc:	e8 4f 4f ff ff       	call   4650 <_Py_Dealloc@plt>
    f701:	49 8b 04 24          	mov    (%r12),%rax
    f705:	85 c0                	test   %eax,%eax
    f707:	78 11                	js     f71a <__pyx_pw_4main_7readbuttonvalues+0x1706>
    f709:	48 ff c8             	dec    %rax
    f70c:	49 89 04 24          	mov    %rax,(%r12)
    f710:	75 08                	jne    f71a <__pyx_pw_4main_7readbuttonvalues+0x1706>
    f712:	4c 89 e7             	mov    %r12,%rdi
    f715:	e8 36 4f ff ff       	call   4650 <_Py_Dealloc@plt>
    f71a:	48 89 ee             	mov    %rbp,%rsi
    f71d:	4c 89 ff             	mov    %r15,%rdi
    f720:	e8 eb 4f ff ff       	call   4710 <PyNumber_TrueDivide@plt>
    f725:	49 89 c4             	mov    %rax,%r12
    f728:	48 85 c0             	test   %rax,%rax
    f72b:	0f 84 07 07 00 00    	je     fe38 <__pyx_pw_4main_7readbuttonvalues+0x1e24>
    f731:	49 8b 07             	mov    (%r15),%rax
    f734:	85 c0                	test   %eax,%eax
    f736:	78 10                	js     f748 <__pyx_pw_4main_7readbuttonvalues+0x1734>
    f738:	48 ff c8             	dec    %rax
    f73b:	49 89 07             	mov    %rax,(%r15)
    f73e:	75 08                	jne    f748 <__pyx_pw_4main_7readbuttonvalues+0x1734>
    f740:	4c 89 ff             	mov    %r15,%rdi
    f743:	e8 08 4f ff ff       	call   4650 <_Py_Dealloc@plt>
    f748:	48 8b 45 00          	mov    0x0(%rbp),%rax
    f74c:	85 c0                	test   %eax,%eax
    f74e:	78 11                	js     f761 <__pyx_pw_4main_7readbuttonvalues+0x174d>
    f750:	48 ff c8             	dec    %rax
    f753:	48 89 45 00          	mov    %rax,0x0(%rbp)
    f757:	75 08                	jne    f761 <__pyx_pw_4main_7readbuttonvalues+0x174d>
    f759:	48 89 ef             	mov    %rbp,%rdi
    f75c:	e8 ef 4e ff ff       	call   4650 <_Py_Dealloc@plt>
    f761:	48 8b 35 78 88 00 00 	mov    0x8878(%rip),%rsi        # 17fe0 <__pyx_mstate_global_static+0x380>
    f768:	4c 89 e7             	mov    %r12,%rdi
    f76b:	e8 42 d0 ff ff       	call   c7b2 <__Pyx_PyInt_MultiplyObjC.constprop.0>
    f770:	48 89 c5             	mov    %rax,%rbp
    f773:	48 85 c0             	test   %rax,%rax
    f776:	0f 84 c6 06 00 00    	je     fe42 <__pyx_pw_4main_7readbuttonvalues+0x1e2e>
    f77c:	49 8b 04 24          	mov    (%r12),%rax
    f780:	85 c0                	test   %eax,%eax
    f782:	78 11                	js     f795 <__pyx_pw_4main_7readbuttonvalues+0x1781>
    f784:	48 ff c8             	dec    %rax
    f787:	49 89 04 24          	mov    %rax,(%r12)
    f78b:	75 08                	jne    f795 <__pyx_pw_4main_7readbuttonvalues+0x1781>
    f78d:	4c 89 e7             	mov    %r12,%rdi
    f790:	e8 bb 4e ff ff       	call   4650 <_Py_Dealloc@plt>
    f795:	48 8b 3d 9c 86 00 00 	mov    0x869c(%rip),%rdi        # 17e38 <__pyx_mstate_global_static+0x1d8>
    f79c:	e8 e3 d9 ff ff       	call   d184 <__Pyx__GetModuleGlobalName>
    f7a1:	49 89 c4             	mov    %rax,%r12
    f7a4:	48 85 c0             	test   %rax,%rax
    f7a7:	0f 84 a2 06 00 00    	je     fe4f <__pyx_pw_4main_7readbuttonvalues+0x1e3b>
    f7ad:	48 8b 35 7c 85 00 00 	mov    0x857c(%rip),%rsi        # 17d30 <__pyx_mstate_global_static+0xd0>
    f7b4:	48 89 ea             	mov    %rbp,%rdx
    f7b7:	48 89 c7             	mov    %rax,%rdi
    f7ba:	e8 71 4c ff ff       	call   4430 <PyObject_SetItem@plt>
    f7bf:	85 c0                	test   %eax,%eax
    f7c1:	0f 88 9e 06 00 00    	js     fe65 <__pyx_pw_4main_7readbuttonvalues+0x1e51>
    f7c7:	49 8b 04 24          	mov    (%r12),%rax
    f7cb:	85 c0                	test   %eax,%eax
    f7cd:	78 42                	js     f811 <__pyx_pw_4main_7readbuttonvalues+0x17fd>
    f7cf:	48 ff c8             	dec    %rax
    f7d2:	49 89 04 24          	mov    %rax,(%r12)
    f7d6:	75 39                	jne    f811 <__pyx_pw_4main_7readbuttonvalues+0x17fd>
    f7d8:	4c 89 e7             	mov    %r12,%rdi
    f7db:	e8 70 4e ff ff       	call   4650 <_Py_Dealloc@plt>
    f7e0:	eb 2f                	jmp    f811 <__pyx_pw_4main_7readbuttonvalues+0x17fd>
    f7e2:	e8 9d d9 ff ff       	call   d184 <__Pyx__GetModuleGlobalName>
    f7e7:	48 89 c5             	mov    %rax,%rbp
    f7ea:	48 85 c0             	test   %rax,%rax
    f7ed:	0f 84 82 06 00 00    	je     fe75 <__pyx_pw_4main_7readbuttonvalues+0x1e61>
    f7f3:	48 8b 15 d6 87 00 00 	mov    0x87d6(%rip),%rdx        # 17fd0 <__pyx_mstate_global_static+0x370>
    f7fa:	48 8b 35 2f 85 00 00 	mov    0x852f(%rip),%rsi        # 17d30 <__pyx_mstate_global_static+0xd0>
    f801:	48 89 c7             	mov    %rax,%rdi
    f804:	e8 27 4c ff ff       	call   4430 <PyObject_SetItem@plt>
    f809:	85 c0                	test   %eax,%eax
    f80b:	0f 88 7a 06 00 00    	js     fe8b <__pyx_pw_4main_7readbuttonvalues+0x1e77>
    f811:	48 8b 45 00          	mov    0x0(%rbp),%rax
    f815:	85 c0                	test   %eax,%eax
    f817:	78 11                	js     f82a <__pyx_pw_4main_7readbuttonvalues+0x1816>
    f819:	48 ff c8             	dec    %rax
    f81c:	48 89 45 00          	mov    %rax,0x0(%rbp)
    f820:	75 08                	jne    f82a <__pyx_pw_4main_7readbuttonvalues+0x1816>
    f822:	48 89 ef             	mov    %rbp,%rdi
    f825:	e8 26 4e ff ff       	call   4650 <_Py_Dealloc@plt>
    f82a:	48 8b 3d 1f 86 00 00 	mov    0x861f(%rip),%rdi        # 17e50 <__pyx_mstate_global_static+0x1f0>
    f831:	e8 4e d9 ff ff       	call   d184 <__Pyx__GetModuleGlobalName>
    f836:	48 89 c5             	mov    %rax,%rbp
    f839:	48 85 c0             	test   %rax,%rax
    f83c:	0f 84 5c 06 00 00    	je     fe9e <__pyx_pw_4main_7readbuttonvalues+0x1e8a>
    f842:	48 8b 3d 67 85 00 00 	mov    0x8567(%rip),%rdi        # 17db0 <__pyx_mstate_global_static+0x150>
    f849:	e8 36 d9 ff ff       	call   d184 <__Pyx__GetModuleGlobalName>
    f84e:	49 89 c4             	mov    %rax,%r12
    f851:	48 85 c0             	test   %rax,%rax
    f854:	0f 84 54 06 00 00    	je     feae <__pyx_pw_4main_7readbuttonvalues+0x1e9a>
    f85a:	48 89 c6             	mov    %rax,%rsi
    f85d:	48 89 ef             	mov    %rbp,%rdi
    f860:	e8 5b 4a ff ff       	call   42c0 <PyNumber_InPlaceAdd@plt>
    f865:	49 89 c7             	mov    %rax,%r15
    f868:	48 85 c0             	test   %rax,%rax
    f86b:	0f 84 4a 06 00 00    	je     febb <__pyx_pw_4main_7readbuttonvalues+0x1ea7>
    f871:	48 8b 45 00          	mov    0x0(%rbp),%rax
    f875:	85 c0                	test   %eax,%eax
    f877:	78 11                	js     f88a <__pyx_pw_4main_7readbuttonvalues+0x1876>
    f879:	48 ff c8             	dec    %rax
    f87c:	48 89 45 00          	mov    %rax,0x0(%rbp)
    f880:	75 08                	jne    f88a <__pyx_pw_4main_7readbuttonvalues+0x1876>
    f882:	48 89 ef             	mov    %rbp,%rdi
    f885:	e8 c6 4d ff ff       	call   4650 <_Py_Dealloc@plt>
    f88a:	49 8b 04 24          	mov    (%r12),%rax
    f88e:	85 c0                	test   %eax,%eax
    f890:	78 11                	js     f8a3 <__pyx_pw_4main_7readbuttonvalues+0x188f>
    f892:	48 ff c8             	dec    %rax
    f895:	49 89 04 24          	mov    %rax,(%r12)
    f899:	75 08                	jne    f8a3 <__pyx_pw_4main_7readbuttonvalues+0x188f>
    f89b:	4c 89 e7             	mov    %r12,%rdi
    f89e:	e8 ad 4d ff ff       	call   4650 <_Py_Dealloc@plt>
    f8a3:	48 8b 35 a6 85 00 00 	mov    0x85a6(%rip),%rsi        # 17e50 <__pyx_mstate_global_static+0x1f0>
    f8aa:	48 8b 3d af 83 00 00 	mov    0x83af(%rip),%rdi        # 17c60 <__pyx_mstate_global_static>
    f8b1:	4c 89 fa             	mov    %r15,%rdx
    f8b4:	e8 f7 4e ff ff       	call   47b0 <PyDict_SetItem@plt>
    f8b9:	85 c0                	test   %eax,%eax
    f8bb:	0f 88 0a 06 00 00    	js     fecb <__pyx_pw_4main_7readbuttonvalues+0x1eb7>
    f8c1:	49 8b 07             	mov    (%r15),%rax
    f8c4:	85 c0                	test   %eax,%eax
    f8c6:	78 10                	js     f8d8 <__pyx_pw_4main_7readbuttonvalues+0x18c4>
    f8c8:	48 ff c8             	dec    %rax
    f8cb:	49 89 07             	mov    %rax,(%r15)
    f8ce:	75 08                	jne    f8d8 <__pyx_pw_4main_7readbuttonvalues+0x18c4>
    f8d0:	4c 89 ff             	mov    %r15,%rdi
    f8d3:	e8 78 4d ff ff       	call   4650 <_Py_Dealloc@plt>
    f8d8:	48 8b 35 01 86 00 00 	mov    0x8601(%rip),%rsi        # 17ee0 <__pyx_mstate_global_static+0x280>
    f8df:	48 8b 7c 24 08       	mov    0x8(%rsp),%rdi
    f8e4:	e8 66 d1 ff ff       	call   ca4f <__Pyx_PyUnicode_Equals.constprop.0>
    f8e9:	85 c0                	test   %eax,%eax
    f8eb:	0f 88 ef 05 00 00    	js     fee0 <__pyx_pw_4main_7readbuttonvalues+0x1ecc>
    f8f1:	74 30                	je     f923 <__pyx_pw_4main_7readbuttonvalues+0x190f>
    f8f3:	48 8b 3d 46 85 00 00 	mov    0x8546(%rip),%rdi        # 17e40 <__pyx_mstate_global_static+0x1e0>
    f8fa:	e8 85 d8 ff ff       	call   d184 <__Pyx__GetModuleGlobalName>
    f8ff:	49 89 c7             	mov    %rax,%r15
    f902:	48 85 c0             	test   %rax,%rax
    f905:	0f 85 8c 06 00 00    	jne    ff97 <__pyx_pw_4main_7readbuttonvalues+0x1f83>
    f90b:	31 db                	xor    %ebx,%ebx
    f90d:	45 31 e4             	xor    %r12d,%r12d
    f910:	31 ed                	xor    %ebp,%ebp
    f912:	41 bd 09 11 00 00    	mov    $0x1109,%r13d
    f918:	41 be 48 00 00 00    	mov    $0x48,%r14d
    f91e:	e9 d3 05 00 00       	jmp    fef6 <__pyx_pw_4main_7readbuttonvalues+0x1ee2>
    f923:	48 8b 3d 0e 85 00 00 	mov    0x850e(%rip),%rdi        # 17e38 <__pyx_mstate_global_static+0x1d8>
    f92a:	e8 55 d8 ff ff       	call   d184 <__Pyx__GetModuleGlobalName>
    f92f:	49 89 c7             	mov    %rax,%r15
    f932:	48 85 c0             	test   %rax,%rax
    f935:	0f 85 5c 06 00 00    	jne    ff97 <__pyx_pw_4main_7readbuttonvalues+0x1f83>
    f93b:	31 db                	xor    %ebx,%ebx
    f93d:	45 31 e4             	xor    %r12d,%r12d
    f940:	31 ed                	xor    %ebp,%ebp
    f942:	41 bd 18 11 00 00    	mov    $0x1118,%r13d
    f948:	41 be 49 00 00 00    	mov    $0x49,%r14d
    f94e:	e9 a3 05 00 00       	jmp    fef6 <__pyx_pw_4main_7readbuttonvalues+0x1ee2>
    f953:	31 db                	xor    %ebx,%ebx
    f955:	45 31 e4             	xor    %r12d,%r12d
    f958:	31 ed                	xor    %ebp,%ebp
    f95a:	41 bd ea 0e 00 00    	mov    $0xeea,%r13d
    f960:	eb 0b                	jmp    f96d <__pyx_pw_4main_7readbuttonvalues+0x1959>
    f962:	31 db                	xor    %ebx,%ebx
    f964:	45 31 e4             	xor    %r12d,%r12d
    f967:	41 bd ec 0e 00 00    	mov    $0xeec,%r13d
    f96d:	41 be 2e 00 00 00    	mov    $0x2e,%r14d
    f973:	e9 7e 05 00 00       	jmp    fef6 <__pyx_pw_4main_7readbuttonvalues+0x1ee2>
    f978:	31 db                	xor    %ebx,%ebx
    f97a:	41 bd ee 0e 00 00    	mov    $0xeee,%r13d
    f980:	eb eb                	jmp    f96d <__pyx_pw_4main_7readbuttonvalues+0x1959>
    f982:	31 db                	xor    %ebx,%ebx
    f984:	31 ed                	xor    %ebp,%ebp
    f986:	41 bd f2 0e 00 00    	mov    $0xef2,%r13d
    f98c:	eb df                	jmp    f96d <__pyx_pw_4main_7readbuttonvalues+0x1959>
    f98e:	31 ed                	xor    %ebp,%ebp
    f990:	41 bd f4 0e 00 00    	mov    $0xef4,%r13d
    f996:	eb d5                	jmp    f96d <__pyx_pw_4main_7readbuttonvalues+0x1959>
    f998:	45 31 ff             	xor    %r15d,%r15d
    f99b:	41 bd 0d 0f 00 00    	mov    $0xf0d,%r13d
    f9a1:	eb ca                	jmp    f96d <__pyx_pw_4main_7readbuttonvalues+0x1959>
    f9a3:	41 bd 10 0f 00 00    	mov    $0xf10,%r13d
    f9a9:	41 be 2e 00 00 00    	mov    $0x2e,%r14d
    f9af:	e9 3a 05 00 00       	jmp    feee <__pyx_pw_4main_7readbuttonvalues+0x1eda>
    f9b4:	45 31 e4             	xor    %r12d,%r12d
    f9b7:	31 ed                	xor    %ebp,%ebp
    f9b9:	45 31 ff             	xor    %r15d,%r15d
    f9bc:	41 bd 17 0f 00 00    	mov    $0xf17,%r13d
    f9c2:	eb a9                	jmp    f96d <__pyx_pw_4main_7readbuttonvalues+0x1959>
    f9c4:	45 31 e4             	xor    %r12d,%r12d
    f9c7:	45 31 ff             	xor    %r15d,%r15d
    f9ca:	41 bd 19 0f 00 00    	mov    $0xf19,%r13d
    f9d0:	eb 9b                	jmp    f96d <__pyx_pw_4main_7readbuttonvalues+0x1959>
    f9d2:	41 bd 1b 0f 00 00    	mov    $0xf1b,%r13d
    f9d8:	41 be 2e 00 00 00    	mov    $0x2e,%r14d
    f9de:	e9 b4 04 00 00       	jmp    fe97 <__pyx_pw_4main_7readbuttonvalues+0x1e83>
    f9e3:	45 31 e4             	xor    %r12d,%r12d
    f9e6:	31 ed                	xor    %ebp,%ebp
    f9e8:	45 31 ff             	xor    %r15d,%r15d
    f9eb:	41 bd 28 0f 00 00    	mov    $0xf28,%r13d
    f9f1:	eb 0b                	jmp    f9fe <__pyx_pw_4main_7readbuttonvalues+0x19ea>
    f9f3:	45 31 e4             	xor    %r12d,%r12d
    f9f6:	31 ed                	xor    %ebp,%ebp
    f9f8:	41 bd 2a 0f 00 00    	mov    $0xf2a,%r13d
    f9fe:	41 be 2f 00 00 00    	mov    $0x2f,%r14d
    fa04:	e9 ed 04 00 00       	jmp    fef6 <__pyx_pw_4main_7readbuttonvalues+0x1ee2>
    fa09:	31 db                	xor    %ebx,%ebx
    fa0b:	31 ed                	xor    %ebp,%ebp
    fa0d:	45 31 ff             	xor    %r15d,%r15d
    fa10:	41 bd 4c 0f 00 00    	mov    $0xf4c,%r13d
    fa16:	eb 0a                	jmp    fa22 <__pyx_pw_4main_7readbuttonvalues+0x1a0e>
    fa18:	31 db                	xor    %ebx,%ebx
    fa1a:	31 ed                	xor    %ebp,%ebp
    fa1c:	41 bd 4e 0f 00 00    	mov    $0xf4e,%r13d
    fa22:	41 be 30 00 00 00    	mov    $0x30,%r14d
    fa28:	e9 c9 04 00 00       	jmp    fef6 <__pyx_pw_4main_7readbuttonvalues+0x1ee2>
    fa2d:	41 bd 67 0f 00 00    	mov    $0xf67,%r13d
    fa33:	41 be 30 00 00 00    	mov    $0x30,%r14d
    fa39:	e9 59 04 00 00       	jmp    fe97 <__pyx_pw_4main_7readbuttonvalues+0x1e83>
    fa3e:	45 31 e4             	xor    %r12d,%r12d
    fa41:	31 ed                	xor    %ebp,%ebp
    fa43:	45 31 ff             	xor    %r15d,%r15d
    fa46:	41 bd 71 0f 00 00    	mov    $0xf71,%r13d
    fa4c:	41 be 31 00 00 00    	mov    $0x31,%r14d
    fa52:	e9 9f 04 00 00       	jmp    fef6 <__pyx_pw_4main_7readbuttonvalues+0x1ee2>
    fa57:	31 ed                	xor    %ebp,%ebp
    fa59:	45 31 ff             	xor    %r15d,%r15d
    fa5c:	41 bd 73 0f 00 00    	mov    $0xf73,%r13d
    fa62:	eb e8                	jmp    fa4c <__pyx_pw_4main_7readbuttonvalues+0x1a38>
    fa64:	31 db                	xor    %ebx,%ebx
    fa66:	31 ed                	xor    %ebp,%ebp
    fa68:	41 bd 76 0f 00 00    	mov    $0xf76,%r13d
    fa6e:	eb dc                	jmp    fa4c <__pyx_pw_4main_7readbuttonvalues+0x1a38>
    fa70:	41 bd 8f 0f 00 00    	mov    $0xf8f,%r13d
    fa76:	41 be 31 00 00 00    	mov    $0x31,%r14d
    fa7c:	e9 16 04 00 00       	jmp    fe97 <__pyx_pw_4main_7readbuttonvalues+0x1e83>
    fa81:	31 db                	xor    %ebx,%ebx
    fa83:	45 31 e4             	xor    %r12d,%r12d
    fa86:	45 31 ff             	xor    %r15d,%r15d
    fa89:	41 bd 99 0f 00 00    	mov    $0xf99,%r13d
    fa8f:	41 be 32 00 00 00    	mov    $0x32,%r14d
    fa95:	e9 5c 04 00 00       	jmp    fef6 <__pyx_pw_4main_7readbuttonvalues+0x1ee2>
    fa9a:	41 bd 9b 0f 00 00    	mov    $0xf9b,%r13d
    faa0:	41 be 32 00 00 00    	mov    $0x32,%r14d
    faa6:	e9 ec 03 00 00       	jmp    fe97 <__pyx_pw_4main_7readbuttonvalues+0x1e83>
    faab:	31 db                	xor    %ebx,%ebx
    faad:	45 31 e4             	xor    %r12d,%r12d
    fab0:	45 31 ff             	xor    %r15d,%r15d
    fab3:	41 bd a5 0f 00 00    	mov    $0xfa5,%r13d
    fab9:	eb 0b                	jmp    fac6 <__pyx_pw_4main_7readbuttonvalues+0x1ab2>
    fabb:	31 db                	xor    %ebx,%ebx
    fabd:	45 31 e4             	xor    %r12d,%r12d
    fac0:	41 bd a7 0f 00 00    	mov    $0xfa7,%r13d
    fac6:	41 be 33 00 00 00    	mov    $0x33,%r14d
    facc:	e9 25 04 00 00       	jmp    fef6 <__pyx_pw_4main_7readbuttonvalues+0x1ee2>
    fad1:	31 db                	xor    %ebx,%ebx
    fad3:	31 ed                	xor    %ebp,%ebp
    fad5:	45 31 ff             	xor    %r15d,%r15d
    fad8:	41 bd b3 0f 00 00    	mov    $0xfb3,%r13d
    fade:	eb 2f                	jmp    fb0f <__pyx_pw_4main_7readbuttonvalues+0x1afb>
    fae0:	31 db                	xor    %ebx,%ebx
    fae2:	45 31 ff             	xor    %r15d,%r15d
    fae5:	41 bd b5 0f 00 00    	mov    $0xfb5,%r13d
    faeb:	eb 22                	jmp    fb0f <__pyx_pw_4main_7readbuttonvalues+0x1afb>
    faed:	31 db                	xor    %ebx,%ebx
    faef:	45 31 e4             	xor    %r12d,%r12d
    faf2:	41 bd b8 0f 00 00    	mov    $0xfb8,%r13d
    faf8:	eb 15                	jmp    fb0f <__pyx_pw_4main_7readbuttonvalues+0x1afb>
    fafa:	31 db                	xor    %ebx,%ebx
    fafc:	45 31 ff             	xor    %r15d,%r15d
    faff:	41 bd bb 0f 00 00    	mov    $0xfbb,%r13d
    fb05:	eb 08                	jmp    fb0f <__pyx_pw_4main_7readbuttonvalues+0x1afb>
    fb07:	31 db                	xor    %ebx,%ebx
    fb09:	41 bd bd 0f 00 00    	mov    $0xfbd,%r13d
    fb0f:	41 be 35 00 00 00    	mov    $0x35,%r14d
    fb15:	e9 dc 03 00 00       	jmp    fef6 <__pyx_pw_4main_7readbuttonvalues+0x1ee2>
    fb1a:	41 bd be 0f 00 00    	mov    $0xfbe,%r13d
    fb20:	41 be 35 00 00 00    	mov    $0x35,%r14d
    fb26:	e9 d7 00 00 00       	jmp    fc02 <__pyx_pw_4main_7readbuttonvalues+0x1bee>
    fb2b:	4d 89 f4             	mov    %r14,%r12
    fb2e:	41 bd cc 0f 00 00    	mov    $0xfcc,%r13d
    fb34:	41 be 35 00 00 00    	mov    $0x35,%r14d
    fb3a:	e9 93 02 00 00       	jmp    fdd2 <__pyx_pw_4main_7readbuttonvalues+0x1dbe>
    fb3f:	31 db                	xor    %ebx,%ebx
    fb41:	31 ed                	xor    %ebp,%ebp
    fb43:	45 31 ff             	xor    %r15d,%r15d
    fb46:	41 bd d6 0f 00 00    	mov    $0xfd6,%r13d
    fb4c:	eb 2f                	jmp    fb7d <__pyx_pw_4main_7readbuttonvalues+0x1b69>
    fb4e:	31 ed                	xor    %ebp,%ebp
    fb50:	45 31 ff             	xor    %r15d,%r15d
    fb53:	41 bd d8 0f 00 00    	mov    $0xfd8,%r13d
    fb59:	eb 22                	jmp    fb7d <__pyx_pw_4main_7readbuttonvalues+0x1b69>
    fb5b:	45 31 e4             	xor    %r12d,%r12d
    fb5e:	31 ed                	xor    %ebp,%ebp
    fb60:	41 bd db 0f 00 00    	mov    $0xfdb,%r13d
    fb66:	eb 15                	jmp    fb7d <__pyx_pw_4main_7readbuttonvalues+0x1b69>
    fb68:	31 ed                	xor    %ebp,%ebp
    fb6a:	45 31 ff             	xor    %r15d,%r15d
    fb6d:	41 bd de 0f 00 00    	mov    $0xfde,%r13d
    fb73:	eb 08                	jmp    fb7d <__pyx_pw_4main_7readbuttonvalues+0x1b69>
    fb75:	31 ed                	xor    %ebp,%ebp
    fb77:	41 bd e0 0f 00 00    	mov    $0xfe0,%r13d
    fb7d:	41 be 36 00 00 00    	mov    $0x36,%r14d
    fb83:	e9 6e 03 00 00       	jmp    fef6 <__pyx_pw_4main_7readbuttonvalues+0x1ee2>
    fb88:	41 bd e1 0f 00 00    	mov    $0xfe1,%r13d
    fb8e:	41 be 36 00 00 00    	mov    $0x36,%r14d
    fb94:	e9 43 03 00 00       	jmp    fedc <__pyx_pw_4main_7readbuttonvalues+0x1ec8>
    fb99:	49 89 ec             	mov    %rbp,%r12
    fb9c:	41 bd ef 0f 00 00    	mov    $0xfef,%r13d
    fba2:	41 be 36 00 00 00    	mov    $0x36,%r14d
    fba8:	e9 25 02 00 00       	jmp    fdd2 <__pyx_pw_4main_7readbuttonvalues+0x1dbe>
    fbad:	31 db                	xor    %ebx,%ebx
    fbaf:	31 ed                	xor    %ebp,%ebp
    fbb1:	45 31 ff             	xor    %r15d,%r15d
    fbb4:	41 bd f9 0f 00 00    	mov    $0xff9,%r13d
    fbba:	eb 2f                	jmp    fbeb <__pyx_pw_4main_7readbuttonvalues+0x1bd7>
    fbbc:	31 db                	xor    %ebx,%ebx
    fbbe:	45 31 ff             	xor    %r15d,%r15d
    fbc1:	41 bd fb 0f 00 00    	mov    $0xffb,%r13d
    fbc7:	eb 22                	jmp    fbeb <__pyx_pw_4main_7readbuttonvalues+0x1bd7>
    fbc9:	31 db                	xor    %ebx,%ebx
    fbcb:	45 31 e4             	xor    %r12d,%r12d
    fbce:	41 bd fe 0f 00 00    	mov    $0xffe,%r13d
    fbd4:	eb 15                	jmp    fbeb <__pyx_pw_4main_7readbuttonvalues+0x1bd7>
    fbd6:	31 db                	xor    %ebx,%ebx
    fbd8:	45 31 ff             	xor    %r15d,%r15d
    fbdb:	41 bd 01 10 00 00    	mov    $0x1001,%r13d
    fbe1:	eb 08                	jmp    fbeb <__pyx_pw_4main_7readbuttonvalues+0x1bd7>
    fbe3:	31 db                	xor    %ebx,%ebx
    fbe5:	41 bd 03 10 00 00    	mov    $0x1003,%r13d
    fbeb:	41 be 37 00 00 00    	mov    $0x37,%r14d
    fbf1:	e9 00 03 00 00       	jmp    fef6 <__pyx_pw_4main_7readbuttonvalues+0x1ee2>
    fbf6:	41 bd 04 10 00 00    	mov    $0x1004,%r13d
    fbfc:	41 be 37 00 00 00    	mov    $0x37,%r14d
    fc02:	31 db                	xor    %ebx,%ebx
    fc04:	e9 ed 02 00 00       	jmp    fef6 <__pyx_pw_4main_7readbuttonvalues+0x1ee2>
    fc09:	4d 89 f4             	mov    %r14,%r12
    fc0c:	41 bd 12 10 00 00    	mov    $0x1012,%r13d
    fc12:	41 be 37 00 00 00    	mov    $0x37,%r14d
    fc18:	e9 b5 01 00 00       	jmp    fdd2 <__pyx_pw_4main_7readbuttonvalues+0x1dbe>
    fc1d:	31 db                	xor    %ebx,%ebx
    fc1f:	31 ed                	xor    %ebp,%ebp
    fc21:	45 31 ff             	xor    %r15d,%r15d
    fc24:	41 bd 1c 10 00 00    	mov    $0x101c,%r13d
    fc2a:	eb 2f                	jmp    fc5b <__pyx_pw_4main_7readbuttonvalues+0x1c47>
    fc2c:	31 ed                	xor    %ebp,%ebp
    fc2e:	45 31 ff             	xor    %r15d,%r15d
    fc31:	41 bd 1e 10 00 00    	mov    $0x101e,%r13d
    fc37:	eb 22                	jmp    fc5b <__pyx_pw_4main_7readbuttonvalues+0x1c47>
    fc39:	45 31 e4             	xor    %r12d,%r12d
    fc3c:	31 ed                	xor    %ebp,%ebp
    fc3e:	41 bd 21 10 00 00    	mov    $0x1021,%r13d
    fc44:	eb 15                	jmp    fc5b <__pyx_pw_4main_7readbuttonvalues+0x1c47>
    fc46:	31 ed                	xor    %ebp,%ebp
    fc48:	45 31 ff             	xor    %r15d,%r15d
    fc4b:	41 bd 24 10 00 00    	mov    $0x1024,%r13d
    fc51:	eb 08                	jmp    fc5b <__pyx_pw_4main_7readbuttonvalues+0x1c47>
    fc53:	31 ed                	xor    %ebp,%ebp
    fc55:	41 bd 26 10 00 00    	mov    $0x1026,%r13d
    fc5b:	41 be 38 00 00 00    	mov    $0x38,%r14d
    fc61:	e9 90 02 00 00       	jmp    fef6 <__pyx_pw_4main_7readbuttonvalues+0x1ee2>
    fc66:	41 bd 27 10 00 00    	mov    $0x1027,%r13d
    fc6c:	41 be 38 00 00 00    	mov    $0x38,%r14d
    fc72:	e9 65 02 00 00       	jmp    fedc <__pyx_pw_4main_7readbuttonvalues+0x1ec8>
    fc77:	49 89 ec             	mov    %rbp,%r12
    fc7a:	41 bd 35 10 00 00    	mov    $0x1035,%r13d
    fc80:	41 be 38 00 00 00    	mov    $0x38,%r14d
    fc86:	e9 47 01 00 00       	jmp    fdd2 <__pyx_pw_4main_7readbuttonvalues+0x1dbe>
    fc8b:	31 db                	xor    %ebx,%ebx
    fc8d:	31 ed                	xor    %ebp,%ebp
    fc8f:	45 31 ff             	xor    %r15d,%r15d
    fc92:	41 bd 3f 10 00 00    	mov    $0x103f,%r13d
    fc98:	eb 16                	jmp    fcb0 <__pyx_pw_4main_7readbuttonvalues+0x1c9c>
    fc9a:	31 db                	xor    %ebx,%ebx
    fc9c:	45 31 ff             	xor    %r15d,%r15d
    fc9f:	41 bd 41 10 00 00    	mov    $0x1041,%r13d
    fca5:	eb 09                	jmp    fcb0 <__pyx_pw_4main_7readbuttonvalues+0x1c9c>
    fca7:	45 31 ff             	xor    %r15d,%r15d
    fcaa:	41 bd 43 10 00 00    	mov    $0x1043,%r13d
    fcb0:	41 be 3c 00 00 00    	mov    $0x3c,%r14d
    fcb6:	e9 3b 02 00 00       	jmp    fef6 <__pyx_pw_4main_7readbuttonvalues+0x1ee2>
    fcbb:	41 bd 47 10 00 00    	mov    $0x1047,%r13d
    fcc1:	41 be 3c 00 00 00    	mov    $0x3c,%r14d
    fcc7:	e9 22 02 00 00       	jmp    feee <__pyx_pw_4main_7readbuttonvalues+0x1eda>
    fccc:	45 31 e4             	xor    %r12d,%r12d
    fccf:	31 ed                	xor    %ebp,%ebp
    fcd1:	45 31 ff             	xor    %r15d,%r15d
    fcd4:	41 bd 52 10 00 00    	mov    $0x1052,%r13d
    fcda:	eb 76                	jmp    fd52 <__pyx_pw_4main_7readbuttonvalues+0x1d3e>
    fcdc:	45 31 e4             	xor    %r12d,%r12d
    fcdf:	45 31 ff             	xor    %r15d,%r15d
    fce2:	41 bd 54 10 00 00    	mov    $0x1054,%r13d
    fce8:	eb 68                	jmp    fd52 <__pyx_pw_4main_7readbuttonvalues+0x1d3e>
    fcea:	31 db                	xor    %ebx,%ebx
    fcec:	45 31 e4             	xor    %r12d,%r12d
    fcef:	41 bd 57 10 00 00    	mov    $0x1057,%r13d
    fcf5:	eb 5b                	jmp    fd52 <__pyx_pw_4main_7readbuttonvalues+0x1d3e>
    fcf7:	45 31 e4             	xor    %r12d,%r12d
    fcfa:	45 31 ff             	xor    %r15d,%r15d
    fcfd:	41 bd 5a 10 00 00    	mov    $0x105a,%r13d
    fd03:	eb 4d                	jmp    fd52 <__pyx_pw_4main_7readbuttonvalues+0x1d3e>
    fd05:	45 31 ff             	xor    %r15d,%r15d
    fd08:	41 bd 5c 10 00 00    	mov    $0x105c,%r13d
    fd0e:	eb 42                	jmp    fd52 <__pyx_pw_4main_7readbuttonvalues+0x1d3e>
    fd10:	31 db                	xor    %ebx,%ebx
    fd12:	45 31 ff             	xor    %r15d,%r15d
    fd15:	41 bd 60 10 00 00    	mov    $0x1060,%r13d
    fd1b:	eb 35                	jmp    fd52 <__pyx_pw_4main_7readbuttonvalues+0x1d3e>
    fd1d:	45 31 ff             	xor    %r15d,%r15d
    fd20:	41 bd 62 10 00 00    	mov    $0x1062,%r13d
    fd26:	eb 2a                	jmp    fd52 <__pyx_pw_4main_7readbuttonvalues+0x1d3e>
    fd28:	41 bd 64 10 00 00    	mov    $0x1064,%r13d
    fd2e:	eb 22                	jmp    fd52 <__pyx_pw_4main_7readbuttonvalues+0x1d3e>
    fd30:	31 ed                	xor    %ebp,%ebp
    fd32:	41 bd 68 10 00 00    	mov    $0x1068,%r13d
    fd38:	eb 18                	jmp    fd52 <__pyx_pw_4main_7readbuttonvalues+0x1d3e>
    fd3a:	45 31 e4             	xor    %r12d,%r12d
    fd3d:	31 ed                	xor    %ebp,%ebp
    fd3f:	41 bd 6c 10 00 00    	mov    $0x106c,%r13d
    fd45:	eb 0b                	jmp    fd52 <__pyx_pw_4main_7readbuttonvalues+0x1d3e>
    fd47:	45 31 e4             	xor    %r12d,%r12d
    fd4a:	31 ed                	xor    %ebp,%ebp
    fd4c:	41 bd 6f 10 00 00    	mov    $0x106f,%r13d
    fd52:	41 be 3d 00 00 00    	mov    $0x3d,%r14d
    fd58:	e9 99 01 00 00       	jmp    fef6 <__pyx_pw_4main_7readbuttonvalues+0x1ee2>
    fd5d:	41 bd 71 10 00 00    	mov    $0x1071,%r13d
    fd63:	41 be 3d 00 00 00    	mov    $0x3d,%r14d
    fd69:	e9 6b 01 00 00       	jmp    fed9 <__pyx_pw_4main_7readbuttonvalues+0x1ec5>
    fd6e:	31 db                	xor    %ebx,%ebx
    fd70:	45 31 e4             	xor    %r12d,%r12d
    fd73:	31 ed                	xor    %ebp,%ebp
    fd75:	41 bd 87 10 00 00    	mov    $0x1087,%r13d
    fd7b:	41 be 3f 00 00 00    	mov    $0x3f,%r14d
    fd81:	e9 70 01 00 00       	jmp    fef6 <__pyx_pw_4main_7readbuttonvalues+0x1ee2>
    fd86:	41 bd 89 10 00 00    	mov    $0x1089,%r13d
    fd8c:	41 be 3f 00 00 00    	mov    $0x3f,%r14d
    fd92:	e9 40 01 00 00       	jmp    fed7 <__pyx_pw_4main_7readbuttonvalues+0x1ec3>
    fd97:	31 db                	xor    %ebx,%ebx
    fd99:	45 31 e4             	xor    %r12d,%r12d
    fd9c:	31 ed                	xor    %ebp,%ebp
    fd9e:	41 bd 95 10 00 00    	mov    $0x1095,%r13d
    fda4:	eb 15                	jmp    fdbb <__pyx_pw_4main_7readbuttonvalues+0x1da7>
    fda6:	45 31 e4             	xor    %r12d,%r12d
    fda9:	31 ed                	xor    %ebp,%ebp
    fdab:	41 bd 97 10 00 00    	mov    $0x1097,%r13d
    fdb1:	eb 08                	jmp    fdbb <__pyx_pw_4main_7readbuttonvalues+0x1da7>
    fdb3:	31 ed                	xor    %ebp,%ebp
    fdb5:	41 bd 99 10 00 00    	mov    $0x1099,%r13d
    fdbb:	41 be 41 00 00 00    	mov    $0x41,%r14d
    fdc1:	e9 30 01 00 00       	jmp    fef6 <__pyx_pw_4main_7readbuttonvalues+0x1ee2>
    fdc6:	41 bd 9d 10 00 00    	mov    $0x109d,%r13d
    fdcc:	41 be 41 00 00 00    	mov    $0x41,%r14d
    fdd2:	31 db                	xor    %ebx,%ebx
    fdd4:	e9 18 01 00 00       	jmp    fef1 <__pyx_pw_4main_7readbuttonvalues+0x1edd>
    fdd9:	31 db                	xor    %ebx,%ebx
    fddb:	31 ed                	xor    %ebp,%ebp
    fddd:	45 31 ff             	xor    %r15d,%r15d
    fde0:	41 bd a8 10 00 00    	mov    $0x10a8,%r13d
    fde6:	eb 72                	jmp    fe5a <__pyx_pw_4main_7readbuttonvalues+0x1e46>
    fde8:	31 ed                	xor    %ebp,%ebp
    fdea:	45 31 ff             	xor    %r15d,%r15d
    fded:	41 bd aa 10 00 00    	mov    $0x10aa,%r13d
    fdf3:	eb 65                	jmp    fe5a <__pyx_pw_4main_7readbuttonvalues+0x1e46>
    fdf5:	45 31 e4             	xor    %r12d,%r12d
    fdf8:	31 ed                	xor    %ebp,%ebp
    fdfa:	41 bd ad 10 00 00    	mov    $0x10ad,%r13d
    fe00:	eb 58                	jmp    fe5a <__pyx_pw_4main_7readbuttonvalues+0x1e46>
    fe02:	31 ed                	xor    %ebp,%ebp
    fe04:	45 31 ff             	xor    %r15d,%r15d
    fe07:	41 bd b0 10 00 00    	mov    $0x10b0,%r13d
    fe0d:	eb 4b                	jmp    fe5a <__pyx_pw_4main_7readbuttonvalues+0x1e46>
    fe0f:	31 ed                	xor    %ebp,%ebp
    fe11:	41 bd b2 10 00 00    	mov    $0x10b2,%r13d
    fe17:	eb 41                	jmp    fe5a <__pyx_pw_4main_7readbuttonvalues+0x1e46>
    fe19:	45 31 e4             	xor    %r12d,%r12d
    fe1c:	31 ed                	xor    %ebp,%ebp
    fe1e:	41 bd b6 10 00 00    	mov    $0x10b6,%r13d
    fe24:	eb 34                	jmp    fe5a <__pyx_pw_4main_7readbuttonvalues+0x1e46>
    fe26:	31 ed                	xor    %ebp,%ebp
    fe28:	41 bd b8 10 00 00    	mov    $0x10b8,%r13d
    fe2e:	eb 2a                	jmp    fe5a <__pyx_pw_4main_7readbuttonvalues+0x1e46>
    fe30:	41 bd ba 10 00 00    	mov    $0x10ba,%r13d
    fe36:	eb 22                	jmp    fe5a <__pyx_pw_4main_7readbuttonvalues+0x1e46>
    fe38:	31 db                	xor    %ebx,%ebx
    fe3a:	41 bd be 10 00 00    	mov    $0x10be,%r13d
    fe40:	eb 18                	jmp    fe5a <__pyx_pw_4main_7readbuttonvalues+0x1e46>
    fe42:	31 db                	xor    %ebx,%ebx
    fe44:	45 31 ff             	xor    %r15d,%r15d
    fe47:	41 bd c2 10 00 00    	mov    $0x10c2,%r13d
    fe4d:	eb 0b                	jmp    fe5a <__pyx_pw_4main_7readbuttonvalues+0x1e46>
    fe4f:	31 db                	xor    %ebx,%ebx
    fe51:	45 31 ff             	xor    %r15d,%r15d
    fe54:	41 bd c5 10 00 00    	mov    $0x10c5,%r13d
    fe5a:	41 be 42 00 00 00    	mov    $0x42,%r14d
    fe60:	e9 91 00 00 00       	jmp    fef6 <__pyx_pw_4main_7readbuttonvalues+0x1ee2>
    fe65:	41 bd c7 10 00 00    	mov    $0x10c7,%r13d
    fe6b:	41 be 42 00 00 00    	mov    $0x42,%r14d
    fe71:	31 db                	xor    %ebx,%ebx
    fe73:	eb 7e                	jmp    fef3 <__pyx_pw_4main_7readbuttonvalues+0x1edf>
    fe75:	31 db                	xor    %ebx,%ebx
    fe77:	45 31 e4             	xor    %r12d,%r12d
    fe7a:	45 31 ff             	xor    %r15d,%r15d
    fe7d:	41 bd dd 10 00 00    	mov    $0x10dd,%r13d
    fe83:	41 be 44 00 00 00    	mov    $0x44,%r14d
    fe89:	eb 6b                	jmp    fef6 <__pyx_pw_4main_7readbuttonvalues+0x1ee2>
    fe8b:	41 bd df 10 00 00    	mov    $0x10df,%r13d
    fe91:	41 be 44 00 00 00    	mov    $0x44,%r14d
    fe97:	31 db                	xor    %ebx,%ebx
    fe99:	45 31 e4             	xor    %r12d,%r12d
    fe9c:	eb 55                	jmp    fef3 <__pyx_pw_4main_7readbuttonvalues+0x1edf>
    fe9e:	31 db                	xor    %ebx,%ebx
    fea0:	45 31 e4             	xor    %r12d,%r12d
    fea3:	45 31 ff             	xor    %r15d,%r15d
    fea6:	41 bd eb 10 00 00    	mov    $0x10eb,%r13d
    feac:	eb 15                	jmp    fec3 <__pyx_pw_4main_7readbuttonvalues+0x1eaf>
    feae:	31 db                	xor    %ebx,%ebx
    feb0:	45 31 ff             	xor    %r15d,%r15d
    feb3:	41 bd ed 10 00 00    	mov    $0x10ed,%r13d
    feb9:	eb 08                	jmp    fec3 <__pyx_pw_4main_7readbuttonvalues+0x1eaf>
    febb:	31 db                	xor    %ebx,%ebx
    febd:	41 bd ef 10 00 00    	mov    $0x10ef,%r13d
    fec3:	41 be 46 00 00 00    	mov    $0x46,%r14d
    fec9:	eb 2b                	jmp    fef6 <__pyx_pw_4main_7readbuttonvalues+0x1ee2>
    fecb:	41 bd f3 10 00 00    	mov    $0x10f3,%r13d
    fed1:	41 be 46 00 00 00    	mov    $0x46,%r14d
    fed7:	31 db                	xor    %ebx,%ebx
    fed9:	45 31 e4             	xor    %r12d,%r12d
    fedc:	31 ed                	xor    %ebp,%ebp
    fede:	eb 16                	jmp    fef6 <__pyx_pw_4main_7readbuttonvalues+0x1ee2>
    fee0:	41 bd 06 11 00 00    	mov    $0x1106,%r13d
    fee6:	41 be 48 00 00 00    	mov    $0x48,%r14d
    feec:	31 db                	xor    %ebx,%ebx
    feee:	45 31 e4             	xor    %r12d,%r12d
    fef1:	31 ed                	xor    %ebp,%ebp
    fef3:	45 31 ff             	xor    %r15d,%r15d
    fef6:	4c 89 ff             	mov    %r15,%rdi
    fef9:	e8 a0 b7 ff ff       	call   b69e <Py_XDECREF>
    fefe:	48 89 ef             	mov    %rbp,%rdi
    ff01:	e8 98 b7 ff ff       	call   b69e <Py_XDECREF>
    ff06:	4c 89 e7             	mov    %r12,%rdi
    ff09:	e8 90 b7 ff ff       	call   b69e <Py_XDECREF>
    ff0e:	48 89 df             	mov    %rbx,%rdi
    ff11:	e8 88 b7 ff ff       	call   b69e <Py_XDECREF>
    ff16:	48 8d 0d fb 28 00 00 	lea    0x28fb(%rip),%rcx        # 12818 <_IO_stdin_used+0x818>
    ff1d:	44 89 f2             	mov    %r14d,%edx
    ff20:	44 89 ee             	mov    %r13d,%esi
    ff23:	eb 63                	jmp    ff88 <__pyx_pw_4main_7readbuttonvalues+0x1f74>
    ff25:	48 8d 0d 11 29 00 00 	lea    0x2911(%rip),%rcx        # 1283d <_IO_stdin_used+0x83d>
    ff2c:	45 31 c0             	xor    %r8d,%r8d
    ff2f:	4c 8d 0d d1 29 00 00 	lea    0x29d1(%rip),%r9        # 12907 <_IO_stdin_used+0x907>
    ff36:	4d 85 e4             	test   %r12,%r12
    ff39:	78 14                	js     ff4f <__pyx_pw_4main_7readbuttonvalues+0x1f3b>
    ff3b:	48 8d 0d f3 28 00 00 	lea    0x28f3(%rip),%rcx        # 12835 <_IO_stdin_used+0x835>
    ff42:	41 b8 01 00 00 00    	mov    $0x1,%r8d
    ff48:	4c 8d 0d 5e 28 00 00 	lea    0x285e(%rip),%r9        # 127ad <_IO_stdin_used+0x7ad>
    ff4f:	50                   	push   %rax
    ff50:	48 8b 3d c9 6e 00 00 	mov    0x6ec9(%rip),%rdi        # 16e20 <PyExc_TypeError@@Base>
    ff57:	48 8d 15 9a 29 00 00 	lea    0x299a(%rip),%rdx        # 128f8 <_IO_stdin_used+0x8f8>
    ff5e:	31 c0                	xor    %eax,%eax
    ff60:	41 54                	push   %r12
    ff62:	48 8d 35 a0 29 00 00 	lea    0x29a0(%rip),%rsi        # 12909 <_IO_stdin_used+0x909>
    ff69:	e8 22 43 ff ff       	call   4290 <PyErr_Format@plt>
    ff6e:	5a                   	pop    %rdx
    ff6f:	be b9 0e 00 00       	mov    $0xeb9,%esi
    ff74:	59                   	pop    %rcx
    ff75:	eb 05                	jmp    ff7c <__pyx_pw_4main_7readbuttonvalues+0x1f68>
    ff77:	be a6 0e 00 00       	mov    $0xea6,%esi
    ff7c:	48 8d 0d 95 28 00 00 	lea    0x2895(%rip),%rcx        # 12818 <_IO_stdin_used+0x818>
    ff83:	ba 25 00 00 00       	mov    $0x25,%edx
    ff88:	48 8d 3d 64 29 00 00 	lea    0x2964(%rip),%rdi        # 128f3 <_IO_stdin_used+0x8f3>
    ff8f:	45 31 ff             	xor    %r15d,%r15d
    ff92:	e8 0b d4 ff ff       	call   d3a2 <__Pyx_AddTraceback>
    ff97:	48 8b 44 24 58       	mov    0x58(%rsp),%rax
    ff9c:	64 48 2b 04 25 28 00 	sub    %fs:0x28,%rax
    ffa3:	00 00 
    ffa5:	74 05                	je     ffac <__pyx_pw_4main_7readbuttonvalues+0x1f98>
    ffa7:	e8 84 45 ff ff       	call   4530 <__stack_chk_fail@plt>
    ffac:	48 83 c4 68          	add    $0x68,%rsp
    ffb0:	4c 89 f8             	mov    %r15,%rax
    ffb3:	5b                   	pop    %rbx
    ffb4:	5d                   	pop    %rbp
    ffb5:	41 5c                	pop    %r12
    ffb7:	41 5d                	pop    %r13
    ffb9:	41 5e                	pop    %r14
    ffbb:	41 5f                	pop    %r15
    ffbd:	c3                   	ret

000000000000ffbe <__pyx_pw_4main_5refresh_serial>:
    ffbe:	41 56                	push   %r14
    ffc0:	41 55                	push   %r13
    ffc2:	41 54                	push   %r12
    ffc4:	55                   	push   %rbp
    ffc5:	53                   	push   %rbx
    ffc6:	48 83 ec 20          	sub    $0x20,%rsp
    ffca:	64 48 8b 3c 25 28 00 	mov    %fs:0x28,%rdi
    ffd1:	00 00 
    ffd3:	48 89 7c 24 18       	mov    %rdi,0x18(%rsp)
    ffd8:	48 8b 3d e9 7d 00 00 	mov    0x7de9(%rip),%rdi        # 17dc8 <__pyx_mstate_global_static+0x168>
    ffdf:	e8 a0 d1 ff ff       	call   d184 <__Pyx__GetModuleGlobalName>
    ffe4:	49 89 c4             	mov    %rax,%r12
    ffe7:	48 85 c0             	test   %rax,%rax
    ffea:	0f 84 cc 01 00 00    	je     101bc <__pyx_pw_4main_5refresh_serial+0x1fe>
    fff0:	48 8b 35 69 7d 00 00 	mov    0x7d69(%rip),%rsi        # 17d60 <__pyx_mstate_global_static+0x100>
    fff7:	48 89 c7             	mov    %rax,%rdi
    fffa:	e8 7d b5 ff ff       	call   b57c <__Pyx_PyObject_GetAttrStr>
    ffff:	49 89 c5             	mov    %rax,%r13
   10002:	48 85 c0             	test   %rax,%rax
   10005:	0f 84 c0 01 00 00    	je     101cb <__pyx_pw_4main_5refresh_serial+0x20d>
   1000b:	49 8b 04 24          	mov    (%r12),%rax
   1000f:	85 c0                	test   %eax,%eax
   10011:	78 11                	js     10024 <__pyx_pw_4main_5refresh_serial+0x66>
   10013:	48 ff c8             	dec    %rax
   10016:	49 89 04 24          	mov    %rax,(%r12)
   1001a:	75 08                	jne    10024 <__pyx_pw_4main_5refresh_serial+0x66>
   1001c:	4c 89 e7             	mov    %r12,%rdi
   1001f:	e8 2c 46 ff ff       	call   4650 <_Py_Dealloc@plt>
   10024:	e8 a7 47 ff ff       	call   47d0 <PyDict_New@plt>
   10029:	49 89 c4             	mov    %rax,%r12
   1002c:	48 85 c0             	test   %rax,%rax
   1002f:	0f 84 a2 01 00 00    	je     101d7 <__pyx_pw_4main_5refresh_serial+0x219>
   10035:	48 8b 3d a4 7d 00 00 	mov    0x7da4(%rip),%rdi        # 17de0 <__pyx_mstate_global_static+0x180>
   1003c:	e8 43 d1 ff ff       	call   d184 <__Pyx__GetModuleGlobalName>
   10041:	48 89 c3             	mov    %rax,%rbx
   10044:	48 85 c0             	test   %rax,%rax
   10047:	0f 84 96 01 00 00    	je     101e3 <__pyx_pw_4main_5refresh_serial+0x225>
   1004d:	31 ed                	xor    %ebp,%ebp
   1004f:	45 31 f6             	xor    %r14d,%r14d
   10052:	48 8d 05 87 76 00 00 	lea    0x7687(%rip),%rax        # 176e0 <PyMethod_Type@@Base>
   10059:	48 39 43 08          	cmp    %rax,0x8(%rbx)
   1005d:	75 52                	jne    100b1 <__pyx_pw_4main_5refresh_serial+0xf3>
   1005f:	48 89 df             	mov    %rbx,%rdi
   10062:	e8 87 c2 ff ff       	call   c2ee <PyMethod_GET_SELF>
   10067:	49 89 c6             	mov    %rax,%r14
   1006a:	48 85 c0             	test   %rax,%rax
   1006d:	74 42                	je     100b1 <__pyx_pw_4main_5refresh_serial+0xf3>
   1006f:	48 89 df             	mov    %rbx,%rdi
   10072:	e8 a9 c2 ff ff       	call   c320 <PyMethod_GET_FUNCTION>
   10077:	48 89 c5             	mov    %rax,%rbp
   1007a:	41 8b 06             	mov    (%r14),%eax
   1007d:	ff c0                	inc    %eax
   1007f:	74 03                	je     10084 <__pyx_pw_4main_5refresh_serial+0xc6>
   10081:	41 89 06             	mov    %eax,(%r14)
   10084:	8b 45 00             	mov    0x0(%rbp),%eax
   10087:	ff c0                	inc    %eax
   10089:	74 03                	je     1008e <__pyx_pw_4main_5refresh_serial+0xd0>
   1008b:	89 45 00             	mov    %eax,0x0(%rbp)
   1008e:	48 8b 03             	mov    (%rbx),%rax
   10091:	85 c0                	test   %eax,%eax
   10093:	78 08                	js     1009d <__pyx_pw_4main_5refresh_serial+0xdf>
   10095:	48 ff c8             	dec    %rax
   10098:	48 89 03             	mov    %rax,(%rbx)
   1009b:	74 0a                	je     100a7 <__pyx_pw_4main_5refresh_serial+0xe9>
   1009d:	48 89 eb             	mov    %rbp,%rbx
   100a0:	bd 01 00 00 00       	mov    $0x1,%ebp
   100a5:	eb 0a                	jmp    100b1 <__pyx_pw_4main_5refresh_serial+0xf3>
   100a7:	48 89 df             	mov    %rbx,%rdi
   100aa:	e8 a1 45 ff ff       	call   4650 <_Py_Dealloc@plt>
   100af:	eb ec                	jmp    1009d <__pyx_pw_4main_5refresh_serial+0xdf>
   100b1:	48 63 d5             	movslq %ebp,%rdx
   100b4:	83 f5 01             	xor    $0x1,%ebp
   100b7:	31 c0                	xor    %eax,%eax
   100b9:	48 89 df             	mov    %rbx,%rdi
   100bc:	48 63 ed             	movslq %ebp,%rbp
   100bf:	4c 89 74 24 08       	mov    %r14,0x8(%rsp)
   100c4:	48 8d 74 ec 08       	lea    0x8(%rsp,%rbp,8),%rsi
   100c9:	48 89 44 24 10       	mov    %rax,0x10(%rsp)
   100ce:	e8 c8 d1 ff ff       	call   d29b <__Pyx_PyObject_FastCallDict.constprop.0>
   100d3:	4c 89 f7             	mov    %r14,%rdi
   100d6:	41 be 44 0e 00 00    	mov    $0xe44,%r14d
   100dc:	48 89 c5             	mov    %rax,%rbp
   100df:	e8 ba b5 ff ff       	call   b69e <Py_XDECREF>
   100e4:	48 85 ed             	test   %rbp,%rbp
   100e7:	0f 84 12 01 00 00    	je     101ff <__pyx_pw_4main_5refresh_serial+0x241>
   100ed:	48 8b 03             	mov    (%rbx),%rax
   100f0:	85 c0                	test   %eax,%eax
   100f2:	78 10                	js     10104 <__pyx_pw_4main_5refresh_serial+0x146>
   100f4:	48 ff c8             	dec    %rax
   100f7:	48 89 03             	mov    %rax,(%rbx)
   100fa:	75 08                	jne    10104 <__pyx_pw_4main_5refresh_serial+0x146>
   100fc:	48 89 df             	mov    %rbx,%rdi
   100ff:	e8 4c 45 ff ff       	call   4650 <_Py_Dealloc@plt>
   10104:	48 8b 35 1d 7d 00 00 	mov    0x7d1d(%rip),%rsi        # 17e28 <__pyx_mstate_global_static+0x1c8>
   1010b:	48 89 ea             	mov    %rbp,%rdx
   1010e:	4c 89 e7             	mov    %r12,%rdi
   10111:	e8 9a 46 ff ff       	call   47b0 <PyDict_SetItem@plt>
   10116:	85 c0                	test   %eax,%eax
   10118:	0f 88 cf 00 00 00    	js     101ed <__pyx_pw_4main_5refresh_serial+0x22f>
   1011e:	48 8b 45 00          	mov    0x0(%rbp),%rax
   10122:	85 c0                	test   %eax,%eax
   10124:	78 11                	js     10137 <__pyx_pw_4main_5refresh_serial+0x179>
   10126:	48 ff c8             	dec    %rax
   10129:	48 89 45 00          	mov    %rax,0x0(%rbp)
   1012d:	75 08                	jne    10137 <__pyx_pw_4main_5refresh_serial+0x179>
   1012f:	48 89 ef             	mov    %rbp,%rdi
   10132:	e8 19 45 ff ff       	call   4650 <_Py_Dealloc@plt>
   10137:	48 8b 35 ca 7e 00 00 	mov    0x7eca(%rip),%rsi        # 18008 <__pyx_mstate_global_static+0x3a8>
   1013e:	4c 89 e2             	mov    %r12,%rdx
   10141:	4c 89 ef             	mov    %r13,%rdi
   10144:	e8 ff b2 ff ff       	call   b448 <__Pyx_PyObject_Call>
   10149:	48 89 c5             	mov    %rax,%rbp
   1014c:	48 85 c0             	test   %rax,%rax
   1014f:	0f 84 a2 00 00 00    	je     101f7 <__pyx_pw_4main_5refresh_serial+0x239>
   10155:	49 8b 45 00          	mov    0x0(%r13),%rax
   10159:	85 c0                	test   %eax,%eax
   1015b:	78 11                	js     1016e <__pyx_pw_4main_5refresh_serial+0x1b0>
   1015d:	48 ff c8             	dec    %rax
   10160:	49 89 45 00          	mov    %rax,0x0(%r13)
   10164:	75 08                	jne    1016e <__pyx_pw_4main_5refresh_serial+0x1b0>
   10166:	4c 89 ef             	mov    %r13,%rdi
   10169:	e8 e2 44 ff ff       	call   4650 <_Py_Dealloc@plt>
   1016e:	49 8b 04 24          	mov    (%r12),%rax
   10172:	85 c0                	test   %eax,%eax
   10174:	78 11                	js     10187 <__pyx_pw_4main_5refresh_serial+0x1c9>
   10176:	48 ff c8             	dec    %rax
   10179:	49 89 04 24          	mov    %rax,(%r12)
   1017d:	75 08                	jne    10187 <__pyx_pw_4main_5refresh_serial+0x1c9>
   1017f:	4c 89 e7             	mov    %r12,%rdi
   10182:	e8 c9 44 ff ff       	call   4650 <_Py_Dealloc@plt>
   10187:	48 8b 45 00          	mov    0x0(%rbp),%rax
   1018b:	85 c0                	test   %eax,%eax
   1018d:	78 11                	js     101a0 <__pyx_pw_4main_5refresh_serial+0x1e2>
   1018f:	48 ff c8             	dec    %rax
   10192:	48 89 45 00          	mov    %rax,0x0(%rbp)
   10196:	75 08                	jne    101a0 <__pyx_pw_4main_5refresh_serial+0x1e2>
   10198:	48 89 ef             	mov    %rbp,%rdi
   1019b:	e8 b0 44 ff ff       	call   4650 <_Py_Dealloc@plt>
   101a0:	8b 05 7a 78 00 00    	mov    0x787a(%rip),%eax        # 17a20 <_Py_NoneStruct@@Base>
   101a6:	ff c0                	inc    %eax
   101a8:	74 06                	je     101b0 <__pyx_pw_4main_5refresh_serial+0x1f2>
   101aa:	89 05 70 78 00 00    	mov    %eax,0x7870(%rip)        # 17a20 <_Py_NoneStruct@@Base>
   101b0:	48 8d 05 69 78 00 00 	lea    0x7869(%rip),%rax        # 17a20 <_Py_NoneStruct@@Base>
   101b7:	e9 80 00 00 00       	jmp    1023c <__pyx_pw_4main_5refresh_serial+0x27e>
   101bc:	31 db                	xor    %ebx,%ebx
   101be:	31 ed                	xor    %ebp,%ebp
   101c0:	45 31 ed             	xor    %r13d,%r13d
   101c3:	41 be 29 0e 00 00    	mov    $0xe29,%r14d
   101c9:	eb 34                	jmp    101ff <__pyx_pw_4main_5refresh_serial+0x241>
   101cb:	31 db                	xor    %ebx,%ebx
   101cd:	31 ed                	xor    %ebp,%ebp
   101cf:	41 be 2b 0e 00 00    	mov    $0xe2b,%r14d
   101d5:	eb 28                	jmp    101ff <__pyx_pw_4main_5refresh_serial+0x241>
   101d7:	31 db                	xor    %ebx,%ebx
   101d9:	31 ed                	xor    %ebp,%ebp
   101db:	41 be 2e 0e 00 00    	mov    $0xe2e,%r14d
   101e1:	eb 1c                	jmp    101ff <__pyx_pw_4main_5refresh_serial+0x241>
   101e3:	31 ed                	xor    %ebp,%ebp
   101e5:	41 be 30 0e 00 00    	mov    $0xe30,%r14d
   101eb:	eb 12                	jmp    101ff <__pyx_pw_4main_5refresh_serial+0x241>
   101ed:	41 be 48 0e 00 00    	mov    $0xe48,%r14d
   101f3:	31 db                	xor    %ebx,%ebx
   101f5:	eb 08                	jmp    101ff <__pyx_pw_4main_5refresh_serial+0x241>
   101f7:	31 db                	xor    %ebx,%ebx
   101f9:	41 be 4a 0e 00 00    	mov    $0xe4a,%r14d
   101ff:	4c 89 e7             	mov    %r12,%rdi
   10202:	e8 97 b4 ff ff       	call   b69e <Py_XDECREF>
   10207:	4c 89 ef             	mov    %r13,%rdi
   1020a:	e8 8f b4 ff ff       	call   b69e <Py_XDECREF>
   1020f:	48 89 ef             	mov    %rbp,%rdi
   10212:	e8 87 b4 ff ff       	call   b69e <Py_XDECREF>
   10217:	48 89 df             	mov    %rbx,%rdi
   1021a:	e8 7f b4 ff ff       	call   b69e <Py_XDECREF>
   1021f:	48 8d 0d f2 25 00 00 	lea    0x25f2(%rip),%rcx        # 12818 <_IO_stdin_used+0x818>
   10226:	44 89 f6             	mov    %r14d,%esi
   10229:	ba 22 00 00 00       	mov    $0x22,%edx
   1022e:	48 8d 3d 10 27 00 00 	lea    0x2710(%rip),%rdi        # 12945 <_IO_stdin_used+0x945>
   10235:	e8 68 d1 ff ff       	call   d3a2 <__Pyx_AddTraceback>
   1023a:	31 c0                	xor    %eax,%eax
   1023c:	48 8b 54 24 18       	mov    0x18(%rsp),%rdx
   10241:	64 48 2b 14 25 28 00 	sub    %fs:0x28,%rdx
   10248:	00 00 
   1024a:	74 05                	je     10251 <__pyx_pw_4main_5refresh_serial+0x293>
   1024c:	e8 df 42 ff ff       	call   4530 <__stack_chk_fail@plt>
   10251:	48 83 c4 20          	add    $0x20,%rsp
   10255:	5b                   	pop    %rbx
   10256:	5d                   	pop    %rbp
   10257:	41 5c                	pop    %r12
   10259:	41 5d                	pop    %r13
   1025b:	41 5e                	pop    %r14
   1025d:	c3                   	ret

000000000001025e <__pyx_pw_4main_3connect_serial>:
   1025e:	41 57                	push   %r15
   10260:	41 56                	push   %r14
   10262:	41 55                	push   %r13
   10264:	41 54                	push   %r12
   10266:	45 31 e4             	xor    %r12d,%r12d
   10269:	55                   	push   %rbp
   1026a:	53                   	push   %rbx
   1026b:	48 83 ec 78          	sub    $0x78,%rsp
   1026f:	48 8b 3d 52 7b 00 00 	mov    0x7b52(%rip),%rdi        # 17dc8 <__pyx_mstate_global_static+0x168>
   10276:	64 48 8b 04 25 28 00 	mov    %fs:0x28,%rax
   1027d:	00 00 
   1027f:	48 89 44 24 68       	mov    %rax,0x68(%rsp)
   10284:	31 c0                	xor    %eax,%eax
   10286:	4c 89 64 24 20       	mov    %r12,0x20(%rsp)
   1028b:	4c 89 64 24 28       	mov    %r12,0x28(%rsp)
   10290:	4c 89 64 24 30       	mov    %r12,0x30(%rsp)
   10295:	4c 89 64 24 38       	mov    %r12,0x38(%rsp)
   1029a:	4c 89 64 24 40       	mov    %r12,0x40(%rsp)
   1029f:	4c 89 64 24 48       	mov    %r12,0x48(%rsp)
   102a4:	e8 db ce ff ff       	call   d184 <__Pyx__GetModuleGlobalName>
   102a9:	48 89 c3             	mov    %rax,%rbx
   102ac:	48 85 c0             	test   %rax,%rax
   102af:	0f 84 50 08 00 00    	je     10b05 <__pyx_pw_4main_3connect_serial+0x8a7>
   102b5:	48 8b 35 2c 7b 00 00 	mov    0x7b2c(%rip),%rsi        # 17de8 <__pyx_mstate_global_static+0x188>
   102bc:	48 89 c7             	mov    %rax,%rdi
   102bf:	e8 b8 b2 ff ff       	call   b57c <__Pyx_PyObject_GetAttrStr>
   102c4:	48 89 44 24 28       	mov    %rax,0x28(%rsp)
   102c9:	48 89 c5             	mov    %rax,%rbp
   102cc:	48 85 c0             	test   %rax,%rax
   102cf:	0f 84 3d 08 00 00    	je     10b12 <__pyx_pw_4main_3connect_serial+0x8b4>
   102d5:	48 8b 03             	mov    (%rbx),%rax
   102d8:	85 c0                	test   %eax,%eax
   102da:	78 10                	js     102ec <__pyx_pw_4main_3connect_serial+0x8e>
   102dc:	48 ff c8             	dec    %rax
   102df:	48 89 03             	mov    %rax,(%rbx)
   102e2:	75 08                	jne    102ec <__pyx_pw_4main_3connect_serial+0x8e>
   102e4:	48 89 df             	mov    %rbx,%rdi
   102e7:	e8 64 43 ff ff       	call   4650 <_Py_Dealloc@plt>
   102ec:	4c 8d 3d ed 73 00 00 	lea    0x73ed(%rip),%r15        # 176e0 <PyMethod_Type@@Base>
   102f3:	31 db                	xor    %ebx,%ebx
   102f5:	45 31 e4             	xor    %r12d,%r12d
   102f8:	4c 39 7d 08          	cmp    %r15,0x8(%rbp)
   102fc:	75 59                	jne    10357 <__pyx_pw_4main_3connect_serial+0xf9>
   102fe:	48 89 ef             	mov    %rbp,%rdi
   10301:	e8 e8 bf ff ff       	call   c2ee <PyMethod_GET_SELF>
   10306:	49 89 c4             	mov    %rax,%r12
   10309:	48 85 c0             	test   %rax,%rax
   1030c:	74 49                	je     10357 <__pyx_pw_4main_3connect_serial+0xf9>
   1030e:	48 89 ef             	mov    %rbp,%rdi
   10311:	e8 0a c0 ff ff       	call   c320 <PyMethod_GET_FUNCTION>
   10316:	48 89 c3             	mov    %rax,%rbx
   10319:	41 8b 04 24          	mov    (%r12),%eax
   1031d:	ff c0                	inc    %eax
   1031f:	74 04                	je     10325 <__pyx_pw_4main_3connect_serial+0xc7>
   10321:	41 89 04 24          	mov    %eax,(%r12)
   10325:	8b 03                	mov    (%rbx),%eax
   10327:	ff c0                	inc    %eax
   10329:	74 02                	je     1032d <__pyx_pw_4main_3connect_serial+0xcf>
   1032b:	89 03                	mov    %eax,(%rbx)
   1032d:	48 8b 45 00          	mov    0x0(%rbp),%rax
   10331:	48 89 5c 24 28       	mov    %rbx,0x28(%rsp)
   10336:	85 c0                	test   %eax,%eax
   10338:	78 09                	js     10343 <__pyx_pw_4main_3connect_serial+0xe5>
   1033a:	48 ff c8             	dec    %rax
   1033d:	48 89 45 00          	mov    %rax,0x0(%rbp)
   10341:	74 0a                	je     1034d <__pyx_pw_4main_3connect_serial+0xef>
   10343:	48 89 dd             	mov    %rbx,%rbp
   10346:	bb 01 00 00 00       	mov    $0x1,%ebx
   1034b:	eb 0a                	jmp    10357 <__pyx_pw_4main_3connect_serial+0xf9>
   1034d:	48 89 ef             	mov    %rbp,%rdi
   10350:	e8 fb 42 ff ff       	call   4650 <_Py_Dealloc@plt>
   10355:	eb ec                	jmp    10343 <__pyx_pw_4main_3connect_serial+0xe5>
   10357:	48 8b 05 ca 7b 00 00 	mov    0x7bca(%rip),%rax        # 17f28 <__pyx_mstate_global_static+0x2c8>
   1035e:	8d 53 01             	lea    0x1(%rbx),%edx
   10361:	83 f3 01             	xor    $0x1,%ebx
   10364:	48 89 ef             	mov    %rbp,%rdi
   10367:	48 63 db             	movslq %ebx,%rbx
   1036a:	48 63 d2             	movslq %edx,%rdx
   1036d:	4c 89 64 24 50       	mov    %r12,0x50(%rsp)
   10372:	48 89 44 24 58       	mov    %rax,0x58(%rsp)
   10377:	48 8d 44 24 50       	lea    0x50(%rsp),%rax
   1037c:	48 8d 34 d8          	lea    (%rax,%rbx,8),%rsi
   10380:	48 89 44 24 10       	mov    %rax,0x10(%rsp)
   10385:	e8 11 cf ff ff       	call   d29b <__Pyx_PyObject_FastCallDict.constprop.0>
   1038a:	4c 89 e7             	mov    %r12,%rdi
   1038d:	48 89 c3             	mov    %rax,%rbx
   10390:	48 89 44 24 20       	mov    %rax,0x20(%rsp)
   10395:	e8 04 b3 ff ff       	call   b69e <Py_XDECREF>
   1039a:	48 85 db             	test   %rbx,%rbx
   1039d:	75 10                	jne    103af <__pyx_pw_4main_3connect_serial+0x151>
   1039f:	45 31 e4             	xor    %r12d,%r12d
   103a2:	31 ed                	xor    %ebp,%ebp
   103a4:	41 be 23 0d 00 00    	mov    $0xd23,%r14d
   103aa:	e9 6c 07 00 00       	jmp    10b1b <__pyx_pw_4main_3connect_serial+0x8bd>
   103af:	48 8b 45 00          	mov    0x0(%rbp),%rax
   103b3:	85 c0                	test   %eax,%eax
   103b5:	78 11                	js     103c8 <__pyx_pw_4main_3connect_serial+0x16a>
   103b7:	48 ff c8             	dec    %rax
   103ba:	48 89 45 00          	mov    %rax,0x0(%rbp)
   103be:	75 08                	jne    103c8 <__pyx_pw_4main_3connect_serial+0x16a>
   103c0:	48 89 ef             	mov    %rbp,%rdi
   103c3:	e8 88 42 ff ff       	call   4650 <_Py_Dealloc@plt>
   103c8:	31 ed                	xor    %ebp,%ebp
   103ca:	48 89 6c 24 28       	mov    %rbp,0x28(%rsp)
   103cf:	e8 5c 43 ff ff       	call   4730 <_PyThreadState_UncheckedGet@plt>
   103d4:	48 8d 4c 24 40       	lea    0x40(%rsp),%rcx
   103d9:	48 8d 54 24 38       	lea    0x38(%rsp),%rdx
   103de:	48 8b 78 68          	mov    0x68(%rax),%rdi
   103e2:	48 8d 74 24 30       	lea    0x30(%rsp),%rsi
   103e7:	48 89 44 24 08       	mov    %rax,0x8(%rsp)
   103ec:	e8 83 c4 ff ff       	call   c874 <__Pyx__ExceptionSave.constprop.0.isra.0>
   103f1:	48 8b 3d 28 7b 00 00 	mov    0x7b28(%rip),%rdi        # 17f20 <__pyx_mstate_global_static+0x2c0>
   103f8:	e8 87 cd ff ff       	call   d184 <__Pyx__GetModuleGlobalName>
   103fd:	48 89 44 24 20       	mov    %rax,0x20(%rsp)
   10402:	49 89 c4             	mov    %rax,%r12
   10405:	48 85 c0             	test   %rax,%rax
   10408:	0f 84 87 03 00 00    	je     10795 <__pyx_pw_4main_3connect_serial+0x537>
   1040e:	48 8b 35 a3 78 00 00 	mov    0x78a3(%rip),%rsi        # 17cb8 <__pyx_mstate_global_static+0x58>
   10415:	48 89 c7             	mov    %rax,%rdi
   10418:	e8 5f b1 ff ff       	call   b57c <__Pyx_PyObject_GetAttrStr>
   1041d:	48 89 44 24 28       	mov    %rax,0x28(%rsp)
   10422:	49 89 c6             	mov    %rax,%r14
   10425:	48 85 c0             	test   %rax,%rax
   10428:	0f 84 6f 03 00 00    	je     1079d <__pyx_pw_4main_3connect_serial+0x53f>
   1042e:	49 8b 04 24          	mov    (%r12),%rax
   10432:	85 c0                	test   %eax,%eax
   10434:	78 11                	js     10447 <__pyx_pw_4main_3connect_serial+0x1e9>
   10436:	48 ff c8             	dec    %rax
   10439:	49 89 04 24          	mov    %rax,(%r12)
   1043d:	75 08                	jne    10447 <__pyx_pw_4main_3connect_serial+0x1e9>
   1043f:	4c 89 e7             	mov    %r12,%rdi
   10442:	e8 09 42 ff ff       	call   4650 <_Py_Dealloc@plt>
   10447:	bf 02 00 00 00       	mov    $0x2,%edi
   1044c:	e8 4f 42 ff ff       	call   46a0 <PyTuple_New@plt>
   10451:	48 89 44 24 20       	mov    %rax,0x20(%rsp)
   10456:	48 89 c5             	mov    %rax,%rbp
   10459:	48 85 c0             	test   %rax,%rax
   1045c:	0f 84 4c 03 00 00    	je     107ae <__pyx_pw_4main_3connect_serial+0x550>
   10462:	8b 03                	mov    (%rbx),%eax
   10464:	ff c0                	inc    %eax
   10466:	74 02                	je     1046a <__pyx_pw_4main_3connect_serial+0x20c>
   10468:	89 03                	mov    %eax,(%rbx)
   1046a:	48 89 da             	mov    %rbx,%rdx
   1046d:	31 f6                	xor    %esi,%esi
   1046f:	48 89 ef             	mov    %rbp,%rdi
   10472:	e8 44 be ff ff       	call   c2bb <PyTuple_SET_ITEM>
   10477:	48 8b 15 7a 7b 00 00 	mov    0x7b7a(%rip),%rdx        # 17ff8 <__pyx_mstate_global_static+0x398>
   1047e:	8b 02                	mov    (%rdx),%eax
   10480:	ff c0                	inc    %eax
   10482:	74 02                	je     10486 <__pyx_pw_4main_3connect_serial+0x228>
   10484:	89 02                	mov    %eax,(%rdx)
   10486:	be 01 00 00 00       	mov    $0x1,%esi
   1048b:	48 89 ef             	mov    %rbp,%rdi
   1048e:	e8 28 be ff ff       	call   c2bb <PyTuple_SET_ITEM>
   10493:	e8 38 43 ff ff       	call   47d0 <PyDict_New@plt>
   10498:	49 89 c4             	mov    %rax,%r12
   1049b:	48 85 c0             	test   %rax,%rax
   1049e:	0f 84 15 03 00 00    	je     107b9 <__pyx_pw_4main_3connect_serial+0x55b>
   104a4:	48 8b 15 2d 7b 00 00 	mov    0x7b2d(%rip),%rdx        # 17fd8 <__pyx_mstate_global_static+0x378>
   104ab:	48 8b 35 ce 7a 00 00 	mov    0x7ace(%rip),%rsi        # 17f80 <__pyx_mstate_global_static+0x320>
   104b2:	48 89 c7             	mov    %rax,%rdi
   104b5:	e8 f6 42 ff ff       	call   47b0 <PyDict_SetItem@plt>
   104ba:	85 c0                	test   %eax,%eax
   104bc:	0f 88 ff 02 00 00    	js     107c1 <__pyx_pw_4main_3connect_serial+0x563>
   104c2:	4c 89 e2             	mov    %r12,%rdx
   104c5:	48 89 ee             	mov    %rbp,%rsi
   104c8:	4c 89 f7             	mov    %r14,%rdi
   104cb:	e8 78 af ff ff       	call   b448 <__Pyx_PyObject_Call>
   104d0:	48 89 44 24 48       	mov    %rax,0x48(%rsp)
   104d5:	49 89 c5             	mov    %rax,%r13
   104d8:	48 85 c0             	test   %rax,%rax
   104db:	0f 84 e8 02 00 00    	je     107c9 <__pyx_pw_4main_3connect_serial+0x56b>
   104e1:	49 8b 06             	mov    (%r14),%rax
   104e4:	85 c0                	test   %eax,%eax
   104e6:	78 10                	js     104f8 <__pyx_pw_4main_3connect_serial+0x29a>
   104e8:	48 ff c8             	dec    %rax
   104eb:	49 89 06             	mov    %rax,(%r14)
   104ee:	75 08                	jne    104f8 <__pyx_pw_4main_3connect_serial+0x29a>
   104f0:	4c 89 f7             	mov    %r14,%rdi
   104f3:	e8 58 41 ff ff       	call   4650 <_Py_Dealloc@plt>
   104f8:	48 8b 45 00          	mov    0x0(%rbp),%rax
   104fc:	45 31 db             	xor    %r11d,%r11d
   104ff:	4c 89 5c 24 28       	mov    %r11,0x28(%rsp)
   10504:	85 c0                	test   %eax,%eax
   10506:	78 11                	js     10519 <__pyx_pw_4main_3connect_serial+0x2bb>
   10508:	48 ff c8             	dec    %rax
   1050b:	48 89 45 00          	mov    %rax,0x0(%rbp)
   1050f:	75 08                	jne    10519 <__pyx_pw_4main_3connect_serial+0x2bb>
   10511:	48 89 ef             	mov    %rbp,%rdi
   10514:	e8 37 41 ff ff       	call   4650 <_Py_Dealloc@plt>
   10519:	49 8b 04 24          	mov    (%r12),%rax
   1051d:	45 31 d2             	xor    %r10d,%r10d
   10520:	4c 89 54 24 20       	mov    %r10,0x20(%rsp)
   10525:	85 c0                	test   %eax,%eax
   10527:	78 11                	js     1053a <__pyx_pw_4main_3connect_serial+0x2dc>
   10529:	48 ff c8             	dec    %rax
   1052c:	49 89 04 24          	mov    %rax,(%r12)
   10530:	75 08                	jne    1053a <__pyx_pw_4main_3connect_serial+0x2dc>
   10532:	4c 89 e7             	mov    %r12,%rdi
   10535:	e8 16 41 ff ff       	call   4650 <_Py_Dealloc@plt>
   1053a:	48 8b 35 d7 79 00 00 	mov    0x79d7(%rip),%rsi        # 17f18 <__pyx_mstate_global_static+0x2b8>
   10541:	48 8b 3d 18 77 00 00 	mov    0x7718(%rip),%rdi        # 17c60 <__pyx_mstate_global_static>
   10548:	4c 89 ea             	mov    %r13,%rdx
   1054b:	e8 60 42 ff ff       	call   47b0 <PyDict_SetItem@plt>
   10550:	85 c0                	test   %eax,%eax
   10552:	0f 88 79 02 00 00    	js     107d1 <__pyx_pw_4main_3connect_serial+0x573>
   10558:	49 8b 45 00          	mov    0x0(%r13),%rax
   1055c:	85 c0                	test   %eax,%eax
   1055e:	78 11                	js     10571 <__pyx_pw_4main_3connect_serial+0x313>
   10560:	48 ff c8             	dec    %rax
   10563:	49 89 45 00          	mov    %rax,0x0(%r13)
   10567:	75 08                	jne    10571 <__pyx_pw_4main_3connect_serial+0x313>
   10569:	4c 89 ef             	mov    %r13,%rdi
   1056c:	e8 df 40 ff ff       	call   4650 <_Py_Dealloc@plt>
   10571:	48 8b 3d 50 78 00 00 	mov    0x7850(%rip),%rdi        # 17dc8 <__pyx_mstate_global_static+0x168>
   10578:	45 31 c9             	xor    %r9d,%r9d
   1057b:	4c 89 4c 24 48       	mov    %r9,0x48(%rsp)
   10580:	e8 ff cb ff ff       	call   d184 <__Pyx__GetModuleGlobalName>
   10585:	49 89 c4             	mov    %rax,%r12
   10588:	48 85 c0             	test   %rax,%rax
   1058b:	0f 84 51 02 00 00    	je     107e2 <__pyx_pw_4main_3connect_serial+0x584>
   10591:	48 8b 35 b0 79 00 00 	mov    0x79b0(%rip),%rsi        # 17f48 <__pyx_mstate_global_static+0x2e8>
   10598:	48 89 c7             	mov    %rax,%rdi
   1059b:	e8 dc af ff ff       	call   b57c <__Pyx_PyObject_GetAttrStr>
   105a0:	48 89 44 24 20       	mov    %rax,0x20(%rsp)
   105a5:	48 89 c5             	mov    %rax,%rbp
   105a8:	48 85 c0             	test   %rax,%rax
   105ab:	0f 84 39 02 00 00    	je     107ea <__pyx_pw_4main_3connect_serial+0x58c>
   105b1:	49 8b 04 24          	mov    (%r12),%rax
   105b5:	85 c0                	test   %eax,%eax
   105b7:	78 11                	js     105ca <__pyx_pw_4main_3connect_serial+0x36c>
   105b9:	48 ff c8             	dec    %rax
   105bc:	49 89 04 24          	mov    %rax,(%r12)
   105c0:	75 08                	jne    105ca <__pyx_pw_4main_3connect_serial+0x36c>
   105c2:	4c 89 e7             	mov    %r12,%rdi
   105c5:	e8 86 40 ff ff       	call   4650 <_Py_Dealloc@plt>
   105ca:	48 8b 43 08          	mov    0x8(%rbx),%rax
   105ce:	48 8d 15 8b 6d 00 00 	lea    0x6d8b(%rip),%rdx        # 17360 <PyUnicode_Type@@Base>
   105d5:	48 39 d0             	cmp    %rdx,%rax
   105d8:	75 0d                	jne    105e7 <__pyx_pw_4main_3connect_serial+0x389>
   105da:	8b 03                	mov    (%rbx),%eax
   105dc:	ff c0                	inc    %eax
   105de:	74 02                	je     105e2 <__pyx_pw_4main_3connect_serial+0x384>
   105e0:	89 03                	mov    %eax,(%rbx)
   105e2:	49 89 dc             	mov    %rbx,%r12
   105e5:	eb 3b                	jmp    10622 <__pyx_pw_4main_3connect_serial+0x3c4>
   105e7:	48 8d 15 92 72 00 00 	lea    0x7292(%rip),%rdx        # 17880 <PyLong_Type@@Base>
   105ee:	48 39 d0             	cmp    %rdx,%rax
   105f1:	74 0c                	je     105ff <__pyx_pw_4main_3connect_serial+0x3a1>
   105f3:	48 8d 15 a6 6b 00 00 	lea    0x6ba6(%rip),%rdx        # 171a0 <PyFloat_Type@@Base>
   105fa:	48 39 d0             	cmp    %rdx,%rax
   105fd:	75 08                	jne    10607 <__pyx_pw_4main_3connect_serial+0x3a9>
   105ff:	48 89 df             	mov    %rbx,%rdi
   10602:	ff 50 58             	call   *0x58(%rax)
   10605:	eb 0f                	jmp    10616 <__pyx_pw_4main_3connect_serial+0x3b8>
   10607:	48 8b 35 7a 76 00 00 	mov    0x767a(%rip),%rsi        # 17c88 <__pyx_mstate_global_static+0x28>
   1060e:	48 89 df             	mov    %rbx,%rdi
   10611:	e8 ba 3e ff ff       	call   44d0 <PyObject_Format@plt>
   10616:	49 89 c4             	mov    %rax,%r12
   10619:	48 85 c0             	test   %rax,%rax
   1061c:	0f 84 d0 01 00 00    	je     107f2 <__pyx_pw_4main_3connect_serial+0x594>
   10622:	48 8b 3d 7f 76 00 00 	mov    0x767f(%rip),%rdi        # 17ca8 <__pyx_mstate_global_static+0x48>
   10629:	4c 89 e6             	mov    %r12,%rsi
   1062c:	e8 4f 3d ff ff       	call   4380 <PyUnicode_Concat@plt>
   10631:	48 89 44 24 28       	mov    %rax,0x28(%rsp)
   10636:	49 89 c5             	mov    %rax,%r13
   10639:	48 85 c0             	test   %rax,%rax
   1063c:	0f 84 b8 01 00 00    	je     107fa <__pyx_pw_4main_3connect_serial+0x59c>
   10642:	49 8b 04 24          	mov    (%r12),%rax
   10646:	85 c0                	test   %eax,%eax
   10648:	78 11                	js     1065b <__pyx_pw_4main_3connect_serial+0x3fd>
   1064a:	48 ff c8             	dec    %rax
   1064d:	49 89 04 24          	mov    %rax,(%r12)
   10651:	75 08                	jne    1065b <__pyx_pw_4main_3connect_serial+0x3fd>
   10653:	4c 89 e7             	mov    %r12,%rdi
   10656:	e8 f5 3f ff ff       	call   4650 <_Py_Dealloc@plt>
   1065b:	45 31 e4             	xor    %r12d,%r12d
   1065e:	45 31 f6             	xor    %r14d,%r14d
   10661:	4c 39 7d 08          	cmp    %r15,0x8(%rbp)
   10665:	75 5a                	jne    106c1 <__pyx_pw_4main_3connect_serial+0x463>
   10667:	48 89 ef             	mov    %rbp,%rdi
   1066a:	e8 7f bc ff ff       	call   c2ee <PyMethod_GET_SELF>
   1066f:	49 89 c6             	mov    %rax,%r14
   10672:	48 85 c0             	test   %rax,%rax
   10675:	74 4a                	je     106c1 <__pyx_pw_4main_3connect_serial+0x463>
   10677:	48 89 ef             	mov    %rbp,%rdi
   1067a:	e8 a1 bc ff ff       	call   c320 <PyMethod_GET_FUNCTION>
   1067f:	49 89 c7             	mov    %rax,%r15
   10682:	41 8b 06             	mov    (%r14),%eax
   10685:	ff c0                	inc    %eax
   10687:	74 03                	je     1068c <__pyx_pw_4main_3connect_serial+0x42e>
   10689:	41 89 06             	mov    %eax,(%r14)
   1068c:	41 8b 07             	mov    (%r15),%eax
   1068f:	ff c0                	inc    %eax
   10691:	74 03                	je     10696 <__pyx_pw_4main_3connect_serial+0x438>
   10693:	41 89 07             	mov    %eax,(%r15)
   10696:	48 8b 45 00          	mov    0x0(%rbp),%rax
   1069a:	4c 89 7c 24 20       	mov    %r15,0x20(%rsp)
   1069f:	85 c0                	test   %eax,%eax
   106a1:	78 09                	js     106ac <__pyx_pw_4main_3connect_serial+0x44e>
   106a3:	48 ff c8             	dec    %rax
   106a6:	48 89 45 00          	mov    %rax,0x0(%rbp)
   106aa:	74 0b                	je     106b7 <__pyx_pw_4main_3connect_serial+0x459>
   106ac:	4c 89 fd             	mov    %r15,%rbp
   106af:	41 bc 01 00 00 00    	mov    $0x1,%r12d
   106b5:	eb 0a                	jmp    106c1 <__pyx_pw_4main_3connect_serial+0x463>
   106b7:	48 89 ef             	mov    %rbp,%rdi
   106ba:	e8 91 3f ff ff       	call   4650 <_Py_Dealloc@plt>
   106bf:	eb eb                	jmp    106ac <__pyx_pw_4main_3connect_serial+0x44e>
   106c1:	44 89 e1             	mov    %r12d,%ecx
   106c4:	41 8d 54 24 02       	lea    0x2(%r12),%edx
   106c9:	48 89 ef             	mov    %rbp,%rdi
   106cc:	4c 89 74 24 50       	mov    %r14,0x50(%rsp)
   106d1:	48 8b 05 a0 76 00 00 	mov    0x76a0(%rip),%rax        # 17d78 <__pyx_mstate_global_static+0x118>
   106d8:	83 f1 01             	xor    $0x1,%ecx
   106db:	48 63 d2             	movslq %edx,%rdx
   106de:	4c 89 6c 24 60       	mov    %r13,0x60(%rsp)
   106e3:	48 63 c9             	movslq %ecx,%rcx
   106e6:	48 89 44 24 58       	mov    %rax,0x58(%rsp)
   106eb:	48 8b 44 24 10       	mov    0x10(%rsp),%rax
   106f0:	48 8d 34 c8          	lea    (%rax,%rcx,8),%rsi
   106f4:	e8 a2 cb ff ff       	call   d29b <__Pyx_PyObject_FastCallDict.constprop.0>
   106f9:	4c 89 f7             	mov    %r14,%rdi
   106fc:	48 89 44 24 48       	mov    %rax,0x48(%rsp)
   10701:	49 89 c4             	mov    %rax,%r12
   10704:	e8 95 af ff ff       	call   b69e <Py_XDECREF>
   10709:	49 8b 45 00          	mov    0x0(%r13),%rax
   1070d:	85 c0                	test   %eax,%eax
   1070f:	78 11                	js     10722 <__pyx_pw_4main_3connect_serial+0x4c4>
   10711:	48 ff c8             	dec    %rax
   10714:	49 89 45 00          	mov    %rax,0x0(%r13)
   10718:	75 08                	jne    10722 <__pyx_pw_4main_3connect_serial+0x4c4>
   1071a:	4c 89 ef             	mov    %r13,%rdi
   1071d:	e8 2e 3f ff ff       	call   4650 <_Py_Dealloc@plt>
   10722:	45 31 c0             	xor    %r8d,%r8d
   10725:	41 be 7d 0d 00 00    	mov    $0xd7d,%r14d
   1072b:	4c 89 44 24 28       	mov    %r8,0x28(%rsp)
   10730:	4d 85 e4             	test   %r12,%r12
   10733:	0f 84 c7 00 00 00    	je     10800 <__pyx_pw_4main_3connect_serial+0x5a2>
   10739:	48 8b 45 00          	mov    0x0(%rbp),%rax
   1073d:	85 c0                	test   %eax,%eax
   1073f:	78 11                	js     10752 <__pyx_pw_4main_3connect_serial+0x4f4>
   10741:	48 ff c8             	dec    %rax
   10744:	48 89 45 00          	mov    %rax,0x0(%rbp)
   10748:	75 08                	jne    10752 <__pyx_pw_4main_3connect_serial+0x4f4>
   1074a:	48 89 ef             	mov    %rbp,%rdi
   1074d:	e8 fe 3e ff ff       	call   4650 <_Py_Dealloc@plt>
   10752:	49 8b 04 24          	mov    (%r12),%rax
   10756:	31 ff                	xor    %edi,%edi
   10758:	48 89 7c 24 20       	mov    %rdi,0x20(%rsp)
   1075d:	85 c0                	test   %eax,%eax
   1075f:	78 11                	js     10772 <__pyx_pw_4main_3connect_serial+0x514>
   10761:	48 ff c8             	dec    %rax
   10764:	49 89 04 24          	mov    %rax,(%r12)
   10768:	75 08                	jne    10772 <__pyx_pw_4main_3connect_serial+0x514>
   1076a:	4c 89 e7             	mov    %r12,%rdi
   1076d:	e8 de 3e ff ff       	call   4650 <_Py_Dealloc@plt>
   10772:	48 8b 7c 24 30       	mov    0x30(%rsp),%rdi
   10777:	e8 22 af ff ff       	call   b69e <Py_XDECREF>
   1077c:	48 8b 7c 24 38       	mov    0x38(%rsp),%rdi
   10781:	e8 18 af ff ff       	call   b69e <Py_XDECREF>
   10786:	48 8b 7c 24 40       	mov    0x40(%rsp),%rdi
   1078b:	e8 0e af ff ff       	call   b69e <Py_XDECREF>
   10790:	e9 57 03 00 00       	jmp    10aec <__pyx_pw_4main_3connect_serial+0x88e>
   10795:	41 be 41 0d 00 00    	mov    $0xd41,%r14d
   1079b:	eb 09                	jmp    107a6 <__pyx_pw_4main_3connect_serial+0x548>
   1079d:	45 31 e4             	xor    %r12d,%r12d
   107a0:	41 be 43 0d 00 00    	mov    $0xd43,%r14d
   107a6:	41 bd 1b 00 00 00    	mov    $0x1b,%r13d
   107ac:	eb 58                	jmp    10806 <__pyx_pw_4main_3connect_serial+0x5a8>
   107ae:	45 31 e4             	xor    %r12d,%r12d
   107b1:	41 be 46 0d 00 00    	mov    $0xd46,%r14d
   107b7:	eb ed                	jmp    107a6 <__pyx_pw_4main_3connect_serial+0x548>
   107b9:	41 be 4e 0d 00 00    	mov    $0xd4e,%r14d
   107bf:	eb e5                	jmp    107a6 <__pyx_pw_4main_3connect_serial+0x548>
   107c1:	41 be 50 0d 00 00    	mov    $0xd50,%r14d
   107c7:	eb dd                	jmp    107a6 <__pyx_pw_4main_3connect_serial+0x548>
   107c9:	41 be 51 0d 00 00    	mov    $0xd51,%r14d
   107cf:	eb d5                	jmp    107a6 <__pyx_pw_4main_3connect_serial+0x548>
   107d1:	41 be 56 0d 00 00    	mov    $0xd56,%r14d
   107d7:	41 bd 1b 00 00 00    	mov    $0x1b,%r13d
   107dd:	45 31 e4             	xor    %r12d,%r12d
   107e0:	eb 24                	jmp    10806 <__pyx_pw_4main_3connect_serial+0x5a8>
   107e2:	41 be 60 0d 00 00    	mov    $0xd60,%r14d
   107e8:	eb 16                	jmp    10800 <__pyx_pw_4main_3connect_serial+0x5a2>
   107ea:	41 be 62 0d 00 00    	mov    $0xd62,%r14d
   107f0:	eb 0e                	jmp    10800 <__pyx_pw_4main_3connect_serial+0x5a2>
   107f2:	41 be 65 0d 00 00    	mov    $0xd65,%r14d
   107f8:	eb 06                	jmp    10800 <__pyx_pw_4main_3connect_serial+0x5a2>
   107fa:	41 be 67 0d 00 00    	mov    $0xd67,%r14d
   10800:	41 bd 1c 00 00 00    	mov    $0x1c,%r13d
   10806:	48 8b 7c 24 20       	mov    0x20(%rsp),%rdi
   1080b:	e8 8e ae ff ff       	call   b69e <Py_XDECREF>
   10810:	4c 89 e7             	mov    %r12,%rdi
   10813:	e8 86 ae ff ff       	call   b69e <Py_XDECREF>
   10818:	48 8b 7c 24 28       	mov    0x28(%rsp),%rdi
   1081d:	e8 7c ae ff ff       	call   b69e <Py_XDECREF>
   10822:	48 8b 7c 24 48       	mov    0x48(%rsp),%rdi
   10827:	e8 72 ae ff ff       	call   b69e <Py_XDECREF>
   1082c:	48 8b 44 24 08       	mov    0x8(%rsp),%rax
   10831:	31 c9                	xor    %ecx,%ecx
   10833:	31 f6                	xor    %esi,%esi
   10835:	48 89 74 24 48       	mov    %rsi,0x48(%rsp)
   1083a:	48 8b 40 60          	mov    0x60(%rax),%rax
   1083e:	48 89 74 24 28       	mov    %rsi,0x28(%rsp)
   10843:	48 89 44 24 10       	mov    %rax,0x10(%rsp)
   10848:	48 8b 44 24 08       	mov    0x8(%rsp),%rax
   1084d:	48 89 48 60          	mov    %rcx,0x60(%rax)
   10851:	48 8b 44 24 10       	mov    0x10(%rsp),%rax
   10856:	48 89 44 24 20       	mov    %rax,0x20(%rsp)
   1085b:	48 85 c0             	test   %rax,%rax
   1085e:	74 30                	je     10890 <__pyx_pw_4main_3connect_serial+0x632>
   10860:	48 8b 68 08          	mov    0x8(%rax),%rbp
   10864:	8b 45 00             	mov    0x0(%rbp),%eax
   10867:	48 89 6c 24 48       	mov    %rbp,0x48(%rsp)
   1086c:	ff c0                	inc    %eax
   1086e:	74 03                	je     10873 <__pyx_pw_4main_3connect_serial+0x615>
   10870:	89 45 00             	mov    %eax,0x0(%rbp)
   10873:	48 8b 44 24 10       	mov    0x10(%rsp),%rax
   10878:	48 8b 40 28          	mov    0x28(%rax),%rax
   1087c:	48 89 c7             	mov    %rax,%rdi
   1087f:	48 89 44 24 18       	mov    %rax,0x18(%rsp)
   10884:	48 89 44 24 28       	mov    %rax,0x28(%rsp)
   10889:	e8 0b a9 ff ff       	call   b199 <Py_XINCREF>
   1088e:	eb 09                	jmp    10899 <__pyx_pw_4main_3connect_serial+0x63b>
   10890:	31 d2                	xor    %edx,%edx
   10892:	31 ed                	xor    %ebp,%ebp
   10894:	48 89 54 24 18       	mov    %rdx,0x18(%rsp)
   10899:	48 8b 3d 80 76 00 00 	mov    0x7680(%rip),%rdi        # 17f20 <__pyx_mstate_global_static+0x2c0>
   108a0:	e8 df c8 ff ff       	call   d184 <__Pyx__GetModuleGlobalName>
   108a5:	49 89 c7             	mov    %rax,%r15
   108a8:	48 85 c0             	test   %rax,%rax
   108ab:	0f 84 bc 01 00 00    	je     10a6d <__pyx_pw_4main_3connect_serial+0x80f>
   108b1:	48 8b 35 08 74 00 00 	mov    0x7408(%rip),%rsi        # 17cc0 <__pyx_mstate_global_static+0x60>
   108b8:	48 89 c7             	mov    %rax,%rdi
   108bb:	e8 bc ac ff ff       	call   b57c <__Pyx_PyObject_GetAttrStr>
   108c0:	49 89 c4             	mov    %rax,%r12
   108c3:	48 85 c0             	test   %rax,%rax
   108c6:	0f 84 ac 01 00 00    	je     10a78 <__pyx_pw_4main_3connect_serial+0x81a>
   108cc:	49 8b 07             	mov    (%r15),%rax
   108cf:	85 c0                	test   %eax,%eax
   108d1:	78 10                	js     108e3 <__pyx_pw_4main_3connect_serial+0x685>
   108d3:	48 ff c8             	dec    %rax
   108d6:	49 89 07             	mov    %rax,(%r15)
   108d9:	75 08                	jne    108e3 <__pyx_pw_4main_3connect_serial+0x685>
   108db:	4c 89 ff             	mov    %r15,%rdi
   108de:	e8 6d 3d ff ff       	call   4650 <_Py_Dealloc@plt>
   108e3:	4c 89 e6             	mov    %r12,%rsi
   108e6:	48 89 ef             	mov    %rbp,%rdi
   108e9:	e8 66 c6 ff ff       	call   cf54 <__Pyx_PyErr_GivenExceptionMatches>
   108ee:	41 89 c7             	mov    %eax,%r15d
   108f1:	49 8b 04 24          	mov    (%r12),%rax
   108f5:	85 c0                	test   %eax,%eax
   108f7:	78 11                	js     1090a <__pyx_pw_4main_3connect_serial+0x6ac>
   108f9:	48 ff c8             	dec    %rax
   108fc:	49 89 04 24          	mov    %rax,(%r12)
   10900:	75 08                	jne    1090a <__pyx_pw_4main_3connect_serial+0x6ac>
   10902:	4c 89 e7             	mov    %r12,%rdi
   10905:	e8 46 3d ff ff       	call   4650 <_Py_Dealloc@plt>
   1090a:	48 8b 4c 24 18       	mov    0x18(%rsp),%rcx
   1090f:	48 8b 54 24 10       	mov    0x10(%rsp),%rdx
   10914:	48 89 ee             	mov    %rbp,%rsi
   10917:	48 8b 7c 24 08       	mov    0x8(%rsp),%rdi
   1091c:	e8 43 bd ff ff       	call   c664 <__Pyx_ErrRestoreInState>
   10921:	31 c0                	xor    %eax,%eax
   10923:	48 89 44 24 48       	mov    %rax,0x48(%rsp)
   10928:	48 89 44 24 20       	mov    %rax,0x20(%rsp)
   1092d:	48 89 44 24 28       	mov    %rax,0x28(%rsp)
   10932:	45 85 ff             	test   %r15d,%r15d
   10935:	0f 84 65 01 00 00    	je     10aa0 <__pyx_pw_4main_3connect_serial+0x842>
   1093b:	48 8d 0d d6 1e 00 00 	lea    0x1ed6(%rip),%rcx        # 12818 <_IO_stdin_used+0x818>
   10942:	44 89 ea             	mov    %r13d,%edx
   10945:	44 89 f6             	mov    %r14d,%esi
   10948:	48 8d 3d 0a 20 00 00 	lea    0x200a(%rip),%rdi        # 12959 <_IO_stdin_used+0x959>
   1094f:	e8 4e ca ff ff       	call   d3a2 <__Pyx_AddTraceback>
   10954:	48 8b 7c 24 08       	mov    0x8(%rsp),%rdi
   10959:	48 8d 4c 24 48       	lea    0x48(%rsp),%rcx
   1095e:	48 8d 54 24 20       	lea    0x20(%rsp),%rdx
   10963:	48 8d 74 24 28       	lea    0x28(%rsp),%rsi
   10968:	e8 51 bf ff ff       	call   c8be <__Pyx__GetException.constprop.0>
   1096d:	ff c0                	inc    %eax
   1096f:	0f 84 11 01 00 00    	je     10a86 <__pyx_pw_4main_3connect_serial+0x828>
   10975:	48 8b 35 9c 75 00 00 	mov    0x759c(%rip),%rsi        # 17f18 <__pyx_mstate_global_static+0x2b8>
   1097c:	48 8b 3d dd 72 00 00 	mov    0x72dd(%rip),%rdi        # 17c60 <__pyx_mstate_global_static>
   10983:	48 8d 15 96 70 00 00 	lea    0x7096(%rip),%rdx        # 17a20 <_Py_NoneStruct@@Base>
   1098a:	e8 21 3e ff ff       	call   47b0 <PyDict_SetItem@plt>
   1098f:	85 c0                	test   %eax,%eax
   10991:	0f 88 fd 00 00 00    	js     10a94 <__pyx_pw_4main_3connect_serial+0x836>
   10997:	48 8b 3d 2a 74 00 00 	mov    0x742a(%rip),%rdi        # 17dc8 <__pyx_mstate_global_static+0x168>
   1099e:	e8 e1 c7 ff ff       	call   d184 <__Pyx__GetModuleGlobalName>
   109a3:	49 89 c4             	mov    %rax,%r12
   109a6:	48 85 c0             	test   %rax,%rax
   109a9:	0f 84 f9 00 00 00    	je     10aa8 <__pyx_pw_4main_3connect_serial+0x84a>
   109af:	48 8b 35 92 75 00 00 	mov    0x7592(%rip),%rsi        # 17f48 <__pyx_mstate_global_static+0x2e8>
   109b6:	48 89 c7             	mov    %rax,%rdi
   109b9:	e8 be ab ff ff       	call   b57c <__Pyx_PyObject_GetAttrStr>
   109be:	49 89 c7             	mov    %rax,%r15
   109c1:	48 85 c0             	test   %rax,%rax
   109c4:	0f 84 e9 00 00 00    	je     10ab3 <__pyx_pw_4main_3connect_serial+0x855>
   109ca:	49 8b 04 24          	mov    (%r12),%rax
   109ce:	85 c0                	test   %eax,%eax
   109d0:	78 11                	js     109e3 <__pyx_pw_4main_3connect_serial+0x785>
   109d2:	48 ff c8             	dec    %rax
   109d5:	49 89 04 24          	mov    %rax,(%r12)
   109d9:	75 08                	jne    109e3 <__pyx_pw_4main_3connect_serial+0x785>
   109db:	4c 89 e7             	mov    %r12,%rdi
   109de:	e8 6d 3c ff ff       	call   4650 <_Py_Dealloc@plt>
   109e3:	48 8b 35 16 76 00 00 	mov    0x7616(%rip),%rsi        # 18000 <__pyx_mstate_global_static+0x3a0>
   109ea:	31 d2                	xor    %edx,%edx
   109ec:	4c 89 ff             	mov    %r15,%rdi
   109ef:	e8 54 aa ff ff       	call   b448 <__Pyx_PyObject_Call>
   109f4:	49 89 c4             	mov    %rax,%r12
   109f7:	48 85 c0             	test   %rax,%rax
   109fa:	0f 84 bb 00 00 00    	je     10abb <__pyx_pw_4main_3connect_serial+0x85d>
   10a00:	49 8b 07             	mov    (%r15),%rax
   10a03:	85 c0                	test   %eax,%eax
   10a05:	78 10                	js     10a17 <__pyx_pw_4main_3connect_serial+0x7b9>
   10a07:	48 ff c8             	dec    %rax
   10a0a:	49 89 07             	mov    %rax,(%r15)
   10a0d:	75 08                	jne    10a17 <__pyx_pw_4main_3connect_serial+0x7b9>
   10a0f:	4c 89 ff             	mov    %r15,%rdi
   10a12:	e8 39 3c ff ff       	call   4650 <_Py_Dealloc@plt>
   10a17:	49 8b 04 24          	mov    (%r12),%rax
   10a1b:	85 c0                	test   %eax,%eax
   10a1d:	78 11                	js     10a30 <__pyx_pw_4main_3connect_serial+0x7d2>
   10a1f:	48 ff c8             	dec    %rax
   10a22:	49 89 04 24          	mov    %rax,(%r12)
   10a26:	75 08                	jne    10a30 <__pyx_pw_4main_3connect_serial+0x7d2>
   10a28:	4c 89 e7             	mov    %r12,%rdi
   10a2b:	e8 20 3c ff ff       	call   4650 <_Py_Dealloc@plt>
   10a30:	48 8b 7c 24 28       	mov    0x28(%rsp),%rdi
   10a35:	e8 64 ac ff ff       	call   b69e <Py_XDECREF>
   10a3a:	48 8b 7c 24 20       	mov    0x20(%rsp),%rdi
   10a3f:	e8 5a ac ff ff       	call   b69e <Py_XDECREF>
   10a44:	48 8b 7c 24 48       	mov    0x48(%rsp),%rdi
   10a49:	e8 50 ac ff ff       	call   b69e <Py_XDECREF>
   10a4e:	48 8b 44 24 08       	mov    0x8(%rsp),%rax
   10a53:	48 8b 4c 24 40       	mov    0x40(%rsp),%rcx
   10a58:	48 8b 54 24 38       	mov    0x38(%rsp),%rdx
   10a5d:	48 8b 74 24 30       	mov    0x30(%rsp),%rsi
   10a62:	48 8b 78 68          	mov    0x68(%rax),%rdi
   10a66:	e8 df bd ff ff       	call   c84a <__Pyx__ExceptionReset.isra.0>
   10a6b:	eb 7f                	jmp    10aec <__pyx_pw_4main_3connect_serial+0x88e>
   10a6d:	45 31 e4             	xor    %r12d,%r12d
   10a70:	41 be 9d 0d 00 00    	mov    $0xd9d,%r14d
   10a76:	eb 06                	jmp    10a7e <__pyx_pw_4main_3connect_serial+0x820>
   10a78:	41 be 9f 0d 00 00    	mov    $0xd9f,%r14d
   10a7e:	41 bd 1d 00 00 00    	mov    $0x1d,%r13d
   10a84:	eb 41                	jmp    10ac7 <__pyx_pw_4main_3connect_serial+0x869>
   10a86:	41 be a8 0d 00 00    	mov    $0xda8,%r14d
   10a8c:	41 bd 1d 00 00 00    	mov    $0x1d,%r13d
   10a92:	eb 0c                	jmp    10aa0 <__pyx_pw_4main_3connect_serial+0x842>
   10a94:	41 be b4 0d 00 00    	mov    $0xdb4,%r14d
   10a9a:	41 bd 1e 00 00 00    	mov    $0x1e,%r13d
   10aa0:	45 31 e4             	xor    %r12d,%r12d
   10aa3:	45 31 ff             	xor    %r15d,%r15d
   10aa6:	eb 1f                	jmp    10ac7 <__pyx_pw_4main_3connect_serial+0x869>
   10aa8:	45 31 ff             	xor    %r15d,%r15d
   10aab:	41 be bd 0d 00 00    	mov    $0xdbd,%r14d
   10ab1:	eb 0e                	jmp    10ac1 <__pyx_pw_4main_3connect_serial+0x863>
   10ab3:	41 be bf 0d 00 00    	mov    $0xdbf,%r14d
   10ab9:	eb 06                	jmp    10ac1 <__pyx_pw_4main_3connect_serial+0x863>
   10abb:	41 be c2 0d 00 00    	mov    $0xdc2,%r14d
   10ac1:	41 bd 1f 00 00 00    	mov    $0x1f,%r13d
   10ac7:	48 8b 44 24 08       	mov    0x8(%rsp),%rax
   10acc:	48 8b 4c 24 40       	mov    0x40(%rsp),%rcx
   10ad1:	48 89 dd             	mov    %rbx,%rbp
   10ad4:	4c 89 fb             	mov    %r15,%rbx
   10ad7:	48 8b 54 24 38       	mov    0x38(%rsp),%rdx
   10adc:	48 8b 74 24 30       	mov    0x30(%rsp),%rsi
   10ae1:	48 8b 78 68          	mov    0x68(%rax),%rdi
   10ae5:	e8 60 bd ff ff       	call   c84a <__Pyx__ExceptionReset.isra.0>
   10aea:	eb 35                	jmp    10b21 <__pyx_pw_4main_3connect_serial+0x8c3>
   10aec:	8b 05 2e 6f 00 00    	mov    0x6f2e(%rip),%eax        # 17a20 <_Py_NoneStruct@@Base>
   10af2:	ff c0                	inc    %eax
   10af4:	74 06                	je     10afc <__pyx_pw_4main_3connect_serial+0x89e>
   10af6:	89 05 24 6f 00 00    	mov    %eax,0x6f24(%rip)        # 17a20 <_Py_NoneStruct@@Base>
   10afc:	48 8d 2d 1d 6f 00 00 	lea    0x6f1d(%rip),%rbp        # 17a20 <_Py_NoneStruct@@Base>
   10b03:	eb 68                	jmp    10b6d <__pyx_pw_4main_3connect_serial+0x90f>
   10b05:	45 31 e4             	xor    %r12d,%r12d
   10b08:	31 ed                	xor    %ebp,%ebp
   10b0a:	41 be 0c 0d 00 00    	mov    $0xd0c,%r14d
   10b10:	eb 09                	jmp    10b1b <__pyx_pw_4main_3connect_serial+0x8bd>
   10b12:	45 31 e4             	xor    %r12d,%r12d
   10b15:	41 be 0e 0d 00 00    	mov    $0xd0e,%r14d
   10b1b:	41 bd 19 00 00 00    	mov    $0x19,%r13d
   10b21:	48 8b 7c 24 20       	mov    0x20(%rsp),%rdi
   10b26:	e8 73 ab ff ff       	call   b69e <Py_XDECREF>
   10b2b:	48 89 df             	mov    %rbx,%rdi
   10b2e:	48 89 eb             	mov    %rbp,%rbx
   10b31:	31 ed                	xor    %ebp,%ebp
   10b33:	e8 66 ab ff ff       	call   b69e <Py_XDECREF>
   10b38:	48 8b 7c 24 28       	mov    0x28(%rsp),%rdi
   10b3d:	e8 5c ab ff ff       	call   b69e <Py_XDECREF>
   10b42:	48 8b 7c 24 48       	mov    0x48(%rsp),%rdi
   10b47:	e8 52 ab ff ff       	call   b69e <Py_XDECREF>
   10b4c:	4c 89 e7             	mov    %r12,%rdi
   10b4f:	e8 4a ab ff ff       	call   b69e <Py_XDECREF>
   10b54:	48 8d 0d bd 1c 00 00 	lea    0x1cbd(%rip),%rcx        # 12818 <_IO_stdin_used+0x818>
   10b5b:	44 89 ea             	mov    %r13d,%edx
   10b5e:	44 89 f6             	mov    %r14d,%esi
   10b61:	48 8d 3d f1 1d 00 00 	lea    0x1df1(%rip),%rdi        # 12959 <_IO_stdin_used+0x959>
   10b68:	e8 35 c8 ff ff       	call   d3a2 <__Pyx_AddTraceback>
   10b6d:	48 89 df             	mov    %rbx,%rdi
   10b70:	e8 29 ab ff ff       	call   b69e <Py_XDECREF>
   10b75:	48 8b 44 24 68       	mov    0x68(%rsp),%rax
   10b7a:	64 48 2b 04 25 28 00 	sub    %fs:0x28,%rax
   10b81:	00 00 
   10b83:	74 05                	je     10b8a <__pyx_pw_4main_3connect_serial+0x92c>
   10b85:	e8 a6 39 ff ff       	call   4530 <__stack_chk_fail@plt>
   10b8a:	48 83 c4 78          	add    $0x78,%rsp
   10b8e:	48 89 e8             	mov    %rbp,%rax
   10b91:	5b                   	pop    %rbx
   10b92:	5d                   	pop    %rbp
   10b93:	41 5c                	pop    %r12
   10b95:	41 5d                	pop    %r13
   10b97:	41 5e                	pop    %r14
   10b99:	41 5f                	pop    %r15
   10b9b:	c3                   	ret

0000000000010b9c <__pyx_pw_4main_1get_serial_ports>:
   10b9c:	41 57                	push   %r15
   10b9e:	41 56                	push   %r14
   10ba0:	41 55                	push   %r13
   10ba2:	41 54                	push   %r12
   10ba4:	55                   	push   %rbp
   10ba5:	53                   	push   %rbx
   10ba6:	48 83 ec 38          	sub    $0x38,%rsp
   10baa:	64 48 8b 3c 25 28 00 	mov    %fs:0x28,%rdi
   10bb1:	00 00 
   10bb3:	48 89 7c 24 28       	mov    %rdi,0x28(%rsp)
   10bb8:	48 8b 3d 61 73 00 00 	mov    0x7361(%rip),%rdi        # 17f20 <__pyx_mstate_global_static+0x2c0>
   10bbf:	e8 c0 c5 ff ff       	call   d184 <__Pyx__GetModuleGlobalName>
   10bc4:	48 89 c3             	mov    %rax,%rbx
   10bc7:	48 85 c0             	test   %rax,%rax
   10bca:	0f 84 3c 04 00 00    	je     1100c <__pyx_pw_4main_1get_serial_ports+0x470>
   10bd0:	48 8b 35 b9 73 00 00 	mov    0x73b9(%rip),%rsi        # 17f90 <__pyx_mstate_global_static+0x330>
   10bd7:	48 89 c7             	mov    %rax,%rdi
   10bda:	e8 9d a9 ff ff       	call   b57c <__Pyx_PyObject_GetAttrStr>
   10bdf:	48 89 c5             	mov    %rax,%rbp
   10be2:	48 85 c0             	test   %rax,%rax
   10be5:	0f 84 31 04 00 00    	je     1101c <__pyx_pw_4main_1get_serial_ports+0x480>
   10beb:	48 8b 03             	mov    (%rbx),%rax
   10bee:	85 c0                	test   %eax,%eax
   10bf0:	78 10                	js     10c02 <__pyx_pw_4main_1get_serial_ports+0x66>
   10bf2:	48 ff c8             	dec    %rax
   10bf5:	48 89 03             	mov    %rax,(%rbx)
   10bf8:	75 08                	jne    10c02 <__pyx_pw_4main_1get_serial_ports+0x66>
   10bfa:	48 89 df             	mov    %rbx,%rdi
   10bfd:	e8 4e 3a ff ff       	call   4650 <_Py_Dealloc@plt>
   10c02:	48 8b 35 4f 72 00 00 	mov    0x724f(%rip),%rsi        # 17e58 <__pyx_mstate_global_static+0x1f8>
   10c09:	48 89 ef             	mov    %rbp,%rdi
   10c0c:	e8 6b a9 ff ff       	call   b57c <__Pyx_PyObject_GetAttrStr>
   10c11:	48 89 c3             	mov    %rax,%rbx
   10c14:	48 85 c0             	test   %rax,%rax
   10c17:	0f 84 0d 04 00 00    	je     1102a <__pyx_pw_4main_1get_serial_ports+0x48e>
   10c1d:	48 8b 45 00          	mov    0x0(%rbp),%rax
   10c21:	85 c0                	test   %eax,%eax
   10c23:	78 11                	js     10c36 <__pyx_pw_4main_1get_serial_ports+0x9a>
   10c25:	48 ff c8             	dec    %rax
   10c28:	48 89 45 00          	mov    %rax,0x0(%rbp)
   10c2c:	75 08                	jne    10c36 <__pyx_pw_4main_1get_serial_ports+0x9a>
   10c2e:	48 89 ef             	mov    %rbp,%rdi
   10c31:	e8 1a 3a ff ff       	call   4650 <_Py_Dealloc@plt>
   10c36:	48 8b 35 1b 71 00 00 	mov    0x711b(%rip),%rsi        # 17d58 <__pyx_mstate_global_static+0xf8>
   10c3d:	48 89 df             	mov    %rbx,%rdi
   10c40:	e8 37 a9 ff ff       	call   b57c <__Pyx_PyObject_GetAttrStr>
   10c45:	49 89 c5             	mov    %rax,%r13
   10c48:	48 85 c0             	test   %rax,%rax
   10c4b:	0f 84 e7 03 00 00    	je     11038 <__pyx_pw_4main_1get_serial_ports+0x49c>
   10c51:	48 8b 03             	mov    (%rbx),%rax
   10c54:	85 c0                	test   %eax,%eax
   10c56:	78 10                	js     10c68 <__pyx_pw_4main_1get_serial_ports+0xcc>
   10c58:	48 ff c8             	dec    %rax
   10c5b:	48 89 03             	mov    %rax,(%rbx)
   10c5e:	75 08                	jne    10c68 <__pyx_pw_4main_1get_serial_ports+0xcc>
   10c60:	48 89 df             	mov    %rbx,%rdi
   10c63:	e8 e8 39 ff ff       	call   4650 <_Py_Dealloc@plt>
   10c68:	48 8d 05 71 6a 00 00 	lea    0x6a71(%rip),%rax        # 176e0 <PyMethod_Type@@Base>
   10c6f:	49 39 45 08          	cmp    %rax,0x8(%r13)
   10c73:	75 54                	jne    10cc9 <__pyx_pw_4main_1get_serial_ports+0x12d>
   10c75:	4c 89 ef             	mov    %r13,%rdi
   10c78:	e8 71 b6 ff ff       	call   c2ee <PyMethod_GET_SELF>
   10c7d:	48 89 c5             	mov    %rax,%rbp
   10c80:	31 c0                	xor    %eax,%eax
   10c82:	48 85 ed             	test   %rbp,%rbp
   10c85:	74 46                	je     10ccd <__pyx_pw_4main_1get_serial_ports+0x131>
   10c87:	4c 89 ef             	mov    %r13,%rdi
   10c8a:	e8 91 b6 ff ff       	call   c320 <PyMethod_GET_FUNCTION>
   10c8f:	48 89 c3             	mov    %rax,%rbx
   10c92:	8b 45 00             	mov    0x0(%rbp),%eax
   10c95:	ff c0                	inc    %eax
   10c97:	74 03                	je     10c9c <__pyx_pw_4main_1get_serial_ports+0x100>
   10c99:	89 45 00             	mov    %eax,0x0(%rbp)
   10c9c:	8b 03                	mov    (%rbx),%eax
   10c9e:	ff c0                	inc    %eax
   10ca0:	74 02                	je     10ca4 <__pyx_pw_4main_1get_serial_ports+0x108>
   10ca2:	89 03                	mov    %eax,(%rbx)
   10ca4:	49 8b 45 00          	mov    0x0(%r13),%rax
   10ca8:	85 c0                	test   %eax,%eax
   10caa:	78 09                	js     10cb5 <__pyx_pw_4main_1get_serial_ports+0x119>
   10cac:	48 ff c8             	dec    %rax
   10caf:	49 89 45 00          	mov    %rax,0x0(%r13)
   10cb3:	74 0a                	je     10cbf <__pyx_pw_4main_1get_serial_ports+0x123>
   10cb5:	49 89 dd             	mov    %rbx,%r13
   10cb8:	b8 01 00 00 00       	mov    $0x1,%eax
   10cbd:	eb 0e                	jmp    10ccd <__pyx_pw_4main_1get_serial_ports+0x131>
   10cbf:	4c 89 ef             	mov    %r13,%rdi
   10cc2:	e8 89 39 ff ff       	call   4650 <_Py_Dealloc@plt>
   10cc7:	eb ec                	jmp    10cb5 <__pyx_pw_4main_1get_serial_ports+0x119>
   10cc9:	31 c0                	xor    %eax,%eax
   10ccb:	31 ed                	xor    %ebp,%ebp
   10ccd:	48 63 d0             	movslq %eax,%rdx
   10cd0:	83 f0 01             	xor    $0x1,%eax
   10cd3:	31 c9                	xor    %ecx,%ecx
   10cd5:	4c 89 ef             	mov    %r13,%rdi
   10cd8:	48 98                	cltq
   10cda:	48 89 6c 24 18       	mov    %rbp,0x18(%rsp)
   10cdf:	48 8d 74 c4 18       	lea    0x18(%rsp,%rax,8),%rsi
   10ce4:	48 89 4c 24 20       	mov    %rcx,0x20(%rsp)
   10ce9:	e8 ad c5 ff ff       	call   d29b <__Pyx_PyObject_FastCallDict.constprop.0>
   10cee:	48 89 ef             	mov    %rbp,%rdi
   10cf1:	48 89 c3             	mov    %rax,%rbx
   10cf4:	e8 a5 a9 ff ff       	call   b69e <Py_XDECREF>
   10cf9:	48 85 db             	test   %rbx,%rbx
   10cfc:	75 14                	jne    10d12 <__pyx_pw_4main_1get_serial_ports+0x176>
   10cfe:	4c 89 ed             	mov    %r13,%rbp
   10d01:	45 31 e4             	xor    %r12d,%r12d
   10d04:	45 31 ed             	xor    %r13d,%r13d
   10d07:	41 be 6b 0c 00 00    	mov    $0xc6b,%r14d
   10d0d:	e9 31 03 00 00       	jmp    11043 <__pyx_pw_4main_1get_serial_ports+0x4a7>
   10d12:	49 8b 45 00          	mov    0x0(%r13),%rax
   10d16:	85 c0                	test   %eax,%eax
   10d18:	78 11                	js     10d2b <__pyx_pw_4main_1get_serial_ports+0x18f>
   10d1a:	48 ff c8             	dec    %rax
   10d1d:	49 89 45 00          	mov    %rax,0x0(%r13)
   10d21:	75 08                	jne    10d2b <__pyx_pw_4main_1get_serial_ports+0x18f>
   10d23:	4c 89 ef             	mov    %r13,%rdi
   10d26:	e8 25 39 ff ff       	call   4650 <_Py_Dealloc@plt>
   10d2b:	31 ff                	xor    %edi,%edi
   10d2d:	e8 3e 3a ff ff       	call   4770 <PyList_New@plt>
   10d32:	49 89 c4             	mov    %rax,%r12
   10d35:	48 85 c0             	test   %rax,%rax
   10d38:	0f 84 6e 02 00 00    	je     10fac <__pyx_pw_4main_1get_serial_ports+0x410>
   10d3e:	48 8b 43 08          	mov    0x8(%rbx),%rax
   10d42:	48 8d 15 37 5f 00 00 	lea    0x5f37(%rip),%rdx        # 16c80 <PyList_Type@@Base>
   10d49:	48 39 d0             	cmp    %rdx,%rax
   10d4c:	74 0c                	je     10d5a <__pyx_pw_4main_1get_serial_ports+0x1be>
   10d4e:	48 8d 15 cb 67 00 00 	lea    0x67cb(%rip),%rdx        # 17520 <PyTuple_Type@@Base>
   10d55:	48 39 d0             	cmp    %rdx,%rax
   10d58:	75 16                	jne    10d70 <__pyx_pw_4main_1get_serial_ports+0x1d4>
   10d5a:	8b 03                	mov    (%rbx),%eax
   10d5c:	ff c0                	inc    %eax
   10d5e:	74 02                	je     10d62 <__pyx_pw_4main_1get_serial_ports+0x1c6>
   10d60:	89 03                	mov    %eax,(%rbx)
   10d62:	31 d2                	xor    %edx,%edx
   10d64:	48 89 dd             	mov    %rbx,%rbp
   10d67:	45 31 f6             	xor    %r14d,%r14d
   10d6a:	48 89 14 24          	mov    %rdx,(%rsp)
   10d6e:	eb 30                	jmp    10da0 <__pyx_pw_4main_1get_serial_ports+0x204>
   10d70:	48 89 df             	mov    %rbx,%rdi
   10d73:	e8 d8 36 ff ff       	call   4450 <PyObject_GetIter@plt>
   10d78:	48 89 c5             	mov    %rax,%rbp
   10d7b:	48 85 c0             	test   %rax,%rax
   10d7e:	0f 84 38 02 00 00    	je     10fbc <__pyx_pw_4main_1get_serial_ports+0x420>
   10d84:	48 8b 40 08          	mov    0x8(%rax),%rax
   10d88:	48 8b 80 e0 00 00 00 	mov    0xe0(%rax),%rax
   10d8f:	48 89 04 24          	mov    %rax,(%rsp)
   10d93:	48 85 c0             	test   %rax,%rax
   10d96:	0f 84 2e 02 00 00    	je     10fca <__pyx_pw_4main_1get_serial_ports+0x42e>
   10d9c:	49 83 ce ff          	or     $0xffffffffffffffff,%r14
   10da0:	31 c0                	xor    %eax,%eax
   10da2:	48 89 44 24 08       	mov    %rax,0x8(%rsp)
   10da7:	48 83 3c 24 00       	cmpq   $0x0,(%rsp)
   10dac:	0f 85 9e 00 00 00    	jne    10e50 <__pyx_pw_4main_1get_serial_ports+0x2b4>
   10db2:	4c 8b 6d 08          	mov    0x8(%rbp),%r13
   10db6:	4c 8d 3d c3 5e 00 00 	lea    0x5ec3(%rip),%r15        # 16c80 <PyList_Type@@Base>
   10dbd:	48 89 ef             	mov    %rbp,%rdi
   10dc0:	4d 39 fd             	cmp    %r15,%r13
   10dc3:	75 3e                	jne    10e03 <__pyx_pw_4main_1get_serial_ports+0x267>
   10dc5:	e8 7f b4 ff ff       	call   c249 <PyList_GET_SIZE>
   10dca:	4c 39 f0             	cmp    %r14,%rax
   10dcd:	0f 8e b1 01 00 00    	jle    10f84 <__pyx_pw_4main_1get_serial_ports+0x3e8>
   10dd3:	41 f6 87 ab 00 00 00 	testb  $0x2,0xab(%r15)
   10dda:	02 
   10ddb:	75 1c                	jne    10df9 <__pyx_pw_4main_1get_serial_ports+0x25d>
   10ddd:	48 8d 0d dc 20 00 00 	lea    0x20dc(%rip),%rcx        # 12ec0 <__PRETTY_FUNCTION__.16>
   10de4:	ba 91 0c 00 00       	mov    $0xc91,%edx
   10de9:	48 8d 35 74 12 00 00 	lea    0x1274(%rip),%rsi        # 12064 <_IO_stdin_used+0x64>
   10df0:	48 8d 3d 76 1b 00 00 	lea    0x1b76(%rip),%rdi        # 1296d <_IO_stdin_used+0x96d>
   10df7:	eb 3c                	jmp    10e35 <__pyx_pw_4main_1get_serial_ports+0x299>
   10df9:	48 8b 45 18          	mov    0x18(%rbp),%rax
   10dfd:	4e 8b 2c f0          	mov    (%rax,%r14,8),%r13
   10e01:	eb 3c                	jmp    10e3f <__pyx_pw_4main_1get_serial_ports+0x2a3>
   10e03:	e8 c9 ae ff ff       	call   bcd1 <PyTuple_GET_SIZE>
   10e08:	49 39 c6             	cmp    %rax,%r14
   10e0b:	0f 8d 73 01 00 00    	jge    10f84 <__pyx_pw_4main_1get_serial_ports+0x3e8>
   10e11:	41 f6 85 ab 00 00 00 	testb  $0x4,0xab(%r13)
   10e18:	04 
   10e19:	75 1f                	jne    10e3a <__pyx_pw_4main_1get_serial_ports+0x29e>
   10e1b:	48 8d 0d 9e 20 00 00 	lea    0x209e(%rip),%rcx        # 12ec0 <__PRETTY_FUNCTION__.16>
   10e22:	ba 9f 0c 00 00       	mov    $0xc9f,%edx
   10e27:	48 8d 35 36 12 00 00 	lea    0x1236(%rip),%rsi        # 12064 <_IO_stdin_used+0x64>
   10e2e:	48 8d 3d 50 1b 00 00 	lea    0x1b50(%rip),%rdi        # 12985 <_IO_stdin_used+0x985>
   10e35:	e8 e6 32 ff ff       	call   4120 <__assert_fail@plt>
   10e3a:	4e 8b 6c f5 18       	mov    0x18(%rbp,%r14,8),%r13
   10e3f:	41 8b 45 00          	mov    0x0(%r13),%eax
   10e43:	ff c0                	inc    %eax
   10e45:	74 04                	je     10e4b <__pyx_pw_4main_1get_serial_ports+0x2af>
   10e47:	41 89 45 00          	mov    %eax,0x0(%r13)
   10e4b:	49 ff c6             	inc    %r14
   10e4e:	eb 40                	jmp    10e90 <__pyx_pw_4main_1get_serial_ports+0x2f4>
   10e50:	48 8b 04 24          	mov    (%rsp),%rax
   10e54:	48 89 ef             	mov    %rbp,%rdi
   10e57:	ff d0                	call   *%rax
   10e59:	49 89 c5             	mov    %rax,%r13
   10e5c:	48 85 c0             	test   %rax,%rax
   10e5f:	75 2f                	jne    10e90 <__pyx_pw_4main_1get_serial_ports+0x2f4>
   10e61:	e8 8a 34 ff ff       	call   42f0 <PyErr_Occurred@plt>
   10e66:	48 89 c7             	mov    %rax,%rdi
   10e69:	48 85 c0             	test   %rax,%rax
   10e6c:	0f 84 12 01 00 00    	je     10f84 <__pyx_pw_4main_1get_serial_ports+0x3e8>
   10e72:	48 8b 35 37 5c 00 00 	mov    0x5c37(%rip),%rsi        # 16ab0 <PyExc_StopIteration@@Base>
   10e79:	e8 d6 c0 ff ff       	call   cf54 <__Pyx_PyErr_GivenExceptionMatches>
   10e7e:	85 c0                	test   %eax,%eax
   10e80:	0f 84 52 01 00 00    	je     10fd8 <__pyx_pw_4main_1get_serial_ports+0x43c>
   10e86:	e8 05 38 ff ff       	call   4690 <PyErr_Clear@plt>
   10e8b:	e9 f4 00 00 00       	jmp    10f84 <__pyx_pw_4main_1get_serial_ports+0x3e8>
   10e90:	48 8b 7c 24 08       	mov    0x8(%rsp),%rdi
   10e95:	e8 04 a8 ff ff       	call   b69e <Py_XDECREF>
   10e9a:	48 8b 35 1f 6f 00 00 	mov    0x6f1f(%rip),%rsi        # 17dc0 <__pyx_mstate_global_static+0x160>
   10ea1:	4c 89 ef             	mov    %r13,%rdi
   10ea4:	e8 d3 a6 ff ff       	call   b57c <__Pyx_PyObject_GetAttrStr>
   10ea9:	49 89 c7             	mov    %rax,%r15
   10eac:	48 85 c0             	test   %rax,%rax
   10eaf:	0f 84 33 01 00 00    	je     10fe8 <__pyx_pw_4main_1get_serial_ports+0x44c>
   10eb5:	4c 89 e7             	mov    %r12,%rdi
   10eb8:	e8 b6 ad ff ff       	call   bc73 <Py_SIZE>
   10ebd:	49 3b 44 24 20       	cmp    0x20(%r12),%rax
   10ec2:	0f 8d 86 00 00 00    	jge    10f4e <__pyx_pw_4main_1get_serial_ports+0x3b2>
   10ec8:	41 8b 37             	mov    (%r15),%esi
   10ecb:	ff c6                	inc    %esi
   10ecd:	74 03                	je     10ed2 <__pyx_pw_4main_1get_serial_ports+0x336>
   10ecf:	41 89 37             	mov    %esi,(%r15)
   10ed2:	49 8b 74 24 08       	mov    0x8(%r12),%rsi
   10ed7:	f6 86 ab 00 00 00 02 	testb  $0x2,0xab(%rsi)
   10ede:	75 05                	jne    10ee5 <__pyx_pw_4main_1get_serial_ports+0x349>
   10ee0:	e8 96 b3 ff ff       	call   c27b <PyList_SET_ITEM.part.0>
   10ee5:	49 8b 7c 24 18       	mov    0x18(%r12),%rdi
   10eea:	48 8d 15 8f 69 00 00 	lea    0x698f(%rip),%rdx        # 17880 <PyLong_Type@@Base>
   10ef1:	4c 89 3c c7          	mov    %r15,(%rdi,%rax,8)
   10ef5:	48 ff c0             	inc    %rax
   10ef8:	48 39 d6             	cmp    %rdx,%rsi
   10efb:	75 1f                	jne    10f1c <__pyx_pw_4main_1get_serial_ports+0x380>
   10efd:	48 8d 0d 7c 1f 00 00 	lea    0x1f7c(%rip),%rcx        # 12e80 <__PRETTY_FUNCTION__.13>
   10f04:	ba 18 01 00 00       	mov    $0x118,%edx
   10f09:	48 8d 35 dc 13 00 00 	lea    0x13dc(%rip),%rsi        # 122ec <_IO_stdin_used+0x2ec>
   10f10:	48 8d 3d 87 1a 00 00 	lea    0x1a87(%rip),%rdi        # 1299e <_IO_stdin_used+0x99e>
   10f17:	e9 19 ff ff ff       	jmp    10e35 <__pyx_pw_4main_1get_serial_ports+0x299>
   10f1c:	48 8d 3d 9d 5b 00 00 	lea    0x5b9d(%rip),%rdi        # 16ac0 <PyBool_Type@@Base>
   10f23:	48 39 fe             	cmp    %rdi,%rsi
   10f26:	75 1f                	jne    10f47 <__pyx_pw_4main_1get_serial_ports+0x3ab>
   10f28:	48 8d 0d 51 1f 00 00 	lea    0x1f51(%rip),%rcx        # 12e80 <__PRETTY_FUNCTION__.13>
   10f2f:	ba 19 01 00 00       	mov    $0x119,%edx
   10f34:	48 8d 35 b1 13 00 00 	lea    0x13b1(%rip),%rsi        # 122ec <_IO_stdin_used+0x2ec>
   10f3b:	48 8d 3d 80 1a 00 00 	lea    0x1a80(%rip),%rdi        # 129c2 <_IO_stdin_used+0x9c2>
   10f42:	e9 ee fe ff ff       	jmp    10e35 <__pyx_pw_4main_1get_serial_ports+0x299>
   10f47:	49 89 44 24 10       	mov    %rax,0x10(%r12)
   10f4c:	eb 13                	jmp    10f61 <__pyx_pw_4main_1get_serial_ports+0x3c5>
   10f4e:	4c 89 fe             	mov    %r15,%rsi
   10f51:	4c 89 e7             	mov    %r12,%rdi
   10f54:	e8 f7 35 ff ff       	call   4550 <PyList_Append@plt>
   10f59:	85 c0                	test   %eax,%eax
   10f5b:	0f 85 8f 00 00 00    	jne    10ff0 <__pyx_pw_4main_1get_serial_ports+0x454>
   10f61:	49 8b 07             	mov    (%r15),%rax
   10f64:	85 c0                	test   %eax,%eax
   10f66:	79 0a                	jns    10f72 <__pyx_pw_4main_1get_serial_ports+0x3d6>
   10f68:	4c 89 6c 24 08       	mov    %r13,0x8(%rsp)
   10f6d:	e9 35 fe ff ff       	jmp    10da7 <__pyx_pw_4main_1get_serial_ports+0x20b>
   10f72:	48 ff c8             	dec    %rax
   10f75:	49 89 07             	mov    %rax,(%r15)
   10f78:	75 ee                	jne    10f68 <__pyx_pw_4main_1get_serial_ports+0x3cc>
   10f7a:	4c 89 ff             	mov    %r15,%rdi
   10f7d:	e8 ce 36 ff ff       	call   4650 <_Py_Dealloc@plt>
   10f82:	eb e4                	jmp    10f68 <__pyx_pw_4main_1get_serial_ports+0x3cc>
   10f84:	48 8b 45 00          	mov    0x0(%rbp),%rax
   10f88:	85 c0                	test   %eax,%eax
   10f8a:	78 11                	js     10f9d <__pyx_pw_4main_1get_serial_ports+0x401>
   10f8c:	48 ff c8             	dec    %rax
   10f8f:	48 89 45 00          	mov    %rax,0x0(%rbp)
   10f93:	75 08                	jne    10f9d <__pyx_pw_4main_1get_serial_ports+0x401>
   10f95:	48 89 ef             	mov    %rbp,%rdi
   10f98:	e8 b3 36 ff ff       	call   4650 <_Py_Dealloc@plt>
   10f9d:	48 8b 7c 24 08       	mov    0x8(%rsp),%rdi
   10fa2:	e8 f7 a6 ff ff       	call   b69e <Py_XDECREF>
   10fa7:	e9 d4 00 00 00       	jmp    11080 <__pyx_pw_4main_1get_serial_ports+0x4e4>
   10fac:	31 ed                	xor    %ebp,%ebp
   10fae:	45 31 ff             	xor    %r15d,%r15d
   10fb1:	45 31 ed             	xor    %r13d,%r13d
   10fb4:	41 be 7b 0c 00 00    	mov    $0xc7b,%r14d
   10fba:	eb 3a                	jmp    10ff6 <__pyx_pw_4main_1get_serial_ports+0x45a>
   10fbc:	45 31 ff             	xor    %r15d,%r15d
   10fbf:	45 31 ed             	xor    %r13d,%r13d
   10fc2:	41 be 82 0c 00 00    	mov    $0xc82,%r14d
   10fc8:	eb 2c                	jmp    10ff6 <__pyx_pw_4main_1get_serial_ports+0x45a>
   10fca:	41 be 84 0c 00 00    	mov    $0xc84,%r14d
   10fd0:	45 31 ff             	xor    %r15d,%r15d
   10fd3:	45 31 ed             	xor    %r13d,%r13d
   10fd6:	eb 1e                	jmp    10ff6 <__pyx_pw_4main_1get_serial_ports+0x45a>
   10fd8:	4c 8b 6c 24 08       	mov    0x8(%rsp),%r13
   10fdd:	45 31 ff             	xor    %r15d,%r15d
   10fe0:	41 be ab 0c 00 00    	mov    $0xcab,%r14d
   10fe6:	eb 0e                	jmp    10ff6 <__pyx_pw_4main_1get_serial_ports+0x45a>
   10fe8:	41 be b3 0c 00 00    	mov    $0xcb3,%r14d
   10fee:	eb 06                	jmp    10ff6 <__pyx_pw_4main_1get_serial_ports+0x45a>
   10ff0:	41 be b5 0c 00 00    	mov    $0xcb5,%r14d
   10ff6:	4c 89 ef             	mov    %r13,%rdi
   10ff9:	49 89 dd             	mov    %rbx,%r13
   10ffc:	4c 89 fb             	mov    %r15,%rbx
   10fff:	41 bf 14 00 00 00    	mov    $0x14,%r15d
   11005:	e8 94 a6 ff ff       	call   b69e <Py_XDECREF>
   1100a:	eb 3d                	jmp    11049 <__pyx_pw_4main_1get_serial_ports+0x4ad>
   1100c:	31 ed                	xor    %ebp,%ebp
   1100e:	45 31 e4             	xor    %r12d,%r12d
   11011:	45 31 ed             	xor    %r13d,%r13d
   11014:	41 be 4e 0c 00 00    	mov    $0xc4e,%r14d
   1101a:	eb 27                	jmp    11043 <__pyx_pw_4main_1get_serial_ports+0x4a7>
   1101c:	45 31 e4             	xor    %r12d,%r12d
   1101f:	45 31 ed             	xor    %r13d,%r13d
   11022:	41 be 50 0c 00 00    	mov    $0xc50,%r14d
   11028:	eb 19                	jmp    11043 <__pyx_pw_4main_1get_serial_ports+0x4a7>
   1102a:	45 31 e4             	xor    %r12d,%r12d
   1102d:	45 31 ed             	xor    %r13d,%r13d
   11030:	41 be 53 0c 00 00    	mov    $0xc53,%r14d
   11036:	eb 0b                	jmp    11043 <__pyx_pw_4main_1get_serial_ports+0x4a7>
   11038:	31 ed                	xor    %ebp,%ebp
   1103a:	45 31 e4             	xor    %r12d,%r12d
   1103d:	41 be 56 0c 00 00    	mov    $0xc56,%r14d
   11043:	41 bf 13 00 00 00    	mov    $0x13,%r15d
   11049:	4c 89 e7             	mov    %r12,%rdi
   1104c:	45 31 e4             	xor    %r12d,%r12d
   1104f:	e8 4a a6 ff ff       	call   b69e <Py_XDECREF>
   11054:	48 89 df             	mov    %rbx,%rdi
   11057:	4c 89 eb             	mov    %r13,%rbx
   1105a:	e8 3f a6 ff ff       	call   b69e <Py_XDECREF>
   1105f:	48 89 ef             	mov    %rbp,%rdi
   11062:	e8 37 a6 ff ff       	call   b69e <Py_XDECREF>
   11067:	48 8d 0d aa 17 00 00 	lea    0x17aa(%rip),%rcx        # 12818 <_IO_stdin_used+0x818>
   1106e:	44 89 fa             	mov    %r15d,%edx
   11071:	44 89 f6             	mov    %r14d,%esi
   11074:	48 8d 3d 6b 19 00 00 	lea    0x196b(%rip),%rdi        # 129e6 <_IO_stdin_used+0x9e6>
   1107b:	e8 22 c3 ff ff       	call   d3a2 <__Pyx_AddTraceback>
   11080:	48 89 df             	mov    %rbx,%rdi
   11083:	e8 16 a6 ff ff       	call   b69e <Py_XDECREF>
   11088:	48 8b 44 24 28       	mov    0x28(%rsp),%rax
   1108d:	64 48 2b 04 25 28 00 	sub    %fs:0x28,%rax
   11094:	00 00 
   11096:	74 05                	je     1109d <__pyx_pw_4main_1get_serial_ports+0x501>
   11098:	e8 93 34 ff ff       	call   4530 <__stack_chk_fail@plt>
   1109d:	48 83 c4 38          	add    $0x38,%rsp
   110a1:	4c 89 e0             	mov    %r12,%rax
   110a4:	5b                   	pop    %rbx
   110a5:	5d                   	pop    %rbp
   110a6:	41 5c                	pop    %r12
   110a8:	41 5d                	pop    %r13
   110aa:	41 5e                	pop    %r14
   110ac:	41 5f                	pop    %r15
   110ae:	c3                   	ret

Дизассемблирование раздела .fini:

00000000000110b0 <_fini>:
   110b0:	f3 0f 1e fa          	endbr64
   110b4:	48 83 ec 08          	sub    $0x8,%rsp
   110b8:	48 83 c4 08          	add    $0x8,%rsp
   110bc:	c3                   	ret
