
app-cython:     формат файла elf64-x86-64


Дизассемблирование раздела .init:

0000000000004000 <_init>:
    4000:	f3 0f 1e fa          	endbr64
    4004:	48 83 ec 08          	sub    $0x8,%rsp
    4008:	48 8b 05 91 1f 01 00 	mov    0x11f91(%rip),%rax        # 15fa0 <__gmon_start__@Base>
    400f:	48 85 c0             	test   %rax,%rax
    4012:	74 02                	je     4016 <_init+0x16>
    4014:	ff d0                	call   *%rax
    4016:	48 83 c4 08          	add    $0x8,%rsp
    401a:	c3                   	ret

Дизассемблирование раздела .plt:

0000000000004020 <PyOS_string_to_double@plt-0x10>:
    4020:	ff 35 ca 1f 01 00    	push   0x11fca(%rip)        # 15ff0 <_GLOBAL_OFFSET_TABLE_+0x8>
    4026:	ff 25 cc 1f 01 00    	jmp    *0x11fcc(%rip)        # 15ff8 <_GLOBAL_OFFSET_TABLE_+0x10>
    402c:	0f 1f 40 00          	nopl   0x0(%rax)

0000000000004030 <PyOS_string_to_double@plt>:
    4030:	ff 25 ca 1f 01 00    	jmp    *0x11fca(%rip)        # 16000 <PyOS_string_to_double@Base>
    4036:	68 00 00 00 00       	push   $0x0
    403b:	e9 e0 ff ff ff       	jmp    4020 <_init+0x20>

0000000000004040 <PyInterpreterState_GetID@plt>:
    4040:	ff 25 c2 1f 01 00    	jmp    *0x11fc2(%rip)        # 16008 <PyInterpreterState_GetID@Base>
    4046:	68 01 00 00 00       	push   $0x1
    404b:	e9 d0 ff ff ff       	jmp    4020 <_init+0x20>

0000000000004050 <PyDict_SetItemString@plt>:
    4050:	ff 25 ba 1f 01 00    	jmp    *0x11fba(%rip)        # 16010 <PyDict_SetItemString@Base>
    4056:	68 02 00 00 00       	push   $0x2
    405b:	e9 c0 ff ff ff       	jmp    4020 <_init+0x20>

0000000000004060 <PyUnicode_Compare@plt>:
    4060:	ff 25 b2 1f 01 00    	jmp    *0x11fb2(%rip)        # 16018 <PyUnicode_Compare@Base>
    4066:	68 03 00 00 00       	push   $0x3
    406b:	e9 b0 ff ff ff       	jmp    4020 <_init+0x20>

0000000000004070 <PyFrame_New@plt>:
    4070:	ff 25 aa 1f 01 00    	jmp    *0x11faa(%rip)        # 16020 <PyFrame_New@Base>
    4076:	68 04 00 00 00       	push   $0x4
    407b:	e9 a0 ff ff ff       	jmp    4020 <_init+0x20>

0000000000004080 <_PyUnicode_FastCopyCharacters@plt>:
    4080:	ff 25 a2 1f 01 00    	jmp    *0x11fa2(%rip)        # 16028 <_PyUnicode_FastCopyCharacters@Base>
    4086:	68 05 00 00 00       	push   $0x5
    408b:	e9 90 ff ff ff       	jmp    4020 <_init+0x20>

0000000000004090 <PyModule_NewObject@plt>:
    4090:	ff 25 9a 1f 01 00    	jmp    *0x11f9a(%rip)        # 16030 <PyModule_NewObject@Base>
    4096:	68 06 00 00 00       	push   $0x6
    409b:	e9 80 ff ff ff       	jmp    4020 <_init+0x20>

00000000000040a0 <PyUnicode_AsEncodedString@plt>:
    40a0:	ff 25 92 1f 01 00    	jmp    *0x11f92(%rip)        # 16038 <PyUnicode_AsEncodedString@Base>
    40a6:	68 07 00 00 00       	push   $0x7
    40ab:	e9 70 ff ff ff       	jmp    4020 <_init+0x20>

00000000000040b0 <_PyObject_GenericGetAttrWithDict@plt>:
    40b0:	ff 25 8a 1f 01 00    	jmp    *0x11f8a(%rip)        # 16040 <_PyObject_GenericGetAttrWithDict@Base>
    40b6:	68 08 00 00 00       	push   $0x8
    40bb:	e9 60 ff ff ff       	jmp    4020 <_init+0x20>

00000000000040c0 <PyType_Ready@plt>:
    40c0:	ff 25 82 1f 01 00    	jmp    *0x11f82(%rip)        # 16048 <PyType_Ready@Base>
    40c6:	68 09 00 00 00       	push   $0x9
    40cb:	e9 50 ff ff ff       	jmp    4020 <_init+0x20>

00000000000040d0 <PyConfig_SetArgv@plt>:
    40d0:	ff 25 7a 1f 01 00    	jmp    *0x11f7a(%rip)        # 16050 <PyConfig_SetArgv@Base>
    40d6:	68 0a 00 00 00       	push   $0xa
    40db:	e9 40 ff ff ff       	jmp    4020 <_init+0x20>

00000000000040e0 <PyConfig_SetString@plt>:
    40e0:	ff 25 72 1f 01 00    	jmp    *0x11f72(%rip)        # 16058 <PyConfig_SetString@Base>
    40e6:	68 0b 00 00 00       	push   $0xb
    40eb:	e9 30 ff ff ff       	jmp    4020 <_init+0x20>

00000000000040f0 <PyMem_Free@plt>:
    40f0:	ff 25 6a 1f 01 00    	jmp    *0x11f6a(%rip)        # 16060 <PyMem_Free@Base>
    40f6:	68 0c 00 00 00       	push   $0xc
    40fb:	e9 20 ff ff ff       	jmp    4020 <_init+0x20>

0000000000004100 <Py_InitializeFromConfig@plt>:
    4100:	ff 25 62 1f 01 00    	jmp    *0x11f62(%rip)        # 16068 <Py_InitializeFromConfig@Base>
    4106:	68 0d 00 00 00       	push   $0xd
    410b:	e9 10 ff ff ff       	jmp    4020 <_init+0x20>

0000000000004110 <PyUnicode_Join@plt>:
    4110:	ff 25 5a 1f 01 00    	jmp    *0x11f5a(%rip)        # 16070 <PyUnicode_Join@Base>
    4116:	68 0e 00 00 00       	push   $0xe
    411b:	e9 00 ff ff ff       	jmp    4020 <_init+0x20>

0000000000004120 <__assert_fail@plt>:
    4120:	ff 25 52 1f 01 00    	jmp    *0x11f52(%rip)        # 16078 <__assert_fail@GLIBC_2.2.5>
    4126:	68 0f 00 00 00       	push   $0xf
    412b:	e9 f0 fe ff ff       	jmp    4020 <_init+0x20>

0000000000004130 <PyObject_VectorcallDict@plt>:
    4130:	ff 25 4a 1f 01 00    	jmp    *0x11f4a(%rip)        # 16080 <PyObject_VectorcallDict@Base>
    4136:	68 10 00 00 00       	push   $0x10
    413b:	e9 e0 fe ff ff       	jmp    4020 <_init+0x20>

0000000000004140 <PyUnicode_FromString@plt>:
    4140:	ff 25 42 1f 01 00    	jmp    *0x11f42(%rip)        # 16088 <PyUnicode_FromString@Base>
    4146:	68 11 00 00 00       	push   $0x11
    414b:	e9 d0 fe ff ff       	jmp    4020 <_init+0x20>

0000000000004150 <PyObject_GC_Del@plt>:
    4150:	ff 25 3a 1f 01 00    	jmp    *0x11f3a(%rip)        # 16090 <PyObject_GC_Del@Base>
    4156:	68 12 00 00 00       	push   $0x12
    415b:	e9 c0 fe ff ff       	jmp    4020 <_init+0x20>

0000000000004160 <PyErr_NoMemory@plt>:
    4160:	ff 25 32 1f 01 00    	jmp    *0x11f32(%rip)        # 16098 <PyErr_NoMemory@Base>
    4166:	68 13 00 00 00       	push   $0x13
    416b:	e9 b0 fe ff ff       	jmp    4020 <_init+0x20>

0000000000004170 <PyObject_GC_UnTrack@plt>:
    4170:	ff 25 2a 1f 01 00    	jmp    *0x11f2a(%rip)        # 160a0 <PyObject_GC_UnTrack@Base>
    4176:	68 14 00 00 00       	push   $0x14
    417b:	e9 a0 fe ff ff       	jmp    4020 <_init+0x20>

0000000000004180 <_PyObject_GetDictPtr@plt>:
    4180:	ff 25 22 1f 01 00    	jmp    *0x11f22(%rip)        # 160a8 <_PyObject_GetDictPtr@Base>
    4186:	68 15 00 00 00       	push   $0x15
    418b:	e9 90 fe ff ff       	jmp    4020 <_init+0x20>

0000000000004190 <PyObject_IsTrue@plt>:
    4190:	ff 25 1a 1f 01 00    	jmp    *0x11f1a(%rip)        # 160b0 <PyObject_IsTrue@Base>
    4196:	68 16 00 00 00       	push   $0x16
    419b:	e9 80 fe ff ff       	jmp    4020 <_init+0x20>

00000000000041a0 <malloc@plt>:
    41a0:	ff 25 12 1f 01 00    	jmp    *0x11f12(%rip)        # 160b8 <malloc@GLIBC_2.2.5>
    41a6:	68 17 00 00 00       	push   $0x17
    41ab:	e9 70 fe ff ff       	jmp    4020 <_init+0x20>

00000000000041b0 <PyFloat_FromString@plt>:
    41b0:	ff 25 0a 1f 01 00    	jmp    *0x11f0a(%rip)        # 160c0 <PyFloat_FromString@Base>
    41b6:	68 18 00 00 00       	push   $0x18
    41bb:	e9 60 fe ff ff       	jmp    4020 <_init+0x20>

00000000000041c0 <PyMem_Realloc@plt>:
    41c0:	ff 25 02 1f 01 00    	jmp    *0x11f02(%rip)        # 160c8 <PyMem_Realloc@Base>
    41c6:	68 19 00 00 00       	push   $0x19
    41cb:	e9 50 fe ff ff       	jmp    4020 <_init+0x20>

00000000000041d0 <PyObject_Not@plt>:
    41d0:	ff 25 fa 1e 01 00    	jmp    *0x11efa(%rip)        # 160d0 <PyObject_Not@Base>
    41d6:	68 1a 00 00 00       	push   $0x1a
    41db:	e9 40 fe ff ff       	jmp    4020 <_init+0x20>

00000000000041e0 <PyErr_GivenExceptionMatches@plt>:
    41e0:	ff 25 f2 1e 01 00    	jmp    *0x11ef2(%rip)        # 160d8 <PyErr_GivenExceptionMatches@Base>
    41e6:	68 1b 00 00 00       	push   $0x1b
    41eb:	e9 30 fe ff ff       	jmp    4020 <_init+0x20>

00000000000041f0 <PyDict_GetItemWithError@plt>:
    41f0:	ff 25 ea 1e 01 00    	jmp    *0x11eea(%rip)        # 160e0 <PyDict_GetItemWithError@Base>
    41f6:	68 1c 00 00 00       	push   $0x1c
    41fb:	e9 20 fe ff ff       	jmp    4020 <_init+0x20>

0000000000004200 <PyUnstable_Code_NewWithPosOnlyArgs@plt>:
    4200:	ff 25 e2 1e 01 00    	jmp    *0x11ee2(%rip)        # 160e8 <PyUnstable_Code_NewWithPosOnlyArgs@Base>
    4206:	68 1d 00 00 00       	push   $0x1d
    420b:	e9 10 fe ff ff       	jmp    4020 <_init+0x20>

0000000000004210 <PyOS_snprintf@plt>:
    4210:	ff 25 da 1e 01 00    	jmp    *0x11eda(%rip)        # 160f0 <PyOS_snprintf@Base>
    4216:	68 1e 00 00 00       	push   $0x1e
    421b:	e9 00 fe ff ff       	jmp    4020 <_init+0x20>

0000000000004220 <PyUnicode_AsUTF8AndSize@plt>:
    4220:	ff 25 d2 1e 01 00    	jmp    *0x11ed2(%rip)        # 160f8 <PyUnicode_AsUTF8AndSize@Base>
    4226:	68 1f 00 00 00       	push   $0x1f
    422b:	e9 f0 fd ff ff       	jmp    4020 <_init+0x20>

0000000000004230 <PyObject_GetItem@plt>:
    4230:	ff 25 ca 1e 01 00    	jmp    *0x11eca(%rip)        # 16100 <PyObject_GetItem@Base>
    4236:	68 20 00 00 00       	push   $0x20
    423b:	e9 e0 fd ff ff       	jmp    4020 <_init+0x20>

0000000000004240 <PyUnicode_FromFormat@plt>:
    4240:	ff 25 c2 1e 01 00    	jmp    *0x11ec2(%rip)        # 16108 <PyUnicode_FromFormat@Base>
    4246:	68 21 00 00 00       	push   $0x21
    424b:	e9 d0 fd ff ff       	jmp    4020 <_init+0x20>

0000000000004250 <PyDict_Next@plt>:
    4250:	ff 25 ba 1e 01 00    	jmp    *0x11eba(%rip)        # 16110 <PyDict_Next@Base>
    4256:	68 22 00 00 00       	push   $0x22
    425b:	e9 c0 fd ff ff       	jmp    4020 <_init+0x20>

0000000000004260 <PyImport_AddModule@plt>:
    4260:	ff 25 b2 1e 01 00    	jmp    *0x11eb2(%rip)        # 16118 <PyImport_AddModule@Base>
    4266:	68 23 00 00 00       	push   $0x23
    426b:	e9 b0 fd ff ff       	jmp    4020 <_init+0x20>

0000000000004270 <Py_EnterRecursiveCall@plt>:
    4270:	ff 25 aa 1e 01 00    	jmp    *0x11eaa(%rip)        # 16120 <Py_EnterRecursiveCall@Base>
    4276:	68 24 00 00 00       	push   $0x24
    427b:	e9 a0 fd ff ff       	jmp    4020 <_init+0x20>

0000000000004280 <PyStatus_Exception@plt>:
    4280:	ff 25 a2 1e 01 00    	jmp    *0x11ea2(%rip)        # 16128 <PyStatus_Exception@Base>
    4286:	68 25 00 00 00       	push   $0x25
    428b:	e9 90 fd ff ff       	jmp    4020 <_init+0x20>

0000000000004290 <PyErr_Format@plt>:
    4290:	ff 25 9a 1e 01 00    	jmp    *0x11e9a(%rip)        # 16130 <PyErr_Format@Base>
    4296:	68 26 00 00 00       	push   $0x26
    429b:	e9 80 fd ff ff       	jmp    4020 <_init+0x20>

00000000000042a0 <PyFloat_FromDouble@plt>:
    42a0:	ff 25 92 1e 01 00    	jmp    *0x11e92(%rip)        # 16138 <PyFloat_FromDouble@Base>
    42a6:	68 27 00 00 00       	push   $0x27
    42ab:	e9 70 fd ff ff       	jmp    4020 <_init+0x20>

00000000000042b0 <PyNumber_Long@plt>:
    42b0:	ff 25 8a 1e 01 00    	jmp    *0x11e8a(%rip)        # 16140 <PyNumber_Long@Base>
    42b6:	68 28 00 00 00       	push   $0x28
    42bb:	e9 60 fd ff ff       	jmp    4020 <_init+0x20>

00000000000042c0 <PyNumber_InPlaceAdd@plt>:
    42c0:	ff 25 82 1e 01 00    	jmp    *0x11e82(%rip)        # 16148 <PyNumber_InPlaceAdd@Base>
    42c6:	68 29 00 00 00       	push   $0x29
    42cb:	e9 50 fd ff ff       	jmp    4020 <_init+0x20>

00000000000042d0 <PyObject_GetAttr@plt>:
    42d0:	ff 25 7a 1e 01 00    	jmp    *0x11e7a(%rip)        # 16150 <PyObject_GetAttr@Base>
    42d6:	68 2a 00 00 00       	push   $0x2a
    42db:	e9 40 fd ff ff       	jmp    4020 <_init+0x20>

00000000000042e0 <PyErr_ExceptionMatches@plt>:
    42e0:	ff 25 72 1e 01 00    	jmp    *0x11e72(%rip)        # 16158 <PyErr_ExceptionMatches@Base>
    42e6:	68 2b 00 00 00       	push   $0x2b
    42eb:	e9 30 fd ff ff       	jmp    4020 <_init+0x20>

00000000000042f0 <PyErr_Occurred@plt>:
    42f0:	ff 25 6a 1e 01 00    	jmp    *0x11e6a(%rip)        # 16160 <PyErr_Occurred@Base>
    42f6:	68 2c 00 00 00       	push   $0x2c
    42fb:	e9 20 fd ff ff       	jmp    4020 <_init+0x20>

0000000000004300 <Py_DecodeLocale@plt>:
    4300:	ff 25 62 1e 01 00    	jmp    *0x11e62(%rip)        # 16168 <Py_DecodeLocale@Base>
    4306:	68 2d 00 00 00       	push   $0x2d
    430b:	e9 10 fd ff ff       	jmp    4020 <_init+0x20>

0000000000004310 <PyTuple_GetSlice@plt>:
    4310:	ff 25 5a 1e 01 00    	jmp    *0x11e5a(%rip)        # 16170 <PyTuple_GetSlice@Base>
    4316:	68 2e 00 00 00       	push   $0x2e
    431b:	e9 00 fd ff ff       	jmp    4020 <_init+0x20>

0000000000004320 <free@plt>:
    4320:	ff 25 52 1e 01 00    	jmp    *0x11e52(%rip)        # 16178 <free@GLIBC_2.2.5>
    4326:	68 2f 00 00 00       	push   $0x2f
    432b:	e9 f0 fc ff ff       	jmp    4020 <_init+0x20>

0000000000004330 <PyLong_AsDouble@plt>:
    4330:	ff 25 4a 1e 01 00    	jmp    *0x11e4a(%rip)        # 16180 <PyLong_AsDouble@Base>
    4336:	68 30 00 00 00       	push   $0x30
    433b:	e9 e0 fc ff ff       	jmp    4020 <_init+0x20>

0000000000004340 <Py_FinalizeEx@plt>:
    4340:	ff 25 42 1e 01 00    	jmp    *0x11e42(%rip)        # 16188 <Py_FinalizeEx@Base>
    4346:	68 31 00 00 00       	push   $0x31
    434b:	e9 d0 fc ff ff       	jmp    4020 <_init+0x20>

0000000000004350 <PyErr_SetObject@plt>:
    4350:	ff 25 3a 1e 01 00    	jmp    *0x11e3a(%rip)        # 16190 <PyErr_SetObject@Base>
    4356:	68 32 00 00 00       	push   $0x32
    435b:	e9 c0 fc ff ff       	jmp    4020 <_init+0x20>

0000000000004360 <PyNumber_Multiply@plt>:
    4360:	ff 25 32 1e 01 00    	jmp    *0x11e32(%rip)        # 16198 <PyNumber_Multiply@Base>
    4366:	68 33 00 00 00       	push   $0x33
    436b:	e9 b0 fc ff ff       	jmp    4020 <_init+0x20>

0000000000004370 <PyUnicode_InternFromString@plt>:
    4370:	ff 25 2a 1e 01 00    	jmp    *0x11e2a(%rip)        # 161a0 <PyUnicode_InternFromString@Base>
    4376:	68 34 00 00 00       	push   $0x34
    437b:	e9 a0 fc ff ff       	jmp    4020 <_init+0x20>

0000000000004380 <PyUnicode_Concat@plt>:
    4380:	ff 25 22 1e 01 00    	jmp    *0x11e22(%rip)        # 161a8 <PyUnicode_Concat@Base>
    4386:	68 35 00 00 00       	push   $0x35
    438b:	e9 90 fc ff ff       	jmp    4020 <_init+0x20>

0000000000004390 <strrchr@plt>:
    4390:	ff 25 1a 1e 01 00    	jmp    *0x11e1a(%rip)        # 161b0 <strrchr@GLIBC_2.2.5>
    4396:	68 36 00 00 00       	push   $0x36
    439b:	e9 80 fc ff ff       	jmp    4020 <_init+0x20>

00000000000043a0 <_PyObject_GC_New@plt>:
    43a0:	ff 25 12 1e 01 00    	jmp    *0x11e12(%rip)        # 161b8 <_PyObject_GC_New@Base>
    43a6:	68 37 00 00 00       	push   $0x37
    43ab:	e9 70 fc ff ff       	jmp    4020 <_init+0x20>

00000000000043b0 <PyTuple_Pack@plt>:
    43b0:	ff 25 0a 1e 01 00    	jmp    *0x11e0a(%rip)        # 161c0 <PyTuple_Pack@Base>
    43b6:	68 38 00 00 00       	push   $0x38
    43bb:	e9 60 fc ff ff       	jmp    4020 <_init+0x20>

00000000000043c0 <PyThreadState_Get@plt>:
    43c0:	ff 25 02 1e 01 00    	jmp    *0x11e02(%rip)        # 161c8 <PyThreadState_Get@Base>
    43c6:	68 39 00 00 00       	push   $0x39
    43cb:	e9 50 fc ff ff       	jmp    4020 <_init+0x20>

00000000000043d0 <_PyUnicode_IsWhitespace@plt>:
    43d0:	ff 25 fa 1d 01 00    	jmp    *0x11dfa(%rip)        # 161d0 <_PyUnicode_IsWhitespace@Base>
    43d6:	68 3a 00 00 00       	push   $0x3a
    43db:	e9 40 fc ff ff       	jmp    4020 <_init+0x20>

00000000000043e0 <PyMem_RawFree@plt>:
    43e0:	ff 25 f2 1d 01 00    	jmp    *0x11df2(%rip)        # 161d8 <PyMem_RawFree@Base>
    43e6:	68 3b 00 00 00       	push   $0x3b
    43eb:	e9 30 fc ff ff       	jmp    4020 <_init+0x20>

00000000000043f0 <PyDict_Size@plt>:
    43f0:	ff 25 ea 1d 01 00    	jmp    *0x11dea(%rip)        # 161e0 <PyDict_Size@Base>
    43f6:	68 3c 00 00 00       	push   $0x3c
    43fb:	e9 20 fc ff ff       	jmp    4020 <_init+0x20>

0000000000004400 <PyModule_GetDict@plt>:
    4400:	ff 25 e2 1d 01 00    	jmp    *0x11de2(%rip)        # 161e8 <PyModule_GetDict@Base>
    4406:	68 3d 00 00 00       	push   $0x3d
    440b:	e9 10 fc ff ff       	jmp    4020 <_init+0x20>

0000000000004410 <PyCode_NewEmpty@plt>:
    4410:	ff 25 da 1d 01 00    	jmp    *0x11dda(%rip)        # 161f0 <PyCode_NewEmpty@Base>
    4416:	68 3e 00 00 00       	push   $0x3e
    441b:	e9 00 fc ff ff       	jmp    4020 <_init+0x20>

0000000000004420 <PyImport_ImportModuleLevelObject@plt>:
    4420:	ff 25 d2 1d 01 00    	jmp    *0x11dd2(%rip)        # 161f8 <PyImport_ImportModuleLevelObject@Base>
    4426:	68 3f 00 00 00       	push   $0x3f
    442b:	e9 f0 fb ff ff       	jmp    4020 <_init+0x20>

0000000000004430 <PyObject_SetItem@plt>:
    4430:	ff 25 ca 1d 01 00    	jmp    *0x11dca(%rip)        # 16200 <PyObject_SetItem@Base>
    4436:	68 40 00 00 00       	push   $0x40
    443b:	e9 e0 fb ff ff       	jmp    4020 <_init+0x20>

0000000000004440 <PyObject_RichCompare@plt>:
    4440:	ff 25 c2 1d 01 00    	jmp    *0x11dc2(%rip)        # 16208 <PyObject_RichCompare@Base>
    4446:	68 41 00 00 00       	push   $0x41
    444b:	e9 d0 fb ff ff       	jmp    4020 <_init+0x20>

0000000000004450 <PyObject_GetIter@plt>:
    4450:	ff 25 ba 1d 01 00    	jmp    *0x11dba(%rip)        # 16210 <PyObject_GetIter@Base>
    4456:	68 42 00 00 00       	push   $0x42
    445b:	e9 c0 fb ff ff       	jmp    4020 <_init+0x20>

0000000000004460 <PyType_IsSubtype@plt>:
    4460:	ff 25 b2 1d 01 00    	jmp    *0x11db2(%rip)        # 16218 <PyType_IsSubtype@Base>
    4466:	68 43 00 00 00       	push   $0x43
    446b:	e9 b0 fb ff ff       	jmp    4020 <_init+0x20>

0000000000004470 <fputs@plt>:
    4470:	ff 25 aa 1d 01 00    	jmp    *0x11daa(%rip)        # 16220 <fputs@GLIBC_2.2.5>
    4476:	68 44 00 00 00       	push   $0x44
    447b:	e9 a0 fb ff ff       	jmp    4020 <_init+0x20>

0000000000004480 <Py_LeaveRecursiveCall@plt>:
    4480:	ff 25 a2 1d 01 00    	jmp    *0x11da2(%rip)        # 16228 <Py_LeaveRecursiveCall@Base>
    4486:	68 45 00 00 00       	push   $0x45
    448b:	e9 90 fb ff ff       	jmp    4020 <_init+0x20>

0000000000004490 <PyUnicode_Decode@plt>:
    4490:	ff 25 9a 1d 01 00    	jmp    *0x11d9a(%rip)        # 16230 <PyUnicode_Decode@Base>
    4496:	68 46 00 00 00       	push   $0x46
    449b:	e9 80 fb ff ff       	jmp    4020 <_init+0x20>

00000000000044a0 <PyNumber_Add@plt>:
    44a0:	ff 25 92 1d 01 00    	jmp    *0x11d92(%rip)        # 16238 <PyNumber_Add@Base>
    44a6:	68 47 00 00 00       	push   $0x47
    44ab:	e9 70 fb ff ff       	jmp    4020 <_init+0x20>

00000000000044b0 <PyErr_WarnEx@plt>:
    44b0:	ff 25 8a 1d 01 00    	jmp    *0x11d8a(%rip)        # 16240 <PyErr_WarnEx@Base>
    44b6:	68 48 00 00 00       	push   $0x48
    44bb:	e9 60 fb ff ff       	jmp    4020 <_init+0x20>

00000000000044c0 <PyErr_NormalizeException@plt>:
    44c0:	ff 25 82 1d 01 00    	jmp    *0x11d82(%rip)        # 16248 <PyErr_NormalizeException@Base>
    44c6:	68 49 00 00 00       	push   $0x49
    44cb:	e9 50 fb ff ff       	jmp    4020 <_init+0x20>

00000000000044d0 <PyObject_Format@plt>:
    44d0:	ff 25 7a 1d 01 00    	jmp    *0x11d7a(%rip)        # 16250 <PyObject_Format@Base>
    44d6:	68 4a 00 00 00       	push   $0x4a
    44db:	e9 40 fb ff ff       	jmp    4020 <_init+0x20>

00000000000044e0 <PyObject_Hash@plt>:
    44e0:	ff 25 72 1d 01 00    	jmp    *0x11d72(%rip)        # 16258 <PyObject_Hash@Base>
    44e6:	68 4b 00 00 00       	push   $0x4b
    44eb:	e9 30 fb ff ff       	jmp    4020 <_init+0x20>

00000000000044f0 <PyObject_ClearWeakRefs@plt>:
    44f0:	ff 25 6a 1d 01 00    	jmp    *0x11d6a(%rip)        # 16260 <PyObject_ClearWeakRefs@Base>
    44f6:	68 4c 00 00 00       	push   $0x4c
    44fb:	e9 20 fb ff ff       	jmp    4020 <_init+0x20>

0000000000004500 <PyNumber_Subtract@plt>:
    4500:	ff 25 62 1d 01 00    	jmp    *0x11d62(%rip)        # 16268 <PyNumber_Subtract@Base>
    4506:	68 4d 00 00 00       	push   $0x4d
    450b:	e9 10 fb ff ff       	jmp    4020 <_init+0x20>

0000000000004510 <PyObject_GetAttrString@plt>:
    4510:	ff 25 5a 1d 01 00    	jmp    *0x11d5a(%rip)        # 16270 <PyObject_GetAttrString@Base>
    4516:	68 4e 00 00 00       	push   $0x4e
    451b:	e9 00 fb ff ff       	jmp    4020 <_init+0x20>

0000000000004520 <strdup@plt>:
    4520:	ff 25 52 1d 01 00    	jmp    *0x11d52(%rip)        # 16278 <strdup@GLIBC_2.2.5>
    4526:	68 4f 00 00 00       	push   $0x4f
    452b:	e9 f0 fa ff ff       	jmp    4020 <_init+0x20>

0000000000004530 <__stack_chk_fail@plt>:
    4530:	ff 25 4a 1d 01 00    	jmp    *0x11d4a(%rip)        # 16280 <__stack_chk_fail@GLIBC_2.4>
    4536:	68 50 00 00 00       	push   $0x50
    453b:	e9 e0 fa ff ff       	jmp    4020 <_init+0x20>

0000000000004540 <PyObject_SetAttrString@plt>:
    4540:	ff 25 42 1d 01 00    	jmp    *0x11d42(%rip)        # 16288 <PyObject_SetAttrString@Base>
    4546:	68 51 00 00 00       	push   $0x51
    454b:	e9 d0 fa ff ff       	jmp    4020 <_init+0x20>

0000000000004550 <PyList_Append@plt>:
    4550:	ff 25 3a 1d 01 00    	jmp    *0x11d3a(%rip)        # 16290 <PyList_Append@Base>
    4556:	68 52 00 00 00       	push   $0x52
    455b:	e9 c0 fa ff ff       	jmp    4020 <_init+0x20>

0000000000004560 <PyObject_SetAttr@plt>:
    4560:	ff 25 32 1d 01 00    	jmp    *0x11d32(%rip)        # 16298 <PyObject_SetAttr@Base>
    4566:	68 53 00 00 00       	push   $0x53
    456b:	e9 b0 fa ff ff       	jmp    4020 <_init+0x20>

0000000000004570 <PyConfig_Clear@plt>:
    4570:	ff 25 2a 1d 01 00    	jmp    *0x11d2a(%rip)        # 162a0 <PyConfig_Clear@Base>
    4576:	68 54 00 00 00       	push   $0x54
    457b:	e9 a0 fa ff ff       	jmp    4020 <_init+0x20>

0000000000004580 <PyImport_GetModule@plt>:
    4580:	ff 25 22 1d 01 00    	jmp    *0x11d22(%rip)        # 162a8 <PyImport_GetModule@Base>
    4586:	68 55 00 00 00       	push   $0x55
    458b:	e9 90 fa ff ff       	jmp    4020 <_init+0x20>

0000000000004590 <PyVectorcall_Function@plt>:
    4590:	ff 25 1a 1d 01 00    	jmp    *0x11d1a(%rip)        # 162b0 <PyVectorcall_Function@Base>
    4596:	68 56 00 00 00       	push   $0x56
    459b:	e9 80 fa ff ff       	jmp    4020 <_init+0x20>

00000000000045a0 <PyBytes_FromStringAndSize@plt>:
    45a0:	ff 25 12 1d 01 00    	jmp    *0x11d12(%rip)        # 162b8 <PyBytes_FromStringAndSize@Base>
    45a6:	68 57 00 00 00       	push   $0x57
    45ab:	e9 70 fa ff ff       	jmp    4020 <_init+0x20>

00000000000045b0 <PyDict_GetItemString@plt>:
    45b0:	ff 25 0a 1d 01 00    	jmp    *0x11d0a(%rip)        # 162c0 <PyDict_GetItemString@Base>
    45b6:	68 58 00 00 00       	push   $0x58
    45bb:	e9 60 fa ff ff       	jmp    4020 <_init+0x20>

00000000000045c0 <PyObject_Call@plt>:
    45c0:	ff 25 02 1d 01 00    	jmp    *0x11d02(%rip)        # 162c8 <PyObject_Call@Base>
    45c6:	68 59 00 00 00       	push   $0x59
    45cb:	e9 50 fa ff ff       	jmp    4020 <_init+0x20>

00000000000045d0 <PyErr_Print@plt>:
    45d0:	ff 25 fa 1c 01 00    	jmp    *0x11cfa(%rip)        # 162d0 <PyErr_Print@Base>
    45d6:	68 5a 00 00 00       	push   $0x5a
    45db:	e9 40 fa ff ff       	jmp    4020 <_init+0x20>

00000000000045e0 <_PyDict_GetItem_KnownHash@plt>:
    45e0:	ff 25 f2 1c 01 00    	jmp    *0x11cf2(%rip)        # 162d8 <_PyDict_GetItem_KnownHash@Base>
    45e6:	68 5b 00 00 00       	push   $0x5b
    45eb:	e9 30 fa ff ff       	jmp    4020 <_init+0x20>

00000000000045f0 <PyLong_FromLong@plt>:
    45f0:	ff 25 ea 1c 01 00    	jmp    *0x11cea(%rip)        # 162e0 <PyLong_FromLong@Base>
    45f6:	68 5c 00 00 00       	push   $0x5c
    45fb:	e9 20 fa ff ff       	jmp    4020 <_init+0x20>

0000000000004600 <PyTraceBack_Here@plt>:
    4600:	ff 25 e2 1c 01 00    	jmp    *0x11ce2(%rip)        # 162e8 <PyTraceBack_Here@Base>
    4606:	68 5d 00 00 00       	push   $0x5d
    460b:	e9 10 fa ff ff       	jmp    4020 <_init+0x20>

0000000000004610 <PyLong_FromLongLong@plt>:
    4610:	ff 25 da 1c 01 00    	jmp    *0x11cda(%rip)        # 162f0 <PyLong_FromLongLong@Base>
    4616:	68 5e 00 00 00       	push   $0x5e
    461b:	e9 00 fa ff ff       	jmp    4020 <_init+0x20>

0000000000004620 <PyMethod_New@plt>:
    4620:	ff 25 d2 1c 01 00    	jmp    *0x11cd2(%rip)        # 162f8 <PyMethod_New@Base>
    4626:	68 5f 00 00 00       	push   $0x5f
    462b:	e9 f0 f9 ff ff       	jmp    4020 <_init+0x20>

0000000000004630 <memcmp@plt>:
    4630:	ff 25 ca 1c 01 00    	jmp    *0x11cca(%rip)        # 16300 <memcmp@GLIBC_2.2.5>
    4636:	68 60 00 00 00       	push   $0x60
    463b:	e9 e0 f9 ff ff       	jmp    4020 <_init+0x20>

0000000000004640 <PyException_SetTraceback@plt>:
    4640:	ff 25 c2 1c 01 00    	jmp    *0x11cc2(%rip)        # 16308 <PyException_SetTraceback@Base>
    4646:	68 61 00 00 00       	push   $0x61
    464b:	e9 d0 f9 ff ff       	jmp    4020 <_init+0x20>

0000000000004650 <_Py_Dealloc@plt>:
    4650:	ff 25 ba 1c 01 00    	jmp    *0x11cba(%rip)        # 16310 <_Py_Dealloc@Base>
    4656:	68 62 00 00 00       	push   $0x62
    465b:	e9 c0 f9 ff ff       	jmp    4020 <_init+0x20>

0000000000004660 <PyObject_Free@plt>:
    4660:	ff 25 b2 1c 01 00    	jmp    *0x11cb2(%rip)        # 16318 <PyObject_Free@Base>
    4666:	68 63 00 00 00       	push   $0x63
    466b:	e9 b0 f9 ff ff       	jmp    4020 <_init+0x20>

0000000000004670 <PySequence_GetSlice@plt>:
    4670:	ff 25 aa 1c 01 00    	jmp    *0x11caa(%rip)        # 16320 <PySequence_GetSlice@Base>
    4676:	68 64 00 00 00       	push   $0x64
    467b:	e9 a0 f9 ff ff       	jmp    4020 <_init+0x20>

0000000000004680 <PyImport_ImportModule@plt>:
    4680:	ff 25 a2 1c 01 00    	jmp    *0x11ca2(%rip)        # 16328 <PyImport_ImportModule@Base>
    4686:	68 65 00 00 00       	push   $0x65
    468b:	e9 90 f9 ff ff       	jmp    4020 <_init+0x20>

0000000000004690 <PyErr_Clear@plt>:
    4690:	ff 25 9a 1c 01 00    	jmp    *0x11c9a(%rip)        # 16330 <PyErr_Clear@Base>
    4696:	68 66 00 00 00       	push   $0x66
    469b:	e9 80 f9 ff ff       	jmp    4020 <_init+0x20>

00000000000046a0 <PyTuple_New@plt>:
    46a0:	ff 25 92 1c 01 00    	jmp    *0x11c92(%rip)        # 16338 <PyTuple_New@Base>
    46a6:	68 67 00 00 00       	push   $0x67
    46ab:	e9 70 f9 ff ff       	jmp    4020 <_init+0x20>

00000000000046b0 <PyUnicode_New@plt>:
    46b0:	ff 25 8a 1c 01 00    	jmp    *0x11c8a(%rip)        # 16340 <PyUnicode_New@Base>
    46b6:	68 68 00 00 00       	push   $0x68
    46bb:	e9 60 f9 ff ff       	jmp    4020 <_init+0x20>

00000000000046c0 <PyImport_GetModuleDict@plt>:
    46c0:	ff 25 82 1c 01 00    	jmp    *0x11c82(%rip)        # 16348 <PyImport_GetModuleDict@Base>
    46c6:	68 69 00 00 00       	push   $0x69
    46cb:	e9 50 f9 ff ff       	jmp    4020 <_init+0x20>

00000000000046d0 <PyImport_AppendInittab@plt>:
    46d0:	ff 25 7a 1c 01 00    	jmp    *0x11c7a(%rip)        # 16350 <PyImport_AppendInittab@Base>
    46d6:	68 6a 00 00 00       	push   $0x6a
    46db:	e9 40 f9 ff ff       	jmp    4020 <_init+0x20>

00000000000046e0 <PyTuple_GetItem@plt>:
    46e0:	ff 25 72 1c 01 00    	jmp    *0x11c72(%rip)        # 16358 <PyTuple_GetItem@Base>
    46e6:	68 6b 00 00 00       	push   $0x6b
    46eb:	e9 30 f9 ff ff       	jmp    4020 <_init+0x20>

00000000000046f0 <PyLong_FromSsize_t@plt>:
    46f0:	ff 25 6a 1c 01 00    	jmp    *0x11c6a(%rip)        # 16360 <PyLong_FromSsize_t@Base>
    46f6:	68 6c 00 00 00       	push   $0x6c
    46fb:	e9 20 f9 ff ff       	jmp    4020 <_init+0x20>

0000000000004700 <PyErr_SetString@plt>:
    4700:	ff 25 62 1c 01 00    	jmp    *0x11c62(%rip)        # 16368 <PyErr_SetString@Base>
    4706:	68 6d 00 00 00       	push   $0x6d
    470b:	e9 10 f9 ff ff       	jmp    4020 <_init+0x20>

0000000000004710 <PyNumber_TrueDivide@plt>:
    4710:	ff 25 5a 1c 01 00    	jmp    *0x11c5a(%rip)        # 16370 <PyNumber_TrueDivide@Base>
    4716:	68 6e 00 00 00       	push   $0x6e
    471b:	e9 00 f9 ff ff       	jmp    4020 <_init+0x20>

0000000000004720 <PyModuleDef_Init@plt>:
    4720:	ff 25 52 1c 01 00    	jmp    *0x11c52(%rip)        # 16378 <PyModuleDef_Init@Base>
    4726:	68 6f 00 00 00       	push   $0x6f
    472b:	e9 f0 f8 ff ff       	jmp    4020 <_init+0x20>

0000000000004730 <_PyThreadState_UncheckedGet@plt>:
    4730:	ff 25 4a 1c 01 00    	jmp    *0x11c4a(%rip)        # 16380 <_PyThreadState_UncheckedGet@Base>
    4736:	68 70 00 00 00       	push   $0x70
    473b:	e9 e0 f8 ff ff       	jmp    4020 <_init+0x20>

0000000000004740 <PyUnicode_FromStringAndSize@plt>:
    4740:	ff 25 42 1c 01 00    	jmp    *0x11c42(%rip)        # 16388 <PyUnicode_FromStringAndSize@Base>
    4746:	68 71 00 00 00       	push   $0x71
    474b:	e9 d0 f8 ff ff       	jmp    4020 <_init+0x20>

0000000000004750 <setlocale@plt>:
    4750:	ff 25 3a 1c 01 00    	jmp    *0x11c3a(%rip)        # 16390 <setlocale@GLIBC_2.2.5>
    4756:	68 72 00 00 00       	push   $0x72
    475b:	e9 c0 f8 ff ff       	jmp    4020 <_init+0x20>

0000000000004760 <_PyType_Lookup@plt>:
    4760:	ff 25 32 1c 01 00    	jmp    *0x11c32(%rip)        # 16398 <_PyType_Lookup@Base>
    4766:	68 73 00 00 00       	push   $0x73
    476b:	e9 b0 f8 ff ff       	jmp    4020 <_init+0x20>

0000000000004770 <PyList_New@plt>:
    4770:	ff 25 2a 1c 01 00    	jmp    *0x11c2a(%rip)        # 163a0 <PyList_New@Base>
    4776:	68 74 00 00 00       	push   $0x74
    477b:	e9 a0 f8 ff ff       	jmp    4020 <_init+0x20>

0000000000004780 <PyMem_Malloc@plt>:
    4780:	ff 25 22 1c 01 00    	jmp    *0x11c22(%rip)        # 163a8 <PyMem_Malloc@Base>
    4786:	68 75 00 00 00       	push   $0x75
    478b:	e9 90 f8 ff ff       	jmp    4020 <_init+0x20>

0000000000004790 <PyUnicode_AsUTF8@plt>:
    4790:	ff 25 1a 1c 01 00    	jmp    *0x11c1a(%rip)        # 163b0 <PyUnicode_AsUTF8@Base>
    4796:	68 76 00 00 00       	push   $0x76
    479b:	e9 80 f8 ff ff       	jmp    4020 <_init+0x20>

00000000000047a0 <PyObject_GC_Track@plt>:
    47a0:	ff 25 12 1c 01 00    	jmp    *0x11c12(%rip)        # 163b8 <PyObject_GC_Track@Base>
    47a6:	68 77 00 00 00       	push   $0x77
    47ab:	e9 70 f8 ff ff       	jmp    4020 <_init+0x20>

00000000000047b0 <PyDict_SetItem@plt>:
    47b0:	ff 25 0a 1c 01 00    	jmp    *0x11c0a(%rip)        # 163c0 <PyDict_SetItem@Base>
    47b6:	68 78 00 00 00       	push   $0x78
    47bb:	e9 60 f8 ff ff       	jmp    4020 <_init+0x20>

00000000000047c0 <PyConfig_InitPythonConfig@plt>:
    47c0:	ff 25 02 1c 01 00    	jmp    *0x11c02(%rip)        # 163c8 <PyConfig_InitPythonConfig@Base>
    47c6:	68 79 00 00 00       	push   $0x79
    47cb:	e9 50 f8 ff ff       	jmp    4020 <_init+0x20>

00000000000047d0 <PyDict_New@plt>:
    47d0:	ff 25 fa 1b 01 00    	jmp    *0x11bfa(%rip)        # 163d0 <PyDict_New@Base>
    47d6:	68 7a 00 00 00       	push   $0x7a
    47db:	e9 40 f8 ff ff       	jmp    4020 <_init+0x20>

00000000000047e0 <PyException_GetTraceback@plt>:
    47e0:	ff 25 f2 1b 01 00    	jmp    *0x11bf2(%rip)        # 163d8 <PyException_GetTraceback@Base>
    47e6:	68 7b 00 00 00       	push   $0x7b
    47eb:	e9 30 f8 ff ff       	jmp    4020 <_init+0x20>

Дизассемблирование раздела .text:

00000000000047f0 <PyInit_main>:
    47f0:	48 8d 3d 49 21 01 00 	lea    0x12149(%rip),%rdi        # 16940 <__pyx_moduledef>
    47f7:	e9 24 ff ff ff       	jmp    4720 <PyModuleDef_Init@plt>

00000000000047fc <__Pyx__PyBytes_AsDouble_Copy>:
    47fc:	48 89 f0             	mov    %rsi,%rax
    47ff:	41 ba 01 00 00 00    	mov    $0x1,%r10d
    4805:	31 f6                	xor    %esi,%esi
    4807:	49 bb fe ff 7f ff ff 	movabs $0xff7dffffff7ffffe,%r11
    480e:	ff 7d ff 
    4811:	44 8a 04 37          	mov    (%rdi,%rsi,1),%r8b
    4815:	b1 01                	mov    $0x1,%cl
    4817:	45 8d 48 d2          	lea    -0x2e(%r8),%r9d
    481b:	41 80 f9 37          	cmp    $0x37,%r9b
    481f:	77 07                	ja     4828 <__Pyx__PyBytes_AsDouble_Copy+0x2c>
    4821:	4d 0f a3 cb          	bt     %r9,%r11
    4825:	0f 92 c1             	setb   %cl
    4828:	83 f1 01             	xor    $0x1,%ecx
    482b:	41 80 f8 5f          	cmp    $0x5f,%r8b
    482f:	44 88 00             	mov    %r8b,(%rax)
    4832:	41 0f 95 c0          	setne  %r8b
    4836:	44 0f b6 c9          	movzbl %cl,%r9d
    483a:	45 0f b6 c0          	movzbl %r8b,%r8d
    483e:	4c 01 c0             	add    %r8,%rax
    4841:	45 85 d1             	test   %r10d,%r9d
    4844:	75 15                	jne    485b <__Pyx__PyBytes_AsDouble_Copy+0x5f>
    4846:	48 ff c6             	inc    %rsi
    4849:	48 39 f2             	cmp    %rsi,%rdx
    484c:	74 05                	je     4853 <__Pyx__PyBytes_AsDouble_Copy+0x57>
    484e:	45 89 ca             	mov    %r9d,%r10d
    4851:	eb be                	jmp    4811 <__Pyx__PyBytes_AsDouble_Copy+0x15>
    4853:	84 c9                	test   %cl,%cl
    4855:	75 04                	jne    485b <__Pyx__PyBytes_AsDouble_Copy+0x5f>
    4857:	c6 00 00             	movb   $0x0,(%rax)
    485a:	c3                   	ret
    485b:	31 c0                	xor    %eax,%eax
    485d:	c3                   	ret

000000000000485e <__Pyx_copy_spec_to_module>:
    485e:	41 56                	push   %r14
    4860:	45 89 c6             	mov    %r8d,%r14d
    4863:	41 55                	push   %r13
    4865:	49 89 cd             	mov    %rcx,%r13
    4868:	41 54                	push   %r12
    486a:	49 89 f4             	mov    %rsi,%r12
    486d:	48 89 d6             	mov    %rdx,%rsi
    4870:	55                   	push   %rbp
    4871:	53                   	push   %rbx
    4872:	e8 99 fc ff ff       	call   4510 <PyObject_GetAttrString@plt>
    4877:	48 85 c0             	test   %rax,%rax
    487a:	74 40                	je     48bc <__Pyx_copy_spec_to_module+0x5e>
    487c:	48 89 c3             	mov    %rax,%rbx
    487f:	48 8d 05 9a 31 01 00 	lea    0x1319a(%rip),%rax        # 17a20 <_Py_NoneStruct@@Base>
    4886:	48 39 c3             	cmp    %rax,%rbx
    4889:	75 08                	jne    4893 <__Pyx_copy_spec_to_module+0x35>
    488b:	31 ed                	xor    %ebp,%ebp
    488d:	41 83 e6 01          	and    $0x1,%r14d
    4891:	74 10                	je     48a3 <__Pyx_copy_spec_to_module+0x45>
    4893:	48 89 da             	mov    %rbx,%rdx
    4896:	4c 89 ee             	mov    %r13,%rsi
    4899:	4c 89 e7             	mov    %r12,%rdi
    489c:	e8 af f7 ff ff       	call   4050 <PyDict_SetItemString@plt>
    48a1:	89 c5                	mov    %eax,%ebp
    48a3:	48 8b 03             	mov    (%rbx),%rax
    48a6:	85 c0                	test   %eax,%eax
    48a8:	78 2c                	js     48d6 <__Pyx_copy_spec_to_module+0x78>
    48aa:	48 ff c8             	dec    %rax
    48ad:	48 89 03             	mov    %rax,(%rbx)
    48b0:	75 24                	jne    48d6 <__Pyx_copy_spec_to_module+0x78>
    48b2:	48 89 df             	mov    %rbx,%rdi
    48b5:	e8 96 fd ff ff       	call   4650 <_Py_Dealloc@plt>
    48ba:	eb 1a                	jmp    48d6 <__Pyx_copy_spec_to_module+0x78>
    48bc:	48 8b 3d 75 31 01 00 	mov    0x13175(%rip),%rdi        # 17a38 <PyExc_AttributeError@@Base>
    48c3:	83 cd ff             	or     $0xffffffff,%ebp
    48c6:	e8 15 fa ff ff       	call   42e0 <PyErr_ExceptionMatches@plt>
    48cb:	85 c0                	test   %eax,%eax
    48cd:	74 07                	je     48d6 <__Pyx_copy_spec_to_module+0x78>
    48cf:	e8 bc fd ff ff       	call   4690 <PyErr_Clear@plt>
    48d4:	31 ed                	xor    %ebp,%ebp
    48d6:	5b                   	pop    %rbx
    48d7:	89 e8                	mov    %ebp,%eax
    48d9:	5d                   	pop    %rbp
    48da:	41 5c                	pop    %r12
    48dc:	41 5d                	pop    %r13
    48de:	41 5e                	pop    %r14
    48e0:	c3                   	ret

00000000000048e1 <__pyx_pymod_create>:
    48e1:	41 55                	push   %r13
    48e3:	41 54                	push   %r12
    48e5:	55                   	push   %rbp
    48e6:	48 89 fd             	mov    %rdi,%rbp
    48e9:	53                   	push   %rbx
    48ea:	51                   	push   %rcx
    48eb:	e8 d0 fa ff ff       	call   43c0 <PyThreadState_Get@plt>
    48f0:	48 8b 78 10          	mov    0x10(%rax),%rdi
    48f4:	e8 47 f7 ff ff       	call   4040 <PyInterpreterState_GetID@plt>
    48f9:	48 8b 15 f0 1a 01 00 	mov    0x11af0(%rip),%rdx        # 163f0 <main_interpreter_id.0>
    4900:	48 83 fa ff          	cmp    $0xffffffffffffffff,%rdx
    4904:	75 12                	jne    4918 <__pyx_pymod_create+0x37>
    4906:	48 89 05 e3 1a 01 00 	mov    %rax,0x11ae3(%rip)        # 163f0 <main_interpreter_id.0>
    490d:	48 ff c0             	inc    %rax
    4910:	0f 84 2f 01 00 00    	je     4a45 <__pyx_pymod_create+0x164>
    4916:	eb 1d                	jmp    4935 <__pyx_pymod_create+0x54>
    4918:	48 39 d0             	cmp    %rdx,%rax
    491b:	74 18                	je     4935 <__pyx_pymod_create+0x54>
    491d:	48 8b 3d 7c 21 01 00 	mov    0x1217c(%rip),%rdi        # 16aa0 <PyExc_ImportError@@Base>
    4924:	48 8d 35 c5 d8 00 00 	lea    0xd8c5(%rip),%rsi        # 121f0 <_IO_stdin_used+0x1f0>
    492b:	e8 d0 fd ff ff       	call   4700 <PyErr_SetString@plt>
    4930:	e9 10 01 00 00       	jmp    4a45 <__pyx_pymod_create+0x164>
    4935:	4c 8b 2d 64 37 01 00 	mov    0x13764(%rip),%r13        # 180a0 <__pyx_m>
    493c:	4d 85 ed             	test   %r13,%r13
    493f:	74 14                	je     4955 <__pyx_pymod_create+0x74>
    4941:	41 8b 45 00          	mov    0x0(%r13),%eax
    4945:	ff c0                	inc    %eax
    4947:	74 04                	je     494d <__pyx_pymod_create+0x6c>
    4949:	41 89 45 00          	mov    %eax,0x0(%r13)
    494d:	4c 89 eb             	mov    %r13,%rbx
    4950:	e9 f2 00 00 00       	jmp    4a47 <__pyx_pymod_create+0x166>
    4955:	48 8d 35 90 e2 00 00 	lea    0xe290(%rip),%rsi        # 12bec <_IO_stdin_used+0xbec>
    495c:	48 89 ef             	mov    %rbp,%rdi
    495f:	e8 ac fb ff ff       	call   4510 <PyObject_GetAttrString@plt>
    4964:	49 89 c4             	mov    %rax,%r12
    4967:	48 85 c0             	test   %rax,%rax
    496a:	0f 84 cd 00 00 00    	je     4a3d <__pyx_pymod_create+0x15c>
    4970:	48 89 c7             	mov    %rax,%rdi
    4973:	e8 18 f7 ff ff       	call   4090 <PyModule_NewObject@plt>
    4978:	48 89 c3             	mov    %rax,%rbx
    497b:	49 8b 04 24          	mov    (%r12),%rax
    497f:	85 c0                	test   %eax,%eax
    4981:	78 11                	js     4994 <__pyx_pymod_create+0xb3>
    4983:	48 ff c8             	dec    %rax
    4986:	49 89 04 24          	mov    %rax,(%r12)
    498a:	75 08                	jne    4994 <__pyx_pymod_create+0xb3>
    498c:	4c 89 e7             	mov    %r12,%rdi
    498f:	e8 bc fc ff ff       	call   4650 <_Py_Dealloc@plt>
    4994:	48 85 db             	test   %rbx,%rbx
    4997:	0f 84 a0 00 00 00    	je     4a3d <__pyx_pymod_create+0x15c>
    499d:	48 89 df             	mov    %rbx,%rdi
    49a0:	e8 5b fa ff ff       	call   4400 <PyModule_GetDict@plt>
    49a5:	49 89 c4             	mov    %rax,%r12
    49a8:	48 85 c0             	test   %rax,%rax
    49ab:	74 23                	je     49d0 <__pyx_pymod_create+0xef>
    49ad:	41 b8 01 00 00 00    	mov    $0x1,%r8d
    49b3:	48 8d 0d 95 d8 00 00 	lea    0xd895(%rip),%rcx        # 1224f <_IO_stdin_used+0x24f>
    49ba:	48 89 c6             	mov    %rax,%rsi
    49bd:	48 89 ef             	mov    %rbp,%rdi
    49c0:	48 8d 15 93 d8 00 00 	lea    0xd893(%rip),%rdx        # 1225a <_IO_stdin_used+0x25a>
    49c7:	e8 92 fe ff ff       	call   485e <__Pyx_copy_spec_to_module>
    49cc:	85 c0                	test   %eax,%eax
    49ce:	79 05                	jns    49d5 <__pyx_pymod_create+0xf4>
    49d0:	49 89 dd             	mov    %rbx,%r13
    49d3:	eb 68                	jmp    4a3d <__pyx_pymod_create+0x15c>
    49d5:	41 b8 01 00 00 00    	mov    $0x1,%r8d
    49db:	48 8d 0d 7f d8 00 00 	lea    0xd87f(%rip),%rcx        # 12261 <_IO_stdin_used+0x261>
    49e2:	4c 89 e6             	mov    %r12,%rsi
    49e5:	48 89 ef             	mov    %rbp,%rdi
    49e8:	48 8d 15 7b d8 00 00 	lea    0xd87b(%rip),%rdx        # 1226a <_IO_stdin_used+0x26a>
    49ef:	e8 6a fe ff ff       	call   485e <__Pyx_copy_spec_to_module>
    49f4:	85 c0                	test   %eax,%eax
    49f6:	78 d8                	js     49d0 <__pyx_pymod_create+0xef>
    49f8:	41 b8 01 00 00 00    	mov    $0x1,%r8d
    49fe:	48 8d 0d 6c d8 00 00 	lea    0xd86c(%rip),%rcx        # 12271 <_IO_stdin_used+0x271>
    4a05:	4c 89 e6             	mov    %r12,%rsi
    4a08:	48 89 ef             	mov    %rbp,%rdi
    4a0b:	48 8d 15 6b d8 00 00 	lea    0xd86b(%rip),%rdx        # 1227d <_IO_stdin_used+0x27d>
    4a12:	e8 47 fe ff ff       	call   485e <__Pyx_copy_spec_to_module>
    4a17:	85 c0                	test   %eax,%eax
    4a19:	78 b5                	js     49d0 <__pyx_pymod_create+0xef>
    4a1b:	45 31 c0             	xor    %r8d,%r8d
    4a1e:	48 8d 0d 5f d8 00 00 	lea    0xd85f(%rip),%rcx        # 12284 <_IO_stdin_used+0x284>
    4a25:	4c 89 e6             	mov    %r12,%rsi
    4a28:	48 89 ef             	mov    %rbp,%rdi
    4a2b:	48 8d 15 5b d8 00 00 	lea    0xd85b(%rip),%rdx        # 1228d <_IO_stdin_used+0x28d>
    4a32:	e8 27 fe ff ff       	call   485e <__Pyx_copy_spec_to_module>
    4a37:	85 c0                	test   %eax,%eax
    4a39:	78 95                	js     49d0 <__pyx_pymod_create+0xef>
    4a3b:	eb 0a                	jmp    4a47 <__pyx_pymod_create+0x166>
    4a3d:	4c 89 ef             	mov    %r13,%rdi
    4a40:	e8 59 6c 00 00       	call   b69e <Py_XDECREF>
    4a45:	31 db                	xor    %ebx,%ebx
    4a47:	5a                   	pop    %rdx
    4a48:	48 89 d8             	mov    %rbx,%rax
    4a4b:	5b                   	pop    %rbx
    4a4c:	5d                   	pop    %rbp
    4a4d:	41 5c                	pop    %r12
    4a4f:	41 5d                	pop    %r13
    4a51:	c3                   	ret

0000000000004a52 <__Pyx__PyUnicode_AsDouble_Copy>:
    4a52:	41 57                	push   %r15
    4a54:	4d 89 c7             	mov    %r8,%r15
    4a57:	41 56                	push   %r14
    4a59:	41 be 01 00 00 00    	mov    $0x1,%r14d
    4a5f:	41 55                	push   %r13
    4a61:	41 89 f5             	mov    %esi,%r13d
    4a64:	41 54                	push   %r12
    4a66:	49 89 fc             	mov    %rdi,%r12
    4a69:	55                   	push   %rbp
    4a6a:	48 89 cd             	mov    %rcx,%rbp
    4a6d:	53                   	push   %rbx
    4a6e:	48 89 d3             	mov    %rdx,%rbx
    4a71:	41 51                	push   %r9
    4a73:	4c 39 fd             	cmp    %r15,%rbp
    4a76:	7f 42                	jg     4aba <__Pyx__PyUnicode_AsDouble_Copy+0x68>
    4a78:	48 89 ea             	mov    %rbp,%rdx
    4a7b:	4c 89 e6             	mov    %r12,%rsi
    4a7e:	44 89 ef             	mov    %r13d,%edi
    4a81:	e8 bd 76 00 00       	call   c143 <PyUnicode_READ>
    4a86:	83 f8 5f             	cmp    $0x5f,%eax
    4a89:	88 03                	mov    %al,(%rbx)
    4a8b:	0f 94 c2             	sete   %dl
    4a8e:	83 f8 2e             	cmp    $0x2e,%eax
    4a91:	0f 94 c1             	sete   %cl
    4a94:	09 ca                	or     %ecx,%edx
    4a96:	31 c9                	xor    %ecx,%ecx
    4a98:	83 f8 5f             	cmp    $0x5f,%eax
    4a9b:	0f 95 c1             	setne  %cl
    4a9e:	0f b6 d2             	movzbl %dl,%edx
    4aa1:	48 01 cb             	add    %rcx,%rbx
    4aa4:	83 f8 7f             	cmp    $0x7f,%eax
    4aa7:	76 04                	jbe    4aad <__Pyx__PyUnicode_AsDouble_Copy+0x5b>
    4aa9:	31 db                	xor    %ebx,%ebx
    4aab:	eb 15                	jmp    4ac2 <__Pyx__PyUnicode_AsDouble_Copy+0x70>
    4aad:	41 85 d6             	test   %edx,%r14d
    4ab0:	75 f7                	jne    4aa9 <__Pyx__PyUnicode_AsDouble_Copy+0x57>
    4ab2:	48 ff c5             	inc    %rbp
    4ab5:	41 89 d6             	mov    %edx,%r14d
    4ab8:	eb b9                	jmp    4a73 <__Pyx__PyUnicode_AsDouble_Copy+0x21>
    4aba:	45 85 f6             	test   %r14d,%r14d
    4abd:	75 ea                	jne    4aa9 <__Pyx__PyUnicode_AsDouble_Copy+0x57>
    4abf:	c6 03 00             	movb   $0x0,(%rbx)
    4ac2:	5a                   	pop    %rdx
    4ac3:	48 89 d8             	mov    %rbx,%rax
    4ac6:	5b                   	pop    %rbx
    4ac7:	5d                   	pop    %rbp
    4ac8:	41 5c                	pop    %r12
    4aca:	41 5d                	pop    %r13
    4acc:	41 5e                	pop    %r14
    4ace:	41 5f                	pop    %r15
    4ad0:	c3                   	ret

0000000000004ad1 <__Pyx__PyObject_LookupSpecial.constprop.0>:
    4ad1:	41 55                	push   %r13
    4ad3:	41 54                	push   %r12
    4ad5:	49 89 fc             	mov    %rdi,%r12
    4ad8:	53                   	push   %rbx
    4ad9:	48 83 ec 10          	sub    $0x10,%rsp
    4add:	4c 8b 6f 08          	mov    0x8(%rdi),%r13
    4ae1:	48 89 74 24 08       	mov    %rsi,0x8(%rsp)
    4ae6:	4c 89 ef             	mov    %r13,%rdi
    4ae9:	e8 72 fc ff ff       	call   4760 <_PyType_Lookup@plt>
    4aee:	48 8b 74 24 08       	mov    0x8(%rsp),%rsi
    4af3:	48 85 c0             	test   %rax,%rax
    4af6:	48 89 c3             	mov    %rax,%rbx
    4af9:	74 2e                	je     4b29 <__Pyx__PyObject_LookupSpecial.constprop.0+0x58>
    4afb:	48 8b 40 08          	mov    0x8(%rax),%rax
    4aff:	48 8b 80 10 01 00 00 	mov    0x110(%rax),%rax
    4b06:	48 85 c0             	test   %rax,%rax
    4b09:	75 0a                	jne    4b15 <__Pyx__PyObject_LookupSpecial.constprop.0+0x44>
    4b0b:	8b 03                	mov    (%rbx),%eax
    4b0d:	ff c0                	inc    %eax
    4b0f:	74 24                	je     4b35 <__Pyx__PyObject_LookupSpecial.constprop.0+0x64>
    4b11:	89 03                	mov    %eax,(%rbx)
    4b13:	eb 20                	jmp    4b35 <__Pyx__PyObject_LookupSpecial.constprop.0+0x64>
    4b15:	48 83 c4 10          	add    $0x10,%rsp
    4b19:	4c 89 ea             	mov    %r13,%rdx
    4b1c:	4c 89 e6             	mov    %r12,%rsi
    4b1f:	48 89 df             	mov    %rbx,%rdi
    4b22:	5b                   	pop    %rbx
    4b23:	41 5c                	pop    %r12
    4b25:	41 5d                	pop    %r13
    4b27:	ff e0                	jmp    *%rax
    4b29:	48 8b 3d 08 2f 01 00 	mov    0x12f08(%rip),%rdi        # 17a38 <PyExc_AttributeError@@Base>
    4b30:	e8 1b f8 ff ff       	call   4350 <PyErr_SetObject@plt>
    4b35:	48 83 c4 10          	add    $0x10,%rsp
    4b39:	48 89 d8             	mov    %rbx,%rax
    4b3c:	5b                   	pop    %rbx
    4b3d:	41 5c                	pop    %r12
    4b3f:	41 5d                	pop    %r13
    4b41:	c3                   	ret

0000000000004b42 <__Pyx_PyCode_New.constprop.0>:
    4b42:	41 57                	push   %r15
    4b44:	41 56                	push   %r14
    4b46:	49 89 ce             	mov    %rcx,%r14
    4b49:	41 55                	push   %r13
    4b4b:	49 89 d5             	mov    %rdx,%r13
    4b4e:	41 54                	push   %r12
    4b50:	41 89 f4             	mov    %esi,%r12d
    4b53:	31 f6                	xor    %esi,%esi
    4b55:	55                   	push   %rbp
    4b56:	89 fd                	mov    %edi,%ebp
    4b58:	48 8d 3d 4e dc 00 00 	lea    0xdc4e(%rip),%rdi        # 127ad <_IO_stdin_used+0x7ad>
    4b5f:	53                   	push   %rbx
    4b60:	48 83 ec 18          	sub    $0x18,%rsp
    4b64:	4c 89 44 24 08       	mov    %r8,0x8(%rsp)
    4b69:	4c 8b 7c 24 68       	mov    0x68(%rsp),%r15
    4b6e:	4c 89 0c 24          	mov    %r9,(%rsp)
    4b72:	e8 29 fa ff ff       	call   45a0 <PyBytes_FromStringAndSize@plt>
    4b77:	48 89 c3             	mov    %rax,%rbx
    4b7a:	48 85 c0             	test   %rax,%rax
    4b7d:	74 77                	je     4bf6 <__Pyx_PyCode_New.constprop.0+0xb4>
    4b7f:	50                   	push   %rax
    4b80:	31 d2                	xor    %edx,%edx
    4b82:	89 ef                	mov    %ebp,%edi
    4b84:	44 89 e1             	mov    %r12d,%ecx
    4b87:	ff b4 24 80 00 00 00 	push   0x80(%rsp)
    4b8e:	8b 84 24 80 00 00 00 	mov    0x80(%rsp),%eax
    4b95:	31 f6                	xor    %esi,%esi
    4b97:	50                   	push   %rax
    4b98:	41 57                	push   %r15
    4b9a:	41 57                	push   %r15
    4b9c:	ff b4 24 88 00 00 00 	push   0x88(%rsp)
    4ba3:	ff b4 24 88 00 00 00 	push   0x88(%rsp)
    4baa:	ff b4 24 88 00 00 00 	push   0x88(%rsp)
    4bb1:	4c 8b 4c 24 40       	mov    0x40(%rsp),%r9
    4bb6:	41 51                	push   %r9
    4bb8:	4c 8b 44 24 50       	mov    0x50(%rsp),%r8
    4bbd:	41 b9 03 00 00 00    	mov    $0x3,%r9d
    4bc3:	41 50                	push   %r8
    4bc5:	45 31 c0             	xor    %r8d,%r8d
    4bc8:	41 56                	push   %r14
    4bca:	41 55                	push   %r13
    4bcc:	e8 2f f6 ff ff       	call   4200 <PyUnstable_Code_NewWithPosOnlyArgs@plt>
    4bd1:	48 8b 13             	mov    (%rbx),%rdx
    4bd4:	48 83 c4 60          	add    $0x60,%rsp
    4bd8:	48 89 c5             	mov    %rax,%rbp
    4bdb:	85 d2                	test   %edx,%edx
    4bdd:	78 08                	js     4be7 <__Pyx_PyCode_New.constprop.0+0xa5>
    4bdf:	48 ff ca             	dec    %rdx
    4be2:	48 89 13             	mov    %rdx,(%rbx)
    4be5:	74 05                	je     4bec <__Pyx_PyCode_New.constprop.0+0xaa>
    4be7:	48 89 eb             	mov    %rbp,%rbx
    4bea:	eb 0a                	jmp    4bf6 <__Pyx_PyCode_New.constprop.0+0xb4>
    4bec:	48 89 df             	mov    %rbx,%rdi
    4bef:	e8 5c fa ff ff       	call   4650 <_Py_Dealloc@plt>
    4bf4:	eb f1                	jmp    4be7 <__Pyx_PyCode_New.constprop.0+0xa5>
    4bf6:	48 83 c4 18          	add    $0x18,%rsp
    4bfa:	48 89 d8             	mov    %rbx,%rax
    4bfd:	5b                   	pop    %rbx
    4bfe:	5d                   	pop    %rbp
    4bff:	41 5c                	pop    %r12
    4c01:	41 5d                	pop    %r13
    4c03:	41 5e                	pop    %r14
    4c05:	41 5f                	pop    %r15
    4c07:	c3                   	ret

0000000000004c08 <__Pyx_SlowPyString_AsDouble>:
    4c08:	53                   	push   %rbx
    4c09:	48 83 ec 10          	sub    $0x10,%rsp
    4c0d:	e8 9e f5 ff ff       	call   41b0 <PyFloat_FromString@plt>
    4c12:	f2 0f 10 05 36 ea 00 	movsd  0xea36(%rip),%xmm0        # 13650 <__pyx_k_1+0x2>
    4c19:	00 
    4c1a:	48 85 c0             	test   %rax,%rax
    4c1d:	74 2e                	je     4c4d <__Pyx_SlowPyString_AsDouble+0x45>
    4c1f:	48 89 c3             	mov    %rax,%rbx
    4c22:	48 89 c7             	mov    %rax,%rdi
    4c25:	e8 b7 7a 00 00       	call   c6e1 <PyFloat_AS_DOUBLE>
    4c2a:	48 8b 03             	mov    (%rbx),%rax
    4c2d:	85 c0                	test   %eax,%eax
    4c2f:	78 1c                	js     4c4d <__Pyx_SlowPyString_AsDouble+0x45>
    4c31:	48 ff c8             	dec    %rax
    4c34:	48 89 03             	mov    %rax,(%rbx)
    4c37:	75 14                	jne    4c4d <__Pyx_SlowPyString_AsDouble+0x45>
    4c39:	48 89 df             	mov    %rbx,%rdi
    4c3c:	f2 0f 11 44 24 08    	movsd  %xmm0,0x8(%rsp)
    4c42:	e8 09 fa ff ff       	call   4650 <_Py_Dealloc@plt>
    4c47:	f2 0f 10 44 24 08    	movsd  0x8(%rsp),%xmm0
    4c4d:	48 83 c4 10          	add    $0x10,%rsp
    4c51:	5b                   	pop    %rbx
    4c52:	c3                   	ret

0000000000004c53 <__Pyx_PyFloat_TrueDivideObjC.constprop.0>:
    4c53:	53                   	push   %rbx
    4c54:	48 8d 15 45 25 01 00 	lea    0x12545(%rip),%rdx        # 171a0 <PyFloat_Type@@Base>
    4c5b:	48 83 ec 10          	sub    $0x10,%rsp
    4c5f:	48 8b 47 08          	mov    0x8(%rdi),%rax
    4c63:	48 39 d0             	cmp    %rdx,%rax
    4c66:	75 0a                	jne    4c72 <__Pyx_PyFloat_TrueDivideObjC.constprop.0+0x1f>
    4c68:	e8 74 7a 00 00       	call   c6e1 <PyFloat_AS_DOUBLE>
    4c6d:	e9 c7 00 00 00       	jmp    4d39 <__Pyx_PyFloat_TrueDivideObjC.constprop.0+0xe6>
    4c72:	48 8d 15 07 2c 01 00 	lea    0x12c07(%rip),%rdx        # 17880 <PyLong_Type@@Base>
    4c79:	48 39 d0             	cmp    %rdx,%rax
    4c7c:	0f 85 ad 00 00 00    	jne    4d2f <__Pyx_PyFloat_TrueDivideObjC.constprop.0+0xdc>
    4c82:	48 8b 5f 10          	mov    0x10(%rdi),%rbx
    4c86:	0f 57 c0             	xorps  %xmm0,%xmm0
    4c89:	f6 c3 01             	test   $0x1,%bl
    4c8c:	0f 85 a7 00 00 00    	jne    4d39 <__Pyx_PyFloat_TrueDivideObjC.constprop.0+0xe6>
    4c92:	48 89 7c 24 08       	mov    %rdi,0x8(%rsp)
    4c97:	e8 08 75 00 00       	call   c1a4 <_PyLong_IsCompact>
    4c9c:	48 8b 7c 24 08       	mov    0x8(%rsp),%rdi
    4ca1:	85 c0                	test   %eax,%eax
    4ca3:	74 0f                	je     4cb4 <__Pyx_PyFloat_TrueDivideObjC.constprop.0+0x61>
    4ca5:	e8 32 75 00 00       	call   c1dc <_PyLong_CompactValue>
    4caa:	f2 48 0f 2a c0       	cvtsi2sd %rax,%xmm0
    4caf:	e9 85 00 00 00       	jmp    4d39 <__Pyx_PyFloat_TrueDivideObjC.constprop.0+0xe6>
    4cb4:	48 89 da             	mov    %rbx,%rdx
    4cb7:	b8 01 00 00 00       	mov    $0x1,%eax
    4cbc:	48 c1 eb 03          	shr    $0x3,%rbx
    4cc0:	83 e2 03             	and    $0x3,%edx
    4cc3:	48 29 d0             	sub    %rdx,%rax
    4cc6:	48 0f af c3          	imul   %rbx,%rax
    4cca:	48 8d 50 02          	lea    0x2(%rax),%rdx
    4cce:	48 f7 c2 fb ff ff ff 	test   $0xfffffffffffffffb,%rdx
    4cd5:	75 2f                	jne    4d06 <__Pyx_PyFloat_TrueDivideObjC.constprop.0+0xb3>
    4cd7:	8b 57 1c             	mov    0x1c(%rdi),%edx
    4cda:	8b 4f 18             	mov    0x18(%rdi),%ecx
    4cdd:	f2 0f 10 0d 73 e9 00 	movsd  0xe973(%rip),%xmm1        # 13658 <__pyx_k_1+0xa>
    4ce4:	00 
    4ce5:	48 c1 e2 1e          	shl    $0x1e,%rdx
    4ce9:	48 09 ca             	or     %rcx,%rdx
    4cec:	f2 48 0f 2a c2       	cvtsi2sd %rdx,%xmm0
    4cf1:	66 0f 2f c8          	comisd %xmm0,%xmm1
    4cf5:	76 0f                	jbe    4d06 <__Pyx_PyFloat_TrueDivideObjC.constprop.0+0xb3>
    4cf7:	48 83 f8 fe          	cmp    $0xfffffffffffffffe,%rax
    4cfb:	75 3c                	jne    4d39 <__Pyx_PyFloat_TrueDivideObjC.constprop.0+0xe6>
    4cfd:	0f 57 05 8c e9 00 00 	xorps  0xe98c(%rip),%xmm0        # 13690 <__pyx_k_1+0x42>
    4d04:	eb 33                	jmp    4d39 <__Pyx_PyFloat_TrueDivideObjC.constprop.0+0xe6>
    4d06:	e8 25 f6 ff ff       	call   4330 <PyLong_AsDouble@plt>
    4d0b:	66 0f 2e 05 3d e9 00 	ucomisd 0xe93d(%rip),%xmm0        # 13650 <__pyx_k_1+0x2>
    4d12:	00 
    4d13:	7a 24                	jp     4d39 <__Pyx_PyFloat_TrueDivideObjC.constprop.0+0xe6>
    4d15:	75 22                	jne    4d39 <__Pyx_PyFloat_TrueDivideObjC.constprop.0+0xe6>
    4d17:	f2 0f 11 44 24 08    	movsd  %xmm0,0x8(%rsp)
    4d1d:	e8 ce f5 ff ff       	call   42f0 <PyErr_Occurred@plt>
    4d22:	f2 0f 10 44 24 08    	movsd  0x8(%rsp),%xmm0
    4d28:	48 85 c0             	test   %rax,%rax
    4d2b:	74 0c                	je     4d39 <__Pyx_PyFloat_TrueDivideObjC.constprop.0+0xe6>
    4d2d:	eb 1c                	jmp    4d4b <__Pyx_PyFloat_TrueDivideObjC.constprop.0+0xf8>
    4d2f:	48 83 c4 10          	add    $0x10,%rsp
    4d33:	5b                   	pop    %rbx
    4d34:	e9 d7 f9 ff ff       	jmp    4710 <PyNumber_TrueDivide@plt>
    4d39:	f2 0f 5e 05 1f e9 00 	divsd  0xe91f(%rip),%xmm0        # 13660 <__pyx_k_1+0x12>
    4d40:	00 
    4d41:	48 83 c4 10          	add    $0x10,%rsp
    4d45:	5b                   	pop    %rbx
    4d46:	e9 55 f5 ff ff       	jmp    42a0 <PyFloat_FromDouble@plt>
    4d4b:	48 83 c4 10          	add    $0x10,%rsp
    4d4f:	31 c0                	xor    %eax,%eax
    4d51:	5b                   	pop    %rbx
    4d52:	c3                   	ret

0000000000004d53 <__Pyx_CreateStringTabAndInitStrings.isra.0>:
    4d53:	55                   	push   %rbp
    4d54:	31 d2                	xor    %edx,%edx
    4d56:	31 c9                	xor    %ecx,%ecx
    4d58:	31 f6                	xor    %esi,%esi
    4d5a:	53                   	push   %rbx
    4d5b:	31 ff                	xor    %edi,%edi
    4d5d:	45 31 c0             	xor    %r8d,%r8d
    4d60:	45 31 c9             	xor    %r9d,%r9d
    4d63:	45 31 d2             	xor    %r10d,%r10d
    4d66:	45 31 db             	xor    %r11d,%r11d
    4d69:	31 db                	xor    %ebx,%ebx
    4d6b:	31 ed                	xor    %ebp,%ebp
    4d6d:	48 81 ec 08 10 00 00 	sub    $0x1008,%rsp
    4d74:	64 48 8b 04 25 28 00 	mov    %fs:0x28,%rax
    4d7b:	00 00 
    4d7d:	48 89 84 24 f8 0f 00 	mov    %rax,0xff8(%rsp)
    4d84:	00 
    4d85:	48 8d 05 0c 2f 01 00 	lea    0x12f0c(%rip),%rax        # 17c98 <__pyx_mstate_global_static+0x38>
    4d8c:	48 89 54 24 48       	mov    %rdx,0x48(%rsp)
    4d91:	31 d2                	xor    %edx,%edx
    4d93:	48 89 4c 24 70       	mov    %rcx,0x70(%rsp)
    4d98:	31 c9                	xor    %ecx,%ecx
    4d9a:	48 89 b4 24 98 00 00 	mov    %rsi,0x98(%rsp)
    4da1:	00 
    4da2:	31 f6                	xor    %esi,%esi
    4da4:	48 c7 44 24 18 02 00 	movq   $0x2,0x18(%rsp)
    4dab:	00 00 
    4dad:	66 c7 44 24 28 00 01 	movw   $0x100,0x28(%rsp)
    4db4:	c6 44 24 2a 00       	movb   $0x0,0x2a(%rsp)
    4db9:	48 89 44 24 08       	mov    %rax,0x8(%rsp)
    4dbe:	48 8d 05 89 e8 00 00 	lea    0xe889(%rip),%rax        # 1364e <__pyx_k_1>
    4dc5:	48 89 44 24 10       	mov    %rax,0x10(%rsp)
    4dca:	31 c0                	xor    %eax,%eax
    4dcc:	48 89 44 24 20       	mov    %rax,0x20(%rsp)
    4dd1:	48 8d 05 c8 2e 01 00 	lea    0x12ec8(%rip),%rax        # 17ca0 <__pyx_mstate_global_static+0x40>
    4dd8:	48 89 44 24 30       	mov    %rax,0x30(%rsp)
    4ddd:	48 8d 05 68 e8 00 00 	lea    0xe868(%rip),%rax        # 1364c <__pyx_k_2>
    4de4:	48 89 44 24 38       	mov    %rax,0x38(%rsp)
    4de9:	48 8d 05 b8 2e 01 00 	lea    0x12eb8(%rip),%rax        # 17ca8 <__pyx_mstate_global_static+0x48>
    4df0:	48 89 44 24 58       	mov    %rax,0x58(%rsp)
    4df5:	48 8d 05 e4 e5 00 00 	lea    0xe5e4(%rip),%rax        # 133e0 <__pyx_k_Connected_to>
    4dfc:	48 89 44 24 60       	mov    %rax,0x60(%rsp)
    4e01:	48 8d 05 a8 2e 01 00 	lea    0x12ea8(%rip),%rax        # 17cb0 <__pyx_mstate_global_static+0x50>
    4e08:	48 89 84 24 80 00 00 	mov    %rax,0x80(%rsp)
    4e0f:	00 
    4e10:	48 8d 05 19 e4 00 00 	lea    0xe419(%rip),%rax        # 13230 <__pyx_k_Failed_to_connect>
    4e17:	48 89 84 24 88 00 00 	mov    %rax,0x88(%rsp)
    4e1e:	00 
    4e1f:	48 8d 05 92 2e 01 00 	lea    0x12e92(%rip),%rax        # 17cb8 <__pyx_mstate_global_static+0x58>
    4e26:	48 c7 44 24 40 02 00 	movq   $0x2,0x40(%rsp)
    4e2d:	00 00 
    4e2f:	66 c7 44 24 50 00 01 	movw   $0x100,0x50(%rsp)
    4e36:	c6 44 24 52 00       	movb   $0x0,0x52(%rsp)
    4e3b:	48 c7 44 24 68 0e 00 	movq   $0xe,0x68(%rsp)
    4e42:	00 00 
    4e44:	66 c7 44 24 78 01 00 	movw   $0x1,0x78(%rsp)
    4e4b:	c6 44 24 7a 00       	movb   $0x0,0x7a(%rsp)
    4e50:	48 c7 84 24 90 00 00 	movq   $0x12,0x90(%rsp)
    4e57:	00 12 00 00 00 
    4e5c:	66 c7 84 24 a0 00 00 	movw   $0x100,0xa0(%rsp)
    4e63:	00 00 01 
    4e66:	c6 84 24 a2 00 00 00 	movb   $0x0,0xa2(%rsp)
    4e6d:	00 
    4e6e:	48 89 84 24 a8 00 00 	mov    %rax,0xa8(%rsp)
    4e75:	00 
    4e76:	48 8d 05 f4 e6 00 00 	lea    0xe6f4(%rip),%rax        # 13571 <__pyx_k_Serial>
    4e7d:	48 89 84 24 b0 00 00 	mov    %rax,0xb0(%rsp)
    4e84:	00 
    4e85:	48 8d 05 34 2e 01 00 	lea    0x12e34(%rip),%rax        # 17cc0 <__pyx_mstate_global_static+0x60>
    4e8c:	48 89 84 24 d0 00 00 	mov    %rax,0xd0(%rsp)
    4e93:	00 
    4e94:	48 8d 05 75 e4 00 00 	lea    0xe475(%rip),%rax        # 13310 <__pyx_k_SerialException>
    4e9b:	48 89 84 24 d8 00 00 	mov    %rax,0xd8(%rsp)
    4ea2:	00 
    4ea3:	48 8d 05 1e 2e 01 00 	lea    0x12e1e(%rip),%rax        # 17cc8 <__pyx_mstate_global_static+0x68>
    4eaa:	48 89 84 24 f8 00 00 	mov    %rax,0xf8(%rsp)
    4eb1:	00 
    4eb2:	48 8d 05 77 e5 00 00 	lea    0xe577(%rip),%rax        # 13430 <__pyx_k_Zamonarypad>
    4eb9:	48 89 84 24 00 01 00 	mov    %rax,0x100(%rsp)
    4ec0:	00 
    4ec1:	48 8d 05 08 2e 01 00 	lea    0x12e08(%rip),%rax        # 17cd0 <__pyx_mstate_global_static+0x70>
    4ec8:	48 89 84 24 20 01 00 	mov    %rax,0x120(%rsp)
    4ecf:	00 
    4ed0:	48 8d 05 6e e7 00 00 	lea    0xe76e(%rip),%rax        # 13645 <__pyx_k__21>
    4ed7:	48 89 84 24 28 01 00 	mov    %rax,0x128(%rsp)
    4ede:	00 
    4edf:	48 8d 05 f2 2d 01 00 	lea    0x12df2(%rip),%rax        # 17cd8 <__pyx_mstate_global_static+0x78>
    4ee6:	48 89 84 24 48 01 00 	mov    %rax,0x148(%rsp)
    4eed:	00 
    4eee:	48 8d 05 56 e7 00 00 	lea    0xe756(%rip),%rax        # 1364b <__pyx_k__3>
    4ef5:	48 89 84 24 50 01 00 	mov    %rax,0x150(%rsp)
    4efc:	00 
    4efd:	48 8d 05 dc 2d 01 00 	lea    0x12ddc(%rip),%rax        # 17ce0 <__pyx_mstate_global_static+0x80>
    4f04:	48 89 84 24 70 01 00 	mov    %rax,0x170(%rsp)
    4f0b:	00 
    4f0c:	48 8d 05 36 e7 00 00 	lea    0xe736(%rip),%rax        # 13649 <__pyx_k__4>
    4f13:	48 89 84 24 78 01 00 	mov    %rax,0x178(%rsp)
    4f1a:	00 
    4f1b:	48 8d 05 c6 2d 01 00 	lea    0x12dc6(%rip),%rax        # 17ce8 <__pyx_mstate_global_static+0x88>
    4f22:	48 89 bc 24 c0 00 00 	mov    %rdi,0xc0(%rsp)
    4f29:	00 
    4f2a:	31 ff                	xor    %edi,%edi
    4f2c:	4c 89 84 24 e8 00 00 	mov    %r8,0xe8(%rsp)
    4f33:	00 
    4f34:	45 31 c0             	xor    %r8d,%r8d
    4f37:	4c 89 8c 24 10 01 00 	mov    %r9,0x110(%rsp)
    4f3e:	00 
    4f3f:	45 31 c9             	xor    %r9d,%r9d
    4f42:	4c 89 94 24 38 01 00 	mov    %r10,0x138(%rsp)
    4f49:	00 
    4f4a:	45 31 d2             	xor    %r10d,%r10d
    4f4d:	4c 89 9c 24 60 01 00 	mov    %r11,0x160(%rsp)
    4f54:	00 
    4f55:	45 31 db             	xor    %r11d,%r11d
    4f58:	48 c7 84 24 b8 00 00 	movq   $0x7,0xb8(%rsp)
    4f5f:	00 07 00 00 00 
    4f64:	66 c7 84 24 c8 00 00 	movw   $0x100,0xc8(%rsp)
    4f6b:	00 00 01 
    4f6e:	c6 84 24 ca 00 00 00 	movb   $0x1,0xca(%rsp)
    4f75:	01 
    4f76:	48 c7 84 24 e0 00 00 	movq   $0x10,0xe0(%rsp)
    4f7d:	00 10 00 00 00 
    4f82:	66 c7 84 24 f0 00 00 	movw   $0x100,0xf0(%rsp)
    4f89:	00 00 01 
    4f8c:	c6 84 24 f2 00 00 00 	movb   $0x1,0xf2(%rsp)
    4f93:	01 
    4f94:	48 c7 84 24 08 01 00 	movq   $0xc,0x108(%rsp)
    4f9b:	00 0c 00 00 00 
    4fa0:	66 c7 84 24 18 01 00 	movw   $0x100,0x118(%rsp)
    4fa7:	00 00 01 
    4faa:	c6 84 24 1a 01 00 00 	movb   $0x1,0x11a(%rsp)
    4fb1:	01 
    4fb2:	48 c7 84 24 30 01 00 	movq   $0x2,0x130(%rsp)
    4fb9:	00 02 00 00 00 
    4fbe:	66 c7 84 24 40 01 00 	movw   $0x100,0x140(%rsp)
    4fc5:	00 00 01 
    4fc8:	c6 84 24 42 01 00 00 	movb   $0x1,0x142(%rsp)
    4fcf:	01 
    4fd0:	48 c7 84 24 58 01 00 	movq   $0x1,0x158(%rsp)
    4fd7:	00 01 00 00 00 
    4fdc:	66 c7 84 24 68 01 00 	movw   $0x100,0x168(%rsp)
    4fe3:	00 00 01 
    4fe6:	c6 84 24 6a 01 00 00 	movb   $0x0,0x16a(%rsp)
    4fed:	00 
    4fee:	48 c7 84 24 80 01 00 	movq   $0x2,0x180(%rsp)
    4ff5:	00 02 00 00 00 
    4ffa:	48 89 9c 24 88 01 00 	mov    %rbx,0x188(%rsp)
    5001:	00 
    5002:	31 db                	xor    %ebx,%ebx
    5004:	48 89 84 24 98 01 00 	mov    %rax,0x198(%rsp)
    500b:	00 
    500c:	48 8d 05 34 e6 00 00 	lea    0xe634(%rip),%rax        # 13647 <__pyx_k__6>
    5013:	48 89 84 24 a0 01 00 	mov    %rax,0x1a0(%rsp)
    501a:	00 
    501b:	48 8d 05 ce 2c 01 00 	lea    0x12cce(%rip),%rax        # 17cf0 <__pyx_mstate_global_static+0x90>
    5022:	48 89 84 24 c0 01 00 	mov    %rax,0x1c0(%rsp)
    5029:	00 
    502a:	48 8d 05 3f e4 00 00 	lea    0xe43f(%rip),%rax        # 13470 <__pyx_k_add_button>
    5031:	48 89 84 24 c8 01 00 	mov    %rax,0x1c8(%rsp)
    5038:	00 
    5039:	31 c0                	xor    %eax,%eax
    503b:	48 89 84 24 d8 01 00 	mov    %rax,0x1d8(%rsp)
    5042:	00 
    5043:	48 8d 05 ae 2c 01 00 	lea    0x12cae(%rip),%rax        # 17cf8 <__pyx_mstate_global_static+0x98>
    504a:	48 89 84 24 e8 01 00 	mov    %rax,0x1e8(%rsp)
    5051:	00 
    5052:	48 8d 05 57 e4 00 00 	lea    0xe457(%rip),%rax        # 134b0 <__pyx_k_add_combo>
    5059:	48 89 84 24 f0 01 00 	mov    %rax,0x1f0(%rsp)
    5060:	00 
    5061:	31 c0                	xor    %eax,%eax
    5063:	48 89 84 24 00 02 00 	mov    %rax,0x200(%rsp)
    506a:	00 
    506b:	48 8d 05 8e 2c 01 00 	lea    0x12c8e(%rip),%rax        # 17d00 <__pyx_mstate_global_static+0xa0>
    5072:	48 89 84 24 10 02 00 	mov    %rax,0x210(%rsp)
    5079:	00 
    507a:	48 8d 05 2f e2 00 00 	lea    0xe22f(%rip),%rax        # 132b0 <__pyx_k_add_progress_bar>
    5081:	48 89 84 24 18 02 00 	mov    %rax,0x218(%rsp)
    5088:	00 
    5089:	31 c0                	xor    %eax,%eax
    508b:	48 89 84 24 28 02 00 	mov    %rax,0x228(%rsp)
    5092:	00 
    5093:	48 8d 05 6e 2c 01 00 	lea    0x12c6e(%rip),%rax        # 17d08 <__pyx_mstate_global_static+0xa8>
    509a:	48 89 84 24 38 02 00 	mov    %rax,0x238(%rsp)
    50a1:	00 
    50a2:	48 8d 05 57 e4 00 00 	lea    0xe457(%rip),%rax        # 13500 <__pyx_k_add_text>
    50a9:	48 89 84 24 40 02 00 	mov    %rax,0x240(%rsp)
    50b0:	00 
    50b1:	31 c0                	xor    %eax,%eax
    50b3:	48 89 84 24 50 02 00 	mov    %rax,0x250(%rsp)
    50ba:	00 
    50bb:	48 8d 05 4e 2c 01 00 	lea    0x12c4e(%rip),%rax        # 17d10 <__pyx_mstate_global_static+0xb0>
    50c2:	48 89 ac 24 b0 01 00 	mov    %rbp,0x1b0(%rsp)
    50c9:	00 
    50ca:	31 ed                	xor    %ebp,%ebp
    50cc:	66 c7 84 24 90 01 00 	movw   $0x1,0x190(%rsp)
    50d3:	00 01 00 
    50d6:	c6 84 24 92 01 00 00 	movb   $0x0,0x192(%rsp)
    50dd:	00 
    50de:	48 c7 84 24 a8 01 00 	movq   $0x2,0x1a8(%rsp)
    50e5:	00 02 00 00 00 
    50ea:	66 c7 84 24 b8 01 00 	movw   $0x100,0x1b8(%rsp)
    50f1:	00 00 01 
    50f4:	c6 84 24 ba 01 00 00 	movb   $0x1,0x1ba(%rsp)
    50fb:	01 
    50fc:	48 c7 84 24 d0 01 00 	movq   $0xb,0x1d0(%rsp)
    5103:	00 0b 00 00 00 
    5108:	66 c7 84 24 e0 01 00 	movw   $0x100,0x1e0(%rsp)
    510f:	00 00 01 
    5112:	c6 84 24 e2 01 00 00 	movb   $0x1,0x1e2(%rsp)
    5119:	01 
    511a:	48 c7 84 24 f8 01 00 	movq   $0xa,0x1f8(%rsp)
    5121:	00 0a 00 00 00 
    5126:	66 c7 84 24 08 02 00 	movw   $0x100,0x208(%rsp)
    512d:	00 00 01 
    5130:	c6 84 24 0a 02 00 00 	movb   $0x1,0x20a(%rsp)
    5137:	01 
    5138:	48 c7 84 24 20 02 00 	movq   $0x11,0x220(%rsp)
    513f:	00 11 00 00 00 
    5144:	66 c7 84 24 30 02 00 	movw   $0x100,0x230(%rsp)
    514b:	00 00 01 
    514e:	c6 84 24 32 02 00 00 	movb   $0x1,0x232(%rsp)
    5155:	01 
    5156:	48 c7 84 24 48 02 00 	movq   $0x9,0x248(%rsp)
    515d:	00 09 00 00 00 
    5162:	66 c7 84 24 58 02 00 	movw   $0x100,0x258(%rsp)
    5169:	00 00 01 
    516c:	c6 84 24 5a 02 00 00 	movb   $0x1,0x25a(%rsp)
    5173:	01 
    5174:	48 89 84 24 60 02 00 	mov    %rax,0x260(%rsp)
    517b:	00 
    517c:	48 8d 05 4d e0 00 00 	lea    0xe04d(%rip),%rax        # 131d0 <__pyx_k_asyncio_coroutines>
    5183:	48 89 84 24 68 02 00 	mov    %rax,0x268(%rsp)
    518a:	00 
    518b:	31 c0                	xor    %eax,%eax
    518d:	48 89 84 24 78 02 00 	mov    %rax,0x278(%rsp)
    5194:	00 
    5195:	48 8d 05 7c 2b 01 00 	lea    0x12b7c(%rip),%rax        # 17d18 <__pyx_mstate_global_static+0xb8>
    519c:	48 89 84 24 88 02 00 	mov    %rax,0x288(%rsp)
    51a3:	00 
    51a4:	48 8d 05 75 e2 00 00 	lea    0xe275(%rip),%rax        # 13420 <__pyx_k_button1sens>
    51ab:	48 89 84 24 90 02 00 	mov    %rax,0x290(%rsp)
    51b2:	00 
    51b3:	48 8d 05 66 2b 01 00 	lea    0x12b66(%rip),%rax        # 17d20 <__pyx_mstate_global_static+0xc0>
    51ba:	48 89 84 24 b0 02 00 	mov    %rax,0x2b0(%rsp)
    51c1:	00 
    51c2:	48 8d 05 97 e2 00 00 	lea    0xe297(%rip),%rax        # 13460 <__pyx_k_button1val>
    51c9:	48 89 84 24 b8 02 00 	mov    %rax,0x2b8(%rsp)
    51d0:	00 
    51d1:	48 8d 05 50 2b 01 00 	lea    0x12b50(%rip),%rax        # 17d28 <__pyx_mstate_global_static+0xc8>
    51d8:	48 89 84 24 d8 02 00 	mov    %rax,0x2d8(%rsp)
    51df:	00 
    51e0:	48 8d 05 29 e2 00 00 	lea    0xe229(%rip),%rax        # 13410 <__pyx_k_button2sens>
    51e7:	48 89 84 24 e0 02 00 	mov    %rax,0x2e0(%rsp)
    51ee:	00 
    51ef:	48 8d 05 3a 2b 01 00 	lea    0x12b3a(%rip),%rax        # 17d30 <__pyx_mstate_global_static+0xd0>
    51f6:	48 89 84 24 00 03 00 	mov    %rax,0x300(%rsp)
    51fd:	00 
    51fe:	48 8d 05 4b e2 00 00 	lea    0xe24b(%rip),%rax        # 13450 <__pyx_k_button2val>
    5205:	48 89 84 24 08 03 00 	mov    %rax,0x308(%rsp)
    520c:	00 
    520d:	48 8d 05 24 2b 01 00 	lea    0x12b24(%rip),%rax        # 17d38 <__pyx_mstate_global_static+0xd8>
    5214:	48 89 84 24 28 03 00 	mov    %rax,0x328(%rsp)
    521b:	00 
    521c:	48 8d 05 dd e1 00 00 	lea    0xe1dd(%rip),%rax        # 13400 <__pyx_k_calibrate_1>
    5223:	48 89 84 24 30 03 00 	mov    %rax,0x330(%rsp)
    522a:	00 
    522b:	48 8d 05 0e 2b 01 00 	lea    0x12b0e(%rip),%rax        # 17d40 <__pyx_mstate_global_static+0xe0>
    5232:	48 89 94 24 a0 02 00 	mov    %rdx,0x2a0(%rsp)
    5239:	00 
    523a:	48 89 8c 24 c8 02 00 	mov    %rcx,0x2c8(%rsp)
    5241:	00 
    5242:	48 89 b4 24 f0 02 00 	mov    %rsi,0x2f0(%rsp)
    5249:	00 
    524a:	48 89 bc 24 18 03 00 	mov    %rdi,0x318(%rsp)
    5251:	00 
    5252:	48 c7 84 24 70 02 00 	movq   $0x13,0x270(%rsp)
    5259:	00 13 00 00 00 
    525e:	66 c7 84 24 80 02 00 	movw   $0x100,0x280(%rsp)
    5265:	00 00 01 
    5268:	c6 84 24 82 02 00 00 	movb   $0x1,0x282(%rsp)
    526f:	01 
    5270:	48 c7 84 24 98 02 00 	movq   $0xc,0x298(%rsp)
    5277:	00 0c 00 00 00 
    527c:	66 c7 84 24 a8 02 00 	movw   $0x100,0x2a8(%rsp)
    5283:	00 00 01 
    5286:	c6 84 24 aa 02 00 00 	movb   $0x1,0x2aa(%rsp)
    528d:	01 
    528e:	48 c7 84 24 c0 02 00 	movq   $0xb,0x2c0(%rsp)
    5295:	00 0b 00 00 00 
    529a:	66 c7 84 24 d0 02 00 	movw   $0x100,0x2d0(%rsp)
    52a1:	00 00 01 
    52a4:	c6 84 24 d2 02 00 00 	movb   $0x1,0x2d2(%rsp)
    52ab:	01 
    52ac:	48 c7 84 24 e8 02 00 	movq   $0xc,0x2e8(%rsp)
    52b3:	00 0c 00 00 00 
    52b8:	66 c7 84 24 f8 02 00 	movw   $0x100,0x2f8(%rsp)
    52bf:	00 00 01 
    52c2:	c6 84 24 fa 02 00 00 	movb   $0x1,0x2fa(%rsp)
    52c9:	01 
    52ca:	48 c7 84 24 10 03 00 	movq   $0xb,0x310(%rsp)
    52d1:	00 0b 00 00 00 
    52d6:	66 c7 84 24 20 03 00 	movw   $0x100,0x320(%rsp)
    52dd:	00 00 01 
    52e0:	c6 84 24 22 03 00 00 	movb   $0x1,0x322(%rsp)
    52e7:	01 
    52e8:	48 c7 84 24 38 03 00 	movq   $0xc,0x338(%rsp)
    52ef:	00 0c 00 00 00 
    52f4:	4c 89 84 24 40 03 00 	mov    %r8,0x340(%rsp)
    52fb:	00 
    52fc:	48 89 84 24 50 03 00 	mov    %rax,0x350(%rsp)
    5303:	00 
    5304:	48 8d 05 f5 df 00 00 	lea    0xdff5(%rip),%rax        # 13300 <__pyx_k_calibrate_btn_1>
    530b:	48 89 84 24 58 03 00 	mov    %rax,0x358(%rsp)
    5312:	00 
    5313:	48 8d 05 2e 2a 01 00 	lea    0x12a2e(%rip),%rax        # 17d48 <__pyx_mstate_global_static+0xe8>
    531a:	48 89 84 24 78 03 00 	mov    %rax,0x378(%rsp)
    5321:	00 
    5322:	48 8d 05 c7 e1 00 00 	lea    0xe1c7(%rip),%rax        # 134f0 <__pyx_k_callback>
    5329:	48 89 84 24 80 03 00 	mov    %rax,0x380(%rsp)
    5330:	00 
    5331:	48 8d 05 18 2a 01 00 	lea    0x12a18(%rip),%rax        # 17d50 <__pyx_mstate_global_static+0xf0>
    5338:	48 89 84 24 a0 03 00 	mov    %rax,0x3a0(%rsp)
    533f:	00 
    5340:	48 8d 05 69 de 00 00 	lea    0xde69(%rip),%rax        # 131b0 <__pyx_k_cline_in_traceback>
    5347:	48 89 84 24 a8 03 00 	mov    %rax,0x3a8(%rsp)
    534e:	00 
    534f:	48 8d 05 02 2a 01 00 	lea    0x12a02(%rip),%rax        # 17d58 <__pyx_mstate_global_static+0xf8>
    5356:	48 89 84 24 c8 03 00 	mov    %rax,0x3c8(%rsp)
    535d:	00 
    535e:	48 8d 05 7b e1 00 00 	lea    0xe17b(%rip),%rax        # 134e0 <__pyx_k_comports>
    5365:	48 89 84 24 d0 03 00 	mov    %rax,0x3d0(%rsp)
    536c:	00 
    536d:	48 8d 05 ec 29 01 00 	lea    0x129ec(%rip),%rax        # 17d60 <__pyx_mstate_global_static+0x100>
    5374:	48 89 84 24 f0 03 00 	mov    %rax,0x3f0(%rsp)
    537b:	00 
    537c:	48 8d 05 ed df 00 00 	lea    0xdfed(%rip),%rax        # 13370 <__pyx_k_configure_item>
    5383:	48 89 84 24 f8 03 00 	mov    %rax,0x3f8(%rsp)
    538a:	00 
    538b:	48 8d 05 d6 29 01 00 	lea    0x129d6(%rip),%rax        # 17d68 <__pyx_mstate_global_static+0x108>
    5392:	4c 89 8c 24 68 03 00 	mov    %r9,0x368(%rsp)
    5399:	00 
    539a:	4c 89 94 24 90 03 00 	mov    %r10,0x390(%rsp)
    53a1:	00 
    53a2:	4c 89 9c 24 b8 03 00 	mov    %r11,0x3b8(%rsp)
    53a9:	00 
    53aa:	48 89 9c 24 e0 03 00 	mov    %rbx,0x3e0(%rsp)
    53b1:	00 
    53b2:	48 89 ac 24 08 04 00 	mov    %rbp,0x408(%rsp)
    53b9:	00 
    53ba:	66 c7 84 24 48 03 00 	movw   $0x100,0x348(%rsp)
    53c1:	00 00 01 
    53c4:	c6 84 24 4a 03 00 00 	movb   $0x0,0x34a(%rsp)
    53cb:	00 
    53cc:	48 c7 84 24 60 03 00 	movq   $0x10,0x360(%rsp)
    53d3:	00 10 00 00 00 
    53d8:	66 c7 84 24 70 03 00 	movw   $0x100,0x370(%rsp)
    53df:	00 00 01 
    53e2:	c6 84 24 72 03 00 00 	movb   $0x1,0x372(%rsp)
    53e9:	01 
    53ea:	48 c7 84 24 88 03 00 	movq   $0x9,0x388(%rsp)
    53f1:	00 09 00 00 00 
    53f6:	66 c7 84 24 98 03 00 	movw   $0x100,0x398(%rsp)
    53fd:	00 00 01 
    5400:	c6 84 24 9a 03 00 00 	movb   $0x1,0x39a(%rsp)
    5407:	01 
    5408:	48 c7 84 24 b0 03 00 	movq   $0x13,0x3b0(%rsp)
    540f:	00 13 00 00 00 
    5414:	66 c7 84 24 c0 03 00 	movw   $0x100,0x3c0(%rsp)
    541b:	00 00 01 
    541e:	c6 84 24 c2 03 00 00 	movb   $0x1,0x3c2(%rsp)
    5425:	01 
    5426:	48 c7 84 24 d8 03 00 	movq   $0x9,0x3d8(%rsp)
    542d:	00 09 00 00 00 
    5432:	66 c7 84 24 e8 03 00 	movw   $0x100,0x3e8(%rsp)
    5439:	00 00 01 
    543c:	c6 84 24 ea 03 00 00 	movb   $0x1,0x3ea(%rsp)
    5443:	01 
    5444:	48 c7 84 24 00 04 00 	movq   $0xf,0x400(%rsp)
    544b:	00 0f 00 00 00 
    5450:	c6 84 24 10 04 00 00 	movb   $0x0,0x410(%rsp)
    5457:	00 
    5458:	66 c7 84 24 11 04 00 	movw   $0x101,0x411(%rsp)
    545f:	00 01 01 
    5462:	48 89 84 24 18 04 00 	mov    %rax,0x418(%rsp)
    5469:	00 
    546a:	48 8d 05 bf e0 00 00 	lea    0xe0bf(%rip),%rax        # 13530 <__pyx_k_connect>
    5471:	48 89 84 24 20 04 00 	mov    %rax,0x420(%rsp)
    5478:	00 
    5479:	31 c0                	xor    %eax,%eax
    547b:	48 89 84 24 30 04 00 	mov    %rax,0x430(%rsp)
    5482:	00 
    5483:	48 8d 05 e6 28 01 00 	lea    0x128e6(%rip),%rax        # 17d70 <__pyx_mstate_global_static+0x110>
    548a:	48 89 84 24 40 04 00 	mov    %rax,0x440(%rsp)
    5491:	00 
    5492:	48 8d 05 c7 de 00 00 	lea    0xdec7(%rip),%rax        # 13360 <__pyx_k_connect_serial>
    5499:	48 89 84 24 48 04 00 	mov    %rax,0x448(%rsp)
    54a0:	00 
    54a1:	31 c0                	xor    %eax,%eax
    54a3:	48 89 84 24 58 04 00 	mov    %rax,0x458(%rsp)
    54aa:	00 
    54ab:	48 8d 05 c6 28 01 00 	lea    0x128c6(%rip),%rax        # 17d78 <__pyx_mstate_global_static+0x118>
    54b2:	48 89 84 24 68 04 00 	mov    %rax,0x468(%rsp)
    54b9:	00 
    54ba:	48 8d 05 4f dd 00 00 	lea    0xdd4f(%rip),%rax        # 13210 <__pyx_k_connection_status>
    54c1:	48 89 84 24 70 04 00 	mov    %rax,0x470(%rsp)
    54c8:	00 
    54c9:	31 c0                	xor    %eax,%eax
    54cb:	48 89 84 24 80 04 00 	mov    %rax,0x480(%rsp)
    54d2:	00 
    54d3:	48 8d 05 a6 28 01 00 	lea    0x128a6(%rip),%rax        # 17d80 <__pyx_mstate_global_static+0x120>
    54da:	48 89 84 24 90 04 00 	mov    %rax,0x490(%rsp)
    54e1:	00 
    54e2:	48 8d 05 67 de 00 00 	lea    0xde67(%rip),%rax        # 13350 <__pyx_k_create_context>
    54e9:	48 89 84 24 98 04 00 	mov    %rax,0x498(%rsp)
    54f0:	00 
    54f1:	31 c0                	xor    %eax,%eax
    54f3:	48 89 84 24 a8 04 00 	mov    %rax,0x4a8(%rsp)
    54fa:	00 
    54fb:	48 8d 05 86 28 01 00 	lea    0x12886(%rip),%rax        # 17d88 <__pyx_mstate_global_static+0x128>
    5502:	48 89 84 24 b8 04 00 	mov    %rax,0x4b8(%rsp)
    5509:	00 
    550a:	48 8d 05 df dd 00 00 	lea    0xdddf(%rip),%rax        # 132f0 <__pyx_k_create_viewport>
    5511:	48 89 84 24 c0 04 00 	mov    %rax,0x4c0(%rsp)
    5518:	00 
    5519:	31 c0                	xor    %eax,%eax
    551b:	31 d2                	xor    %edx,%edx
    551d:	31 c9                	xor    %ecx,%ecx
    551f:	48 89 84 24 d0 04 00 	mov    %rax,0x4d0(%rsp)
    5526:	00 
    5527:	31 f6                	xor    %esi,%esi
    5529:	31 ff                	xor    %edi,%edi
    552b:	45 31 c0             	xor    %r8d,%r8d
    552e:	c6 84 24 3a 04 00 00 	movb   $0x1,0x43a(%rsp)
    5535:	01 
    5536:	45 31 c9             	xor    %r9d,%r9d
    5539:	45 31 d2             	xor    %r10d,%r10d
    553c:	31 db                	xor    %ebx,%ebx
    553e:	66 c7 84 24 38 04 00 	movw   $0x100,0x438(%rsp)
    5545:	00 00 01 
    5548:	45 31 db             	xor    %r11d,%r11d
    554b:	31 ed                	xor    %ebp,%ebp
    554d:	48 8d 05 3c 28 01 00 	lea    0x1283c(%rip),%rax        # 17d90 <__pyx_mstate_global_static+0x130>
    5554:	48 89 84 24 e0 04 00 	mov    %rax,0x4e0(%rsp)
    555b:	00 
    555c:	48 8d 05 8d db 00 00 	lea    0xdb8d(%rip),%rax        # 130f0 <__pyx_k_created_window_instance>
    5563:	48 89 84 24 e8 04 00 	mov    %rax,0x4e8(%rsp)
    556a:	00 
    556b:	48 8d 05 26 28 01 00 	lea    0x12826(%rip),%rax        # 17d98 <__pyx_mstate_global_static+0x138>
    5572:	48 c7 84 24 28 04 00 	movq   $0x8,0x428(%rsp)
    5579:	00 08 00 00 00 
    557e:	48 c7 84 24 50 04 00 	movq   $0xf,0x450(%rsp)
    5585:	00 0f 00 00 00 
    558a:	66 c7 84 24 60 04 00 	movw   $0x100,0x460(%rsp)
    5591:	00 00 01 
    5594:	c6 84 24 62 04 00 00 	movb   $0x1,0x462(%rsp)
    559b:	01 
    559c:	48 c7 84 24 78 04 00 	movq   $0x12,0x478(%rsp)
    55a3:	00 12 00 00 00 
    55a8:	66 c7 84 24 88 04 00 	movw   $0x100,0x488(%rsp)
    55af:	00 00 01 
    55b2:	c6 84 24 8a 04 00 00 	movb   $0x1,0x48a(%rsp)
    55b9:	01 
    55ba:	48 c7 84 24 a0 04 00 	movq   $0xf,0x4a0(%rsp)
    55c1:	00 0f 00 00 00 
    55c6:	66 c7 84 24 b0 04 00 	movw   $0x100,0x4b0(%rsp)
    55cd:	00 00 01 
    55d0:	c6 84 24 b2 04 00 00 	movb   $0x1,0x4b2(%rsp)
    55d7:	01 
    55d8:	48 c7 84 24 c8 04 00 	movq   $0x10,0x4c8(%rsp)
    55df:	00 10 00 00 00 
    55e4:	66 c7 84 24 d8 04 00 	movw   $0x100,0x4d8(%rsp)
    55eb:	00 00 01 
    55ee:	c6 84 24 da 04 00 00 	movb   $0x1,0x4da(%rsp)
    55f5:	01 
    55f6:	48 c7 84 24 f0 04 00 	movq   $0x18,0x4f0(%rsp)
    55fd:	00 18 00 00 00 
    5602:	48 89 94 24 f8 04 00 	mov    %rdx,0x4f8(%rsp)
    5609:	00 
    560a:	31 d2                	xor    %edx,%edx
    560c:	48 89 84 24 08 05 00 	mov    %rax,0x508(%rsp)
    5613:	00 
    5614:	48 8d 05 85 de 00 00 	lea    0xde85(%rip),%rax        # 134a0 <__pyx_k_dearpygui>
    561b:	48 89 84 24 10 05 00 	mov    %rax,0x510(%rsp)
    5622:	00 
    5623:	48 8d 05 76 27 01 00 	lea    0x12776(%rip),%rax        # 17da0 <__pyx_mstate_global_static+0x140>
    562a:	48 89 84 24 30 05 00 	mov    %rax,0x530(%rsp)
    5631:	00 
    5632:	48 8d 05 37 db 00 00 	lea    0xdb37(%rip),%rax        # 13170 <__pyx_k_dearpygui_dearpygui>
    5639:	48 89 84 24 38 05 00 	mov    %rax,0x538(%rsp)
    5640:	00 
    5641:	48 8d 05 60 27 01 00 	lea    0x12760(%rip),%rax        # 17da8 <__pyx_mstate_global_static+0x148>
    5648:	48 89 84 24 58 05 00 	mov    %rax,0x558(%rsp)
    564f:	00 
    5650:	48 8d 05 49 dd 00 00 	lea    0xdd49(%rip),%rax        # 133a0 <__pyx_k_default_value>
    5657:	48 89 84 24 60 05 00 	mov    %rax,0x560(%rsp)
    565e:	00 
    565f:	48 8d 05 4a 27 01 00 	lea    0x1274a(%rip),%rax        # 17db0 <__pyx_mstate_global_static+0x150>
    5666:	48 89 84 24 80 05 00 	mov    %rax,0x580(%rsp)
    566d:	00 
    566e:	48 8d 05 db da 00 00 	lea    0xdadb(%rip),%rax        # 13150 <__pyx_k_delay_between_reads>
    5675:	48 89 84 24 88 05 00 	mov    %rax,0x588(%rsp)
    567c:	00 
    567d:	48 8d 05 34 27 01 00 	lea    0x12734(%rip),%rax        # 17db8 <__pyx_mstate_global_static+0x158>
    5684:	48 89 84 24 a8 05 00 	mov    %rax,0x5a8(%rsp)
    568b:	00 
    568c:	48 8d 05 4d dc 00 00 	lea    0xdc4d(%rip),%rax        # 132e0 <__pyx_k_destroy_context>
    5693:	48 89 84 24 b0 05 00 	mov    %rax,0x5b0(%rsp)
    569a:	00 
    569b:	48 8d 05 1e 27 01 00 	lea    0x1271e(%rip),%rax        # 17dc0 <__pyx_mstate_global_static+0x160>
    56a2:	48 89 8c 24 20 05 00 	mov    %rcx,0x520(%rsp)
    56a9:	00 
    56aa:	31 c9                	xor    %ecx,%ecx
    56ac:	48 89 b4 24 48 05 00 	mov    %rsi,0x548(%rsp)
    56b3:	00 
    56b4:	31 f6                	xor    %esi,%esi
    56b6:	48 89 bc 24 70 05 00 	mov    %rdi,0x570(%rsp)
    56bd:	00 
    56be:	31 ff                	xor    %edi,%edi
    56c0:	4c 89 84 24 98 05 00 	mov    %r8,0x598(%rsp)
    56c7:	00 
    56c8:	45 31 c0             	xor    %r8d,%r8d
    56cb:	4c 89 8c 24 c0 05 00 	mov    %r9,0x5c0(%rsp)
    56d2:	00 
    56d3:	45 31 c9             	xor    %r9d,%r9d
    56d6:	66 c7 84 24 00 05 00 	movw   $0x100,0x500(%rsp)
    56dd:	00 00 01 
    56e0:	c6 84 24 02 05 00 00 	movb   $0x0,0x502(%rsp)
    56e7:	00 
    56e8:	48 c7 84 24 18 05 00 	movq   $0xa,0x518(%rsp)
    56ef:	00 0a 00 00 00 
    56f4:	66 c7 84 24 28 05 00 	movw   $0x100,0x528(%rsp)
    56fb:	00 00 01 
    56fe:	c6 84 24 2a 05 00 00 	movb   $0x1,0x52a(%rsp)
    5705:	01 
    5706:	48 c7 84 24 40 05 00 	movq   $0x14,0x540(%rsp)
    570d:	00 14 00 00 00 
    5712:	66 c7 84 24 50 05 00 	movw   $0x100,0x550(%rsp)
    5719:	00 00 01 
    571c:	c6 84 24 52 05 00 00 	movb   $0x1,0x552(%rsp)
    5723:	01 
    5724:	48 c7 84 24 68 05 00 	movq   $0xe,0x568(%rsp)
    572b:	00 0e 00 00 00 
    5730:	66 c7 84 24 78 05 00 	movw   $0x100,0x578(%rsp)
    5737:	00 00 01 
    573a:	c6 84 24 7a 05 00 00 	movb   $0x1,0x57a(%rsp)
    5741:	01 
    5742:	48 c7 84 24 90 05 00 	movq   $0x14,0x590(%rsp)
    5749:	00 14 00 00 00 
    574e:	66 c7 84 24 a0 05 00 	movw   $0x100,0x5a0(%rsp)
    5755:	00 00 01 
    5758:	c6 84 24 a2 05 00 00 	movb   $0x1,0x5a2(%rsp)
    575f:	01 
    5760:	48 c7 84 24 b8 05 00 	movq   $0x10,0x5b8(%rsp)
    5767:	00 10 00 00 00 
    576c:	66 c7 84 24 c8 05 00 	movw   $0x100,0x5c8(%rsp)
    5773:	00 00 01 
    5776:	c6 84 24 ca 05 00 00 	movb   $0x1,0x5ca(%rsp)
    577d:	01 
    577e:	48 89 84 24 d0 05 00 	mov    %rax,0x5d0(%rsp)
    5785:	00 
    5786:	48 8d 05 dd dd 00 00 	lea    0xdddd(%rip),%rax        # 1356a <__pyx_k_device>
    578d:	48 89 84 24 d8 05 00 	mov    %rax,0x5d8(%rsp)
    5794:	00 
    5795:	48 8d 05 2c 26 01 00 	lea    0x1262c(%rip),%rax        # 17dc8 <__pyx_mstate_global_static+0x168>
    579c:	48 89 84 24 f8 05 00 	mov    %rax,0x5f8(%rsp)
    57a3:	00 
    57a4:	48 8d 05 96 de 00 00 	lea    0xde96(%rip),%rax        # 13641 <__pyx_k_dpg>
    57ab:	48 89 84 24 00 06 00 	mov    %rax,0x600(%rsp)
    57b2:	00 
    57b3:	48 8d 05 16 26 01 00 	lea    0x12616(%rip),%rax        # 17dd0 <__pyx_mstate_global_static+0x170>
    57ba:	48 89 84 24 20 06 00 	mov    %rax,0x620(%rsp)
    57c1:	00 
    57c2:	48 8d 05 ef dd 00 00 	lea    0xddef(%rip),%rax        # 135b8 <__pyx_k_enter>
    57c9:	48 89 84 24 28 06 00 	mov    %rax,0x628(%rsp)
    57d0:	00 
    57d1:	48 8d 05 00 26 01 00 	lea    0x12600(%rip),%rax        # 17dd8 <__pyx_mstate_global_static+0x178>
    57d8:	48 89 84 24 48 06 00 	mov    %rax,0x648(%rsp)
    57df:	00 
    57e0:	48 8d 05 41 de 00 00 	lea    0xde41(%rip),%rax        # 13628 <__pyx_k_exit>
    57e7:	48 89 84 24 50 06 00 	mov    %rax,0x650(%rsp)
    57ee:	00 
    57ef:	48 8d 05 ea 25 01 00 	lea    0x125ea(%rip),%rax        # 17de0 <__pyx_mstate_global_static+0x180>
    57f6:	48 89 84 24 70 06 00 	mov    %rax,0x670(%rsp)
    57fd:	00 
    57fe:	48 8d 05 8b da 00 00 	lea    0xda8b(%rip),%rax        # 13290 <__pyx_k_get_serial_ports>
    5805:	48 89 84 24 78 06 00 	mov    %rax,0x678(%rsp)
    580c:	00 
    580d:	31 c0                	xor    %eax,%eax
    580f:	48 89 84 24 88 06 00 	mov    %rax,0x688(%rsp)
    5816:	00 
    5817:	48 8d 05 ca 25 01 00 	lea    0x125ca(%rip),%rax        # 17de8 <__pyx_mstate_global_static+0x188>
    581e:	48 89 84 24 98 06 00 	mov    %rax,0x698(%rsp)
    5825:	00 
    5826:	48 8d 05 63 dc 00 00 	lea    0xdc63(%rip),%rax        # 13490 <__pyx_k_get_value>
    582d:	48 89 84 24 a0 06 00 	mov    %rax,0x6a0(%rsp)
    5834:	00 
    5835:	31 c0                	xor    %eax,%eax
    5837:	4c 89 94 24 e8 05 00 	mov    %r10,0x5e8(%rsp)
    583e:	00 
    583f:	45 31 d2             	xor    %r10d,%r10d
    5842:	4c 89 9c 24 10 06 00 	mov    %r11,0x610(%rsp)
    5849:	00 
    584a:	45 31 db             	xor    %r11d,%r11d
    584d:	48 89 9c 24 38 06 00 	mov    %rbx,0x638(%rsp)
    5854:	00 
    5855:	31 db                	xor    %ebx,%ebx
    5857:	48 89 ac 24 60 06 00 	mov    %rbp,0x660(%rsp)
    585e:	00 
    585f:	31 ed                	xor    %ebp,%ebp
    5861:	48 c7 84 24 e0 05 00 	movq   $0x7,0x5e0(%rsp)
    5868:	00 07 00 00 00 
    586d:	66 c7 84 24 f0 05 00 	movw   $0x100,0x5f0(%rsp)
    5874:	00 00 01 
    5877:	c6 84 24 f2 05 00 00 	movb   $0x1,0x5f2(%rsp)
    587e:	01 
    587f:	48 c7 84 24 08 06 00 	movq   $0x4,0x608(%rsp)
    5886:	00 04 00 00 00 
    588b:	66 c7 84 24 18 06 00 	movw   $0x100,0x618(%rsp)
    5892:	00 00 01 
    5895:	c6 84 24 1a 06 00 00 	movb   $0x1,0x61a(%rsp)
    589c:	01 
    589d:	48 c7 84 24 30 06 00 	movq   $0xa,0x630(%rsp)
    58a4:	00 0a 00 00 00 
    58a9:	66 c7 84 24 40 06 00 	movw   $0x100,0x640(%rsp)
    58b0:	00 00 01 
    58b3:	c6 84 24 42 06 00 00 	movb   $0x1,0x642(%rsp)
    58ba:	01 
    58bb:	48 c7 84 24 58 06 00 	movq   $0x9,0x658(%rsp)
    58c2:	00 09 00 00 00 
    58c7:	66 c7 84 24 68 06 00 	movw   $0x100,0x668(%rsp)
    58ce:	00 00 01 
    58d1:	c6 84 24 6a 06 00 00 	movb   $0x1,0x66a(%rsp)
    58d8:	01 
    58d9:	48 c7 84 24 80 06 00 	movq   $0x11,0x680(%rsp)
    58e0:	00 11 00 00 00 
    58e5:	66 c7 84 24 90 06 00 	movw   $0x100,0x690(%rsp)
    58ec:	00 00 01 
    58ef:	c6 84 24 92 06 00 00 	movb   $0x1,0x692(%rsp)
    58f6:	01 
    58f7:	48 c7 84 24 a8 06 00 	movq   $0xa,0x6a8(%rsp)
    58fe:	00 0a 00 00 00 
    5903:	48 89 84 24 b0 06 00 	mov    %rax,0x6b0(%rsp)
    590a:	00 
    590b:	48 8d 05 de 24 01 00 	lea    0x124de(%rip),%rax        # 17df0 <__pyx_mstate_global_static+0x190>
    5912:	48 89 84 24 c0 06 00 	mov    %rax,0x6c0(%rsp)
    5919:	00 
    591a:	48 8d 05 42 dc 00 00 	lea    0xdc42(%rip),%rax        # 13563 <__pyx_k_height>
    5921:	48 89 84 24 c8 06 00 	mov    %rax,0x6c8(%rsp)
    5928:	00 
    5929:	31 c0                	xor    %eax,%eax
    592b:	48 89 84 24 d8 06 00 	mov    %rax,0x6d8(%rsp)
    5932:	00 
    5933:	48 8d 05 be 24 01 00 	lea    0x124be(%rip),%rax        # 17df8 <__pyx_mstate_global_static+0x198>
    593a:	48 89 84 24 e8 06 00 	mov    %rax,0x6e8(%rsp)
    5941:	00 
    5942:	48 8d 05 0f dc 00 00 	lea    0xdc0f(%rip),%rax        # 13558 <__pyx_k_import>
    5949:	48 89 84 24 f0 06 00 	mov    %rax,0x6f0(%rsp)
    5950:	00 
    5951:	31 c0                	xor    %eax,%eax
    5953:	48 89 84 24 00 07 00 	mov    %rax,0x700(%rsp)
    595a:	00 
    595b:	48 8d 05 9e 24 01 00 	lea    0x1249e(%rip),%rax        # 17e00 <__pyx_mstate_global_static+0x1a0>
    5962:	48 89 84 24 10 07 00 	mov    %rax,0x710(%rsp)
    5969:	00 
    596a:	48 8d 05 cc dc 00 00 	lea    0xdccc(%rip),%rax        # 1363d <__pyx_k_inf>
    5971:	48 89 84 24 18 07 00 	mov    %rax,0x718(%rsp)
    5978:	00 
    5979:	31 c0                	xor    %eax,%eax
    597b:	48 89 84 24 28 07 00 	mov    %rax,0x728(%rsp)
    5982:	00 
    5983:	48 8d 05 7e 24 01 00 	lea    0x1247e(%rip),%rax        # 17e08 <__pyx_mstate_global_static+0x1a8>
    598a:	48 89 84 24 38 07 00 	mov    %rax,0x738(%rsp)
    5991:	00 
    5992:	48 8d 05 15 dc 00 00 	lea    0xdc15(%rip),%rax        # 135ae <__pyx_k_inf_2>
    5999:	48 89 84 24 40 07 00 	mov    %rax,0x740(%rsp)
    59a0:	00 
    59a1:	48 8d 05 68 24 01 00 	lea    0x12468(%rip),%rax        # 17e10 <__pyx_mstate_global_static+0x1b0>
    59a8:	48 89 84 24 60 07 00 	mov    %rax,0x760(%rsp)
    59af:	00 
    59b0:	48 8d 05 19 da 00 00 	lea    0xda19(%rip),%rax        # 133d0 <__pyx_k_initializing>
    59b7:	48 89 84 24 68 07 00 	mov    %rax,0x768(%rsp)
    59be:	00 
    59bf:	48 8d 05 52 24 01 00 	lea    0x12452(%rip),%rax        # 17e18 <__pyx_mstate_global_static+0x1b8>
    59c6:	48 89 94 24 50 07 00 	mov    %rdx,0x750(%rsp)
    59cd:	00 
    59ce:	31 d2                	xor    %edx,%edx
    59d0:	48 89 8c 24 78 07 00 	mov    %rcx,0x778(%rsp)
    59d7:	00 
    59d8:	31 c9                	xor    %ecx,%ecx
    59da:	66 c7 84 24 b8 06 00 	movw   $0x100,0x6b8(%rsp)
    59e1:	00 00 01 
    59e4:	c6 84 24 ba 06 00 00 	movb   $0x1,0x6ba(%rsp)
    59eb:	01 
    59ec:	48 c7 84 24 d0 06 00 	movq   $0x7,0x6d0(%rsp)
    59f3:	00 07 00 00 00 
    59f8:	66 c7 84 24 e0 06 00 	movw   $0x100,0x6e0(%rsp)
    59ff:	00 00 01 
    5a02:	c6 84 24 e2 06 00 00 	movb   $0x1,0x6e2(%rsp)
    5a09:	01 
    5a0a:	48 c7 84 24 f8 06 00 	movq   $0xb,0x6f8(%rsp)
    5a11:	00 0b 00 00 00 
    5a16:	66 c7 84 24 08 07 00 	movw   $0x100,0x708(%rsp)
    5a1d:	00 00 01 
    5a20:	c6 84 24 0a 07 00 00 	movb   $0x1,0x70a(%rsp)
    5a27:	01 
    5a28:	48 c7 84 24 20 07 00 	movq   $0x4,0x720(%rsp)
    5a2f:	00 04 00 00 00 
    5a34:	66 c7 84 24 30 07 00 	movw   $0x100,0x730(%rsp)
    5a3b:	00 00 01 
    5a3e:	c6 84 24 32 07 00 00 	movb   $0x1,0x732(%rsp)
    5a45:	01 
    5a46:	48 c7 84 24 48 07 00 	movq   $0x5,0x748(%rsp)
    5a4d:	00 05 00 00 00 
    5a52:	66 c7 84 24 58 07 00 	movw   $0x100,0x758(%rsp)
    5a59:	00 00 01 
    5a5c:	c6 84 24 5a 07 00 00 	movb   $0x0,0x75a(%rsp)
    5a63:	00 
    5a64:	48 c7 84 24 70 07 00 	movq   $0xe,0x770(%rsp)
    5a6b:	00 0e 00 00 00 
    5a70:	66 c7 84 24 80 07 00 	movw   $0x100,0x780(%rsp)
    5a77:	00 00 01 
    5a7a:	c6 84 24 82 07 00 00 	movb   $0x1,0x782(%rsp)
    5a81:	01 
    5a82:	48 89 84 24 88 07 00 	mov    %rax,0x788(%rsp)
    5a89:	00 
    5a8a:	48 8d 05 2f d9 00 00 	lea    0xd92f(%rip),%rax        # 133c0 <__pyx_k_is_coroutine>
    5a91:	48 89 84 24 90 07 00 	mov    %rax,0x790(%rsp)
    5a98:	00 
    5a99:	48 8d 05 80 23 01 00 	lea    0x12380(%rip),%rax        # 17e20 <__pyx_mstate_global_static+0x1c0>
    5aa0:	48 89 84 24 b0 07 00 	mov    %rax,0x7b0(%rsp)
    5aa7:	00 
    5aa8:	48 8d 05 81 d6 00 00 	lea    0xd681(%rip),%rax        # 13130 <__pyx_k_is_dearpygui_running>
    5aaf:	48 89 84 24 b8 07 00 	mov    %rax,0x7b8(%rsp)
    5ab6:	00 
    5ab7:	48 8d 05 6a 23 01 00 	lea    0x1236a(%rip),%rax        # 17e28 <__pyx_mstate_global_static+0x1c8>
    5abe:	48 89 84 24 d8 07 00 	mov    %rax,0x7d8(%rsp)
    5ac5:	00 
    5ac6:	48 8d 05 db da 00 00 	lea    0xdadb(%rip),%rax        # 135a8 <__pyx_k_items>
    5acd:	48 89 84 24 e0 07 00 	mov    %rax,0x7e0(%rsp)
    5ad4:	00 
    5ad5:	48 8d 05 54 23 01 00 	lea    0x12354(%rip),%rax        # 17e30 <__pyx_mstate_global_static+0x1d0>
    5adc:	48 89 84 24 00 08 00 	mov    %rax,0x800(%rsp)
    5ae3:	00 
    5ae4:	48 8d 05 36 db 00 00 	lea    0xdb36(%rip),%rax        # 13621 <__pyx_k_json>
    5aeb:	48 89 84 24 08 08 00 	mov    %rax,0x808(%rsp)
    5af2:	00 
    5af3:	48 8d 05 3e 23 01 00 	lea    0x1233e(%rip),%rax        # 17e38 <__pyx_mstate_global_static+0x1d8>
    5afa:	48 89 84 24 28 08 00 	mov    %rax,0x828(%rsp)
    5b01:	00 
    5b02:	48 8d 05 87 d8 00 00 	lea    0xd887(%rip),%rax        # 13390 <__pyx_k_json_response>
    5b09:	48 89 84 24 30 08 00 	mov    %rax,0x830(%rsp)
    5b10:	00 
    5b11:	48 8d 05 28 23 01 00 	lea    0x12328(%rip),%rax        # 17e40 <__pyx_mstate_global_static+0x1e0>
    5b18:	48 89 84 24 50 08 00 	mov    %rax,0x850(%rsp)
    5b1f:	00 
    5b20:	48 8d 05 c9 d6 00 00 	lea    0xd6c9(%rip),%rax        # 131f0 <__pyx_k_json_response_raw>
    5b27:	48 89 84 24 58 08 00 	mov    %rax,0x858(%rsp)
    5b2e:	00 
    5b2f:	48 8d 05 12 23 01 00 	lea    0x12312(%rip),%rax        # 17e48 <__pyx_mstate_global_static+0x1e8>
    5b36:	48 89 b4 24 a0 07 00 	mov    %rsi,0x7a0(%rsp)
    5b3d:	00 
    5b3e:	48 89 bc 24 c8 07 00 	mov    %rdi,0x7c8(%rsp)
    5b45:	00 
    5b46:	4c 89 84 24 f0 07 00 	mov    %r8,0x7f0(%rsp)
    5b4d:	00 
    5b4e:	4c 89 8c 24 18 08 00 	mov    %r9,0x818(%rsp)
    5b55:	00 
    5b56:	4c 89 94 24 40 08 00 	mov    %r10,0x840(%rsp)
    5b5d:	00 
    5b5e:	48 c7 84 24 98 07 00 	movq   $0xe,0x798(%rsp)
    5b65:	00 0e 00 00 00 
    5b6a:	66 c7 84 24 a8 07 00 	movw   $0x100,0x7a8(%rsp)
    5b71:	00 00 01 
    5b74:	c6 84 24 aa 07 00 00 	movb   $0x1,0x7aa(%rsp)
    5b7b:	01 
    5b7c:	48 c7 84 24 c0 07 00 	movq   $0x15,0x7c0(%rsp)
    5b83:	00 15 00 00 00 
    5b88:	66 c7 84 24 d0 07 00 	movw   $0x100,0x7d0(%rsp)
    5b8f:	00 00 01 
    5b92:	c6 84 24 d2 07 00 00 	movb   $0x1,0x7d2(%rsp)
    5b99:	01 
    5b9a:	48 c7 84 24 e8 07 00 	movq   $0x6,0x7e8(%rsp)
    5ba1:	00 06 00 00 00 
    5ba6:	66 c7 84 24 f8 07 00 	movw   $0x100,0x7f8(%rsp)
    5bad:	00 00 01 
    5bb0:	c6 84 24 fa 07 00 00 	movb   $0x1,0x7fa(%rsp)
    5bb7:	01 
    5bb8:	48 c7 84 24 10 08 00 	movq   $0x5,0x810(%rsp)
    5bbf:	00 05 00 00 00 
    5bc4:	66 c7 84 24 20 08 00 	movw   $0x100,0x820(%rsp)
    5bcb:	00 00 01 
    5bce:	c6 84 24 22 08 00 00 	movb   $0x1,0x822(%rsp)
    5bd5:	01 
    5bd6:	48 c7 84 24 38 08 00 	movq   $0xe,0x838(%rsp)
    5bdd:	00 0e 00 00 00 
    5be2:	66 c7 84 24 48 08 00 	movw   $0x100,0x848(%rsp)
    5be9:	00 00 01 
    5bec:	c6 84 24 4a 08 00 00 	movb   $0x1,0x84a(%rsp)
    5bf3:	01 
    5bf4:	48 c7 84 24 60 08 00 	movq   $0x12,0x860(%rsp)
    5bfb:	00 12 00 00 00 
    5c00:	4c 89 9c 24 68 08 00 	mov    %r11,0x868(%rsp)
    5c07:	00 
    5c08:	48 89 84 24 78 08 00 	mov    %rax,0x878(%rsp)
    5c0f:	00 
    5c10:	48 8d 05 8b d9 00 00 	lea    0xd98b(%rip),%rax        # 135a2 <__pyx_k_label>
    5c17:	48 89 84 24 80 08 00 	mov    %rax,0x880(%rsp)
    5c1e:	00 
    5c1f:	48 8d 05 2a 22 01 00 	lea    0x1222a(%rip),%rax        # 17e50 <__pyx_mstate_global_static+0x1f0>
    5c26:	48 89 84 24 a0 08 00 	mov    %rax,0x8a0(%rsp)
    5c2d:	00 
    5c2e:	48 8d 05 9b d8 00 00 	lea    0xd89b(%rip),%rax        # 134d0 <__pyx_k_lasttime>
    5c35:	48 89 84 24 a8 08 00 	mov    %rax,0x8a8(%rsp)
    5c3c:	00 
    5c3d:	48 8d 05 14 22 01 00 	lea    0x12214(%rip),%rax        # 17e58 <__pyx_mstate_global_static+0x1f8>
    5c44:	48 89 84 24 c8 08 00 	mov    %rax,0x8c8(%rsp)
    5c4b:	00 
    5c4c:	48 8d 05 ed d7 00 00 	lea    0xd7ed(%rip),%rax        # 13440 <__pyx_k_list_ports>
    5c53:	48 89 84 24 d0 08 00 	mov    %rax,0x8d0(%rsp)
    5c5a:	00 
    5c5b:	31 c0                	xor    %eax,%eax
    5c5d:	48 89 84 24 e0 08 00 	mov    %rax,0x8e0(%rsp)
    5c64:	00 
    5c65:	48 8d 05 f4 21 01 00 	lea    0x121f4(%rip),%rax        # 17e60 <__pyx_mstate_global_static+0x200>
    5c6c:	48 89 84 24 f0 08 00 	mov    %rax,0x8f0(%rsp)
    5c73:	00 
    5c74:	48 8d 05 21 d9 00 00 	lea    0xd921(%rip),%rax        # 1359c <__pyx_k_loads>
    5c7b:	48 89 84 24 f8 08 00 	mov    %rax,0x8f8(%rsp)
    5c82:	00 
    5c83:	31 c0                	xor    %eax,%eax
    5c85:	48 89 84 24 08 09 00 	mov    %rax,0x908(%rsp)
    5c8c:	00 
    5c8d:	48 8d 05 d4 21 01 00 	lea    0x121d4(%rip),%rax        # 17e68 <__pyx_mstate_global_static+0x208>
    5c94:	48 89 84 24 18 09 00 	mov    %rax,0x918(%rsp)
    5c9b:	00 
    5c9c:	48 8d 05 75 d9 00 00 	lea    0xd975(%rip),%rax        # 13618 <__pyx_k_main>
    5ca3:	48 89 84 24 20 09 00 	mov    %rax,0x920(%rsp)
    5caa:	00 
    5cab:	31 c0                	xor    %eax,%eax
    5cad:	48 89 84 24 30 09 00 	mov    %rax,0x930(%rsp)
    5cb4:	00 
    5cb5:	48 8d 05 b4 21 01 00 	lea    0x121b4(%rip),%rax        # 17e70 <__pyx_mstate_global_static+0x210>
    5cbc:	48 89 9c 24 90 08 00 	mov    %rbx,0x890(%rsp)
    5cc3:	00 
    5cc4:	48 89 ac 24 b8 08 00 	mov    %rbp,0x8b8(%rsp)
    5ccb:	00 
    5ccc:	66 c7 84 24 70 08 00 	movw   $0x100,0x870(%rsp)
    5cd3:	00 00 01 
    5cd6:	c6 84 24 72 08 00 00 	movb   $0x1,0x872(%rsp)
    5cdd:	01 
    5cde:	48 c7 84 24 88 08 00 	movq   $0x6,0x888(%rsp)
    5ce5:	00 06 00 00 00 
    5cea:	66 c7 84 24 98 08 00 	movw   $0x100,0x898(%rsp)
    5cf1:	00 00 01 
    5cf4:	c6 84 24 9a 08 00 00 	movb   $0x1,0x89a(%rsp)
    5cfb:	01 
    5cfc:	48 c7 84 24 b0 08 00 	movq   $0x9,0x8b0(%rsp)
    5d03:	00 09 00 00 00 
    5d08:	66 c7 84 24 c0 08 00 	movw   $0x100,0x8c0(%rsp)
    5d0f:	00 00 01 
    5d12:	c6 84 24 c2 08 00 00 	movb   $0x1,0x8c2(%rsp)
    5d19:	01 
    5d1a:	48 c7 84 24 d8 08 00 	movq   $0xb,0x8d8(%rsp)
    5d21:	00 0b 00 00 00 
    5d26:	66 c7 84 24 e8 08 00 	movw   $0x100,0x8e8(%rsp)
    5d2d:	00 00 01 
    5d30:	c6 84 24 ea 08 00 00 	movb   $0x1,0x8ea(%rsp)
    5d37:	01 
    5d38:	48 c7 84 24 00 09 00 	movq   $0x6,0x900(%rsp)
    5d3f:	00 06 00 00 00 
    5d44:	66 c7 84 24 10 09 00 	movw   $0x100,0x910(%rsp)
    5d4b:	00 00 01 
    5d4e:	c6 84 24 12 09 00 00 	movb   $0x1,0x912(%rsp)
    5d55:	01 
    5d56:	48 c7 84 24 28 09 00 	movq   $0x9,0x928(%rsp)
    5d5d:	00 09 00 00 00 
    5d62:	66 c7 84 24 38 09 00 	movw   $0x100,0x938(%rsp)
    5d69:	00 00 01 
    5d6c:	c6 84 24 3a 09 00 00 	movb   $0x1,0x93a(%rsp)
    5d73:	01 
    5d74:	48 89 84 24 40 09 00 	mov    %rax,0x940(%rsp)
    5d7b:	00 
    5d7c:	48 8d 05 cb d7 00 00 	lea    0xd7cb(%rip),%rax        # 1354e <__pyx_k_main_2>
    5d83:	48 89 84 24 48 09 00 	mov    %rax,0x948(%rsp)
    5d8a:	00 
    5d8b:	31 c0                	xor    %eax,%eax
    5d8d:	48 89 84 24 58 09 00 	mov    %rax,0x958(%rsp)
    5d94:	00 
    5d95:	48 8d 05 dc 20 01 00 	lea    0x120dc(%rip),%rax        # 17e78 <__pyx_mstate_global_static+0x218>
    5d9c:	48 89 84 24 68 09 00 	mov    %rax,0x968(%rsp)
    5da3:	00 
    5da4:	48 8d 05 7d d7 00 00 	lea    0xd77d(%rip),%rax        # 13528 <__pyx_k_main_py>
    5dab:	48 89 84 24 70 09 00 	mov    %rax,0x970(%rsp)
    5db2:	00 
    5db3:	31 c0                	xor    %eax,%eax
    5db5:	31 f6                	xor    %esi,%esi
    5db7:	31 ff                	xor    %edi,%edi
    5db9:	48 89 84 24 80 09 00 	mov    %rax,0x980(%rsp)
    5dc0:	00 
    5dc1:	45 31 c0             	xor    %r8d,%r8d
    5dc4:	45 31 c9             	xor    %r9d,%r9d
    5dc7:	31 db                	xor    %ebx,%ebx
    5dc9:	48 89 94 24 a8 09 00 	mov    %rdx,0x9a8(%rsp)
    5dd0:	00 
    5dd1:	45 31 d2             	xor    %r10d,%r10d
    5dd4:	45 31 db             	xor    %r11d,%r11d
    5dd7:	31 ed                	xor    %ebp,%ebp
    5dd9:	48 8d 05 a0 20 01 00 	lea    0x120a0(%rip),%rax        # 17e80 <__pyx_mstate_global_static+0x220>
    5de0:	31 d2                	xor    %edx,%edx
    5de2:	48 89 8c 24 d0 09 00 	mov    %rcx,0x9d0(%rsp)
    5de9:	00 
    5dea:	31 c9                	xor    %ecx,%ecx
    5dec:	48 89 84 24 90 09 00 	mov    %rax,0x990(%rsp)
    5df3:	00 
    5df4:	48 8d 05 25 d7 00 00 	lea    0xd725(%rip),%rax        # 13520 <__pyx_k_mainwin>
    5dfb:	48 89 84 24 98 09 00 	mov    %rax,0x998(%rsp)
    5e02:	00 
    5e03:	48 8d 05 7e 20 01 00 	lea    0x1207e(%rip),%rax        # 17e88 <__pyx_mstate_global_static+0x228>
    5e0a:	48 89 84 24 b8 09 00 	mov    %rax,0x9b8(%rsp)
    5e11:	00 
    5e12:	48 8d 05 f4 d7 00 00 	lea    0xd7f4(%rip),%rax        # 1360d <__pyx_k_max1>
    5e19:	48 89 84 24 c0 09 00 	mov    %rax,0x9c0(%rsp)
    5e20:	00 
    5e21:	48 8d 05 68 20 01 00 	lea    0x12068(%rip),%rax        # 17e90 <__pyx_mstate_global_static+0x230>
    5e28:	48 89 84 24 e0 09 00 	mov    %rax,0x9e0(%rsp)
    5e2f:	00 
    5e30:	48 8d 05 d1 d7 00 00 	lea    0xd7d1(%rip),%rax        # 13608 <__pyx_k_max2>
    5e37:	48 89 84 24 e8 09 00 	mov    %rax,0x9e8(%rsp)
    5e3e:	00 
    5e3f:	48 8d 05 52 20 01 00 	lea    0x12052(%rip),%rax        # 17e98 <__pyx_mstate_global_static+0x238>
    5e46:	48 89 84 24 08 0a 00 	mov    %rax,0xa08(%rsp)
    5e4d:	00 
    5e4e:	48 8d 05 ae d7 00 00 	lea    0xd7ae(%rip),%rax        # 13603 <__pyx_k_min1>
    5e55:	48 89 84 24 10 0a 00 	mov    %rax,0xa10(%rsp)
    5e5c:	00 
    5e5d:	48 8d 05 3c 20 01 00 	lea    0x1203c(%rip),%rax        # 17ea0 <__pyx_mstate_global_static+0x240>
    5e64:	48 89 b4 24 f8 09 00 	mov    %rsi,0x9f8(%rsp)
    5e6b:	00 
    5e6c:	31 f6                	xor    %esi,%esi
    5e6e:	48 c7 84 24 50 09 00 	movq   $0x5,0x950(%rsp)
    5e75:	00 05 00 00 00 
    5e7a:	66 c7 84 24 60 09 00 	movw   $0x100,0x960(%rsp)
    5e81:	00 00 01 
    5e84:	c6 84 24 62 09 00 00 	movb   $0x1,0x962(%rsp)
    5e8b:	01 
    5e8c:	48 c7 84 24 78 09 00 	movq   $0x8,0x978(%rsp)
    5e93:	00 08 00 00 00 
    5e98:	66 c7 84 24 88 09 00 	movw   $0x100,0x988(%rsp)
    5e9f:	00 00 01 
    5ea2:	c6 84 24 8a 09 00 00 	movb   $0x0,0x98a(%rsp)
    5ea9:	00 
    5eaa:	48 c7 84 24 a0 09 00 	movq   $0x8,0x9a0(%rsp)
    5eb1:	00 08 00 00 00 
    5eb6:	66 c7 84 24 b0 09 00 	movw   $0x100,0x9b0(%rsp)
    5ebd:	00 00 01 
    5ec0:	c6 84 24 b2 09 00 00 	movb   $0x1,0x9b2(%rsp)
    5ec7:	01 
    5ec8:	48 c7 84 24 c8 09 00 	movq   $0x5,0x9c8(%rsp)
    5ecf:	00 05 00 00 00 
    5ed4:	66 c7 84 24 d8 09 00 	movw   $0x100,0x9d8(%rsp)
    5edb:	00 00 01 
    5ede:	c6 84 24 da 09 00 00 	movb   $0x1,0x9da(%rsp)
    5ee5:	01 
    5ee6:	48 c7 84 24 f0 09 00 	movq   $0x5,0x9f0(%rsp)
    5eed:	00 05 00 00 00 
    5ef2:	66 c7 84 24 00 0a 00 	movw   $0x100,0xa00(%rsp)
    5ef9:	00 00 01 
    5efc:	c6 84 24 02 0a 00 00 	movb   $0x1,0xa02(%rsp)
    5f03:	01 
    5f04:	48 c7 84 24 18 0a 00 	movq   $0x5,0xa18(%rsp)
    5f0b:	00 05 00 00 00 
    5f10:	48 89 bc 24 20 0a 00 	mov    %rdi,0xa20(%rsp)
    5f17:	00 
    5f18:	31 ff                	xor    %edi,%edi
    5f1a:	48 89 84 24 30 0a 00 	mov    %rax,0xa30(%rsp)
    5f21:	00 
    5f22:	48 8d 05 d5 d6 00 00 	lea    0xd6d5(%rip),%rax        # 135fe <__pyx_k_min2>
    5f29:	48 89 84 24 38 0a 00 	mov    %rax,0xa38(%rsp)
    5f30:	00 
    5f31:	48 8d 05 70 1f 01 00 	lea    0x11f70(%rip),%rax        # 17ea8 <__pyx_mstate_global_static+0x248>
    5f38:	48 89 84 24 58 0a 00 	mov    %rax,0xa58(%rsp)
    5f3f:	00 
    5f40:	48 8d 05 b2 d6 00 00 	lea    0xd6b2(%rip),%rax        # 135f9 <__pyx_k_mode>
    5f47:	48 89 84 24 60 0a 00 	mov    %rax,0xa60(%rsp)
    5f4e:	00 
    5f4f:	48 8d 05 5a 1f 01 00 	lea    0x11f5a(%rip),%rax        # 17eb0 <__pyx_mstate_global_static+0x250>
    5f56:	48 89 84 24 80 0a 00 	mov    %rax,0xa80(%rsp)
    5f5d:	00 
    5f5e:	48 8d 05 8b d6 00 00 	lea    0xd68b(%rip),%rax        # 135f0 <__pyx_k_name>
    5f65:	48 89 84 24 88 0a 00 	mov    %rax,0xa88(%rsp)
    5f6c:	00 
    5f6d:	48 8d 05 44 1f 01 00 	lea    0x11f44(%rip),%rax        # 17eb8 <__pyx_mstate_global_static+0x258>
    5f74:	48 89 84 24 a8 0a 00 	mov    %rax,0xaa8(%rsp)
    5f7b:	00 
    5f7c:	48 8d 05 64 d6 00 00 	lea    0xd664(%rip),%rax        # 135e7 <__pyx_k_port>
    5f83:	48 89 84 24 b0 0a 00 	mov    %rax,0xab0(%rsp)
    5f8a:	00 
    5f8b:	48 8d 05 2e 1f 01 00 	lea    0x11f2e(%rip),%rax        # 17ec0 <__pyx_mstate_global_static+0x260>
    5f92:	48 89 84 24 d0 0a 00 	mov    %rax,0xad0(%rsp)
    5f99:	00 
    5f9a:	48 8d 05 f5 d5 00 00 	lea    0xd5f5(%rip),%rax        # 13596 <__pyx_k_ports>
    5fa1:	48 89 84 24 d8 0a 00 	mov    %rax,0xad8(%rsp)
    5fa8:	00 
    5fa9:	48 8d 05 18 1f 01 00 	lea    0x11f18(%rip),%rax        # 17ec8 <__pyx_mstate_global_static+0x268>
    5fb0:	4c 89 84 24 48 0a 00 	mov    %r8,0xa48(%rsp)
    5fb7:	00 
    5fb8:	45 31 c0             	xor    %r8d,%r8d
    5fbb:	4c 89 8c 24 70 0a 00 	mov    %r9,0xa70(%rsp)
    5fc2:	00 
    5fc3:	45 31 c9             	xor    %r9d,%r9d
    5fc6:	4c 89 94 24 98 0a 00 	mov    %r10,0xa98(%rsp)
    5fcd:	00 
    5fce:	45 31 d2             	xor    %r10d,%r10d
    5fd1:	4c 89 9c 24 c0 0a 00 	mov    %r11,0xac0(%rsp)
    5fd8:	00 
    5fd9:	45 31 db             	xor    %r11d,%r11d
    5fdc:	48 89 9c 24 e8 0a 00 	mov    %rbx,0xae8(%rsp)
    5fe3:	00 
    5fe4:	31 db                	xor    %ebx,%ebx
    5fe6:	66 c7 84 24 28 0a 00 	movw   $0x100,0xa28(%rsp)
    5fed:	00 00 01 
    5ff0:	c6 84 24 2a 0a 00 00 	movb   $0x1,0xa2a(%rsp)
    5ff7:	01 
    5ff8:	48 c7 84 24 40 0a 00 	movq   $0x5,0xa40(%rsp)
    5fff:	00 05 00 00 00 
    6004:	66 c7 84 24 50 0a 00 	movw   $0x100,0xa50(%rsp)
    600b:	00 00 01 
    600e:	c6 84 24 52 0a 00 00 	movb   $0x1,0xa52(%rsp)
    6015:	01 
    6016:	48 c7 84 24 68 0a 00 	movq   $0x5,0xa68(%rsp)
    601d:	00 05 00 00 00 
    6022:	66 c7 84 24 78 0a 00 	movw   $0x100,0xa78(%rsp)
    6029:	00 00 01 
    602c:	c6 84 24 7a 0a 00 00 	movb   $0x1,0xa7a(%rsp)
    6033:	01 
    6034:	48 c7 84 24 90 0a 00 	movq   $0x9,0xa90(%rsp)
    603b:	00 09 00 00 00 
    6040:	66 c7 84 24 a0 0a 00 	movw   $0x100,0xaa0(%rsp)
    6047:	00 00 01 
    604a:	c6 84 24 a2 0a 00 00 	movb   $0x1,0xaa2(%rsp)
    6051:	01 
    6052:	48 c7 84 24 b8 0a 00 	movq   $0x5,0xab8(%rsp)
    6059:	00 05 00 00 00 
    605e:	66 c7 84 24 c8 0a 00 	movw   $0x100,0xac8(%rsp)
    6065:	00 00 01 
    6068:	c6 84 24 ca 0a 00 00 	movb   $0x1,0xaca(%rsp)
    606f:	01 
    6070:	48 c7 84 24 e0 0a 00 	movq   $0x6,0xae0(%rsp)
    6077:	00 06 00 00 00 
    607c:	66 c7 84 24 f0 0a 00 	movw   $0x100,0xaf0(%rsp)
    6083:	00 00 01 
    6086:	c6 84 24 f2 0a 00 00 	movb   $0x1,0xaf2(%rsp)
    608d:	01 
    608e:	48 89 84 24 f8 0a 00 	mov    %rax,0xaf8(%rsp)
    6095:	00 
    6096:	48 8d 05 f3 d4 00 00 	lea    0xd4f3(%rip),%rax        # 13590 <__pyx_k_print>
    609d:	48 89 84 24 00 0b 00 	mov    %rax,0xb00(%rsp)
    60a4:	00 
    60a5:	48 8d 05 24 1e 01 00 	lea    0x11e24(%rip),%rax        # 17ed0 <__pyx_mstate_global_static+0x270>
    60ac:	48 89 84 24 20 0b 00 	mov    %rax,0xb20(%rsp)
    60b3:	00 
    60b4:	48 8d 05 85 d2 00 00 	lea    0xd285(%rip),%rax        # 13340 <__pyx_k_progress_bar_1>
    60bb:	48 89 84 24 28 0b 00 	mov    %rax,0xb28(%rsp)
    60c2:	00 
    60c3:	31 c0                	xor    %eax,%eax
    60c5:	48 89 84 24 38 0b 00 	mov    %rax,0xb38(%rsp)
    60cc:	00 
    60cd:	48 8d 05 04 1e 01 00 	lea    0x11e04(%rip),%rax        # 17ed8 <__pyx_mstate_global_static+0x278>
    60d4:	48 89 84 24 48 0b 00 	mov    %rax,0xb48(%rsp)
    60db:	00 
    60dc:	48 8d 05 4d d2 00 00 	lea    0xd24d(%rip),%rax        # 13330 <__pyx_k_progress_bar_2>
    60e3:	48 89 84 24 50 0b 00 	mov    %rax,0xb50(%rsp)
    60ea:	00 
    60eb:	31 c0                	xor    %eax,%eax
    60ed:	48 89 84 24 60 0b 00 	mov    %rax,0xb60(%rsp)
    60f4:	00 
    60f5:	48 8d 05 e4 1d 01 00 	lea    0x11de4(%rip),%rax        # 17ee0 <__pyx_mstate_global_static+0x280>
    60fc:	48 89 84 24 70 0b 00 	mov    %rax,0xb70(%rsp)
    6103:	00 
    6104:	48 8d 05 2e d5 00 00 	lea    0xd52e(%rip),%rax        # 13639 <__pyx_k_raw>
    610b:	48 89 84 24 78 0b 00 	mov    %rax,0xb78(%rsp)
    6112:	00 
    6113:	31 c0                	xor    %eax,%eax
    6115:	48 89 84 24 88 0b 00 	mov    %rax,0xb88(%rsp)
    611c:	00 
    611d:	48 8d 05 c4 1d 01 00 	lea    0x11dc4(%rip),%rax        # 17ee8 <__pyx_mstate_global_static+0x288>
    6124:	48 89 84 24 98 0b 00 	mov    %rax,0xb98(%rsp)
    612b:	00 
    612c:	48 8d 05 ae d4 00 00 	lea    0xd4ae(%rip),%rax        # 135e1 <__pyx_k_read>
    6133:	48 89 84 24 a0 0b 00 	mov    %rax,0xba0(%rsp)
    613a:	00 
    613b:	31 c0                	xor    %eax,%eax
    613d:	48 89 84 24 b0 0b 00 	mov    %rax,0xbb0(%rsp)
    6144:	00 
    6145:	48 8d 05 a4 1d 01 00 	lea    0x11da4(%rip),%rax        # 17ef0 <__pyx_mstate_global_static+0x290>
    614c:	48 89 84 24 c0 0b 00 	mov    %rax,0xbc0(%rsp)
    6153:	00 
    6154:	48 8d 05 15 d1 00 00 	lea    0xd115(%rip),%rax        # 13270 <__pyx_k_readbuttonvalues>
    615b:	48 89 84 24 c8 0b 00 	mov    %rax,0xbc8(%rsp)
    6162:	00 
    6163:	31 c0                	xor    %eax,%eax
    6165:	48 89 ac 24 10 0b 00 	mov    %rbp,0xb10(%rsp)
    616c:	00 
    616d:	31 ed                	xor    %ebp,%ebp
    616f:	48 c7 84 24 08 0b 00 	movq   $0x6,0xb08(%rsp)
    6176:	00 06 00 00 00 
    617b:	66 c7 84 24 18 0b 00 	movw   $0x100,0xb18(%rsp)
    6182:	00 00 01 
    6185:	c6 84 24 1a 0b 00 00 	movb   $0x1,0xb1a(%rsp)
    618c:	01 
    618d:	48 c7 84 24 30 0b 00 	movq   $0xf,0xb30(%rsp)
    6194:	00 0f 00 00 00 
    6199:	66 c7 84 24 40 0b 00 	movw   $0x100,0xb40(%rsp)
    61a0:	00 00 01 
    61a3:	c6 84 24 42 0b 00 00 	movb   $0x1,0xb42(%rsp)
    61aa:	01 
    61ab:	48 c7 84 24 58 0b 00 	movq   $0xf,0xb58(%rsp)
    61b2:	00 0f 00 00 00 
    61b7:	66 c7 84 24 68 0b 00 	movw   $0x100,0xb68(%rsp)
    61be:	00 00 01 
    61c1:	c6 84 24 6a 0b 00 00 	movb   $0x1,0xb6a(%rsp)
    61c8:	01 
    61c9:	48 c7 84 24 80 0b 00 	movq   $0x4,0xb80(%rsp)
    61d0:	00 04 00 00 00 
    61d5:	66 c7 84 24 90 0b 00 	movw   $0x100,0xb90(%rsp)
    61dc:	00 00 01 
    61df:	c6 84 24 92 0b 00 00 	movb   $0x1,0xb92(%rsp)
    61e6:	01 
    61e7:	48 c7 84 24 a8 0b 00 	movq   $0x6,0xba8(%rsp)
    61ee:	00 06 00 00 00 
    61f3:	66 c7 84 24 b8 0b 00 	movw   $0x0,0xbb8(%rsp)
    61fa:	00 00 00 
    61fd:	c6 84 24 ba 0b 00 00 	movb   $0x1,0xbba(%rsp)
    6204:	01 
    6205:	48 c7 84 24 d0 0b 00 	movq   $0x11,0xbd0(%rsp)
    620c:	00 11 00 00 00 
    6211:	48 89 84 24 d8 0b 00 	mov    %rax,0xbd8(%rsp)
    6218:	00 
    6219:	48 8d 05 d8 1c 01 00 	lea    0x11cd8(%rip),%rax        # 17ef8 <__pyx_mstate_global_static+0x298>
    6220:	48 89 84 24 e8 0b 00 	mov    %rax,0xbe8(%rsp)
    6227:	00 
    6228:	48 8d 05 91 d2 00 00 	lea    0xd291(%rip),%rax        # 134c0 <__pyx_k_readline>
    622f:	48 89 84 24 f0 0b 00 	mov    %rax,0xbf0(%rsp)
    6236:	00 
    6237:	48 8d 05 c2 1c 01 00 	lea    0x11cc2(%rip),%rax        # 17f00 <__pyx_mstate_global_static+0x2a0>
    623e:	48 89 84 24 10 0c 00 	mov    %rax,0xc10(%rsp)
    6245:	00 
    6246:	48 8d 05 cb d2 00 00 	lea    0xd2cb(%rip),%rax        # 13518 <__pyx_k_refresh>
    624d:	48 89 84 24 18 0c 00 	mov    %rax,0xc18(%rsp)
    6254:	00 
    6255:	48 8d 05 ac 1c 01 00 	lea    0x11cac(%rip),%rax        # 17f08 <__pyx_mstate_global_static+0x2a8>
    625c:	48 89 84 24 38 0c 00 	mov    %rax,0xc38(%rsp)
    6263:	00 
    6264:	48 8d 05 b5 d0 00 00 	lea    0xd0b5(%rip),%rax        # 13320 <__pyx_k_refresh_serial>
    626b:	48 89 84 24 40 0c 00 	mov    %rax,0xc40(%rsp)
    6272:	00 
    6273:	48 8d 05 96 1c 01 00 	lea    0x11c96(%rip),%rax        # 17f10 <__pyx_mstate_global_static+0x2b0>
    627a:	48 89 84 24 60 0c 00 	mov    %rax,0xc60(%rsp)
    6281:	00 
    6282:	48 8d 05 87 ce 00 00 	lea    0xce87(%rip),%rax        # 13110 <__pyx_k_render_dearpygui_frame>
    6289:	48 89 84 24 68 0c 00 	mov    %rax,0xc68(%rsp)
    6290:	00 
    6291:	48 8d 05 80 1c 01 00 	lea    0x11c80(%rip),%rax        # 17f18 <__pyx_mstate_global_static+0x2b8>
    6298:	48 89 84 24 88 0c 00 	mov    %rax,0xc88(%rsp)
    629f:	00 
    62a0:	48 8d 05 8e d3 00 00 	lea    0xd38e(%rip),%rax        # 13635 <__pyx_k_ser>
    62a7:	48 89 84 24 90 0c 00 	mov    %rax,0xc90(%rsp)
    62ae:	00 
    62af:	48 8d 05 6a 1c 01 00 	lea    0x11c6a(%rip),%rax        # 17f20 <__pyx_mstate_global_static+0x2c0>
    62b6:	48 89 94 24 00 0c 00 	mov    %rdx,0xc00(%rsp)
    62bd:	00 
    62be:	31 d2                	xor    %edx,%edx
    62c0:	48 89 8c 24 28 0c 00 	mov    %rcx,0xc28(%rsp)
    62c7:	00 
    62c8:	31 c9                	xor    %ecx,%ecx
    62ca:	48 89 b4 24 50 0c 00 	mov    %rsi,0xc50(%rsp)
    62d1:	00 
    62d2:	31 f6                	xor    %esi,%esi
    62d4:	48 89 bc 24 78 0c 00 	mov    %rdi,0xc78(%rsp)
    62db:	00 
    62dc:	31 ff                	xor    %edi,%edi
    62de:	4c 89 84 24 a0 0c 00 	mov    %r8,0xca0(%rsp)
    62e5:	00 
    62e6:	66 c7 84 24 e0 0b 00 	movw   $0x100,0xbe0(%rsp)
    62ed:	00 00 01 
    62f0:	c6 84 24 e2 0b 00 00 	movb   $0x1,0xbe2(%rsp)
    62f7:	01 
    62f8:	48 c7 84 24 f8 0b 00 	movq   $0x9,0xbf8(%rsp)
    62ff:	00 09 00 00 00 
    6304:	66 c7 84 24 08 0c 00 	movw   $0x100,0xc08(%rsp)
    630b:	00 00 01 
    630e:	c6 84 24 0a 0c 00 00 	movb   $0x1,0xc0a(%rsp)
    6315:	01 
    6316:	48 c7 84 24 20 0c 00 	movq   $0x8,0xc20(%rsp)
    631d:	00 08 00 00 00 
    6322:	66 c7 84 24 30 0c 00 	movw   $0x100,0xc30(%rsp)
    6329:	00 00 01 
    632c:	c6 84 24 32 0c 00 00 	movb   $0x1,0xc32(%rsp)
    6333:	01 
    6334:	48 c7 84 24 48 0c 00 	movq   $0xf,0xc48(%rsp)
    633b:	00 0f 00 00 00 
    6340:	66 c7 84 24 58 0c 00 	movw   $0x100,0xc58(%rsp)
    6347:	00 00 01 
    634a:	c6 84 24 5a 0c 00 00 	movb   $0x1,0xc5a(%rsp)
    6351:	01 
    6352:	48 c7 84 24 70 0c 00 	movq   $0x17,0xc70(%rsp)
    6359:	00 17 00 00 00 
    635e:	66 c7 84 24 80 0c 00 	movw   $0x100,0xc80(%rsp)
    6365:	00 00 01 
    6368:	c6 84 24 82 0c 00 00 	movb   $0x1,0xc82(%rsp)
    636f:	01 
    6370:	48 c7 84 24 98 0c 00 	movq   $0x4,0xc98(%rsp)
    6377:	00 04 00 00 00 
    637c:	66 c7 84 24 a8 0c 00 	movw   $0x100,0xca8(%rsp)
    6383:	00 00 01 
    6386:	c6 84 24 aa 0c 00 00 	movb   $0x1,0xcaa(%rsp)
    638d:	01 
    638e:	48 89 84 24 b0 0c 00 	mov    %rax,0xcb0(%rsp)
    6395:	00 
    6396:	48 8d 05 aa d1 00 00 	lea    0xd1aa(%rip),%rax        # 13547 <__pyx_k_serial>
    639d:	48 89 84 24 b8 0c 00 	mov    %rax,0xcb8(%rsp)
    63a4:	00 
    63a5:	48 8d 05 7c 1b 01 00 	lea    0x11b7c(%rip),%rax        # 17f28 <__pyx_mstate_global_static+0x2c8>
    63ac:	48 89 84 24 d8 0c 00 	mov    %rax,0xcd8(%rsp)
    63b3:	00 
    63b4:	48 8d 05 35 d0 00 00 	lea    0xd035(%rip),%rax        # 133f0 <__pyx_k_serial_port>
    63bb:	48 89 84 24 e0 0c 00 	mov    %rax,0xce0(%rsp)
    63c2:	00 
    63c3:	48 8d 05 66 1b 01 00 	lea    0x11b66(%rip),%rax        # 17f30 <__pyx_mstate_global_static+0x2d0>
    63ca:	48 89 84 24 00 0d 00 	mov    %rax,0xd00(%rsp)
    63d1:	00 
    63d2:	48 8d 05 d7 cf 00 00 	lea    0xcfd7(%rip),%rax        # 133b0 <__pyx_k_serial_ports>
    63d9:	48 89 84 24 08 0d 00 	mov    %rax,0xd08(%rsp)
    63e0:	00 
    63e1:	48 8d 05 50 1b 01 00 	lea    0x11b50(%rip),%rax        # 17f38 <__pyx_mstate_global_static+0x2d8>
    63e8:	48 89 84 24 28 0d 00 	mov    %rax,0xd28(%rsp)
    63ef:	00 
    63f0:	48 8d 05 d9 cc 00 00 	lea    0xccd9(%rip),%rax        # 130d0 <__pyx_k_serial_tools_list_ports>
    63f7:	48 89 84 24 30 0d 00 	mov    %rax,0xd30(%rsp)
    63fe:	00 
    63ff:	48 8d 05 3a 1b 01 00 	lea    0x11b3a(%rip),%rax        # 17f40 <__pyx_mstate_global_static+0x2e0>
    6406:	48 89 84 24 50 0d 00 	mov    %rax,0xd50(%rsp)
    640d:	00 
    640e:	48 8d 05 7b cd 00 00 	lea    0xcd7b(%rip),%rax        # 13190 <__pyx_k_set_primary_window>
    6415:	48 89 84 24 58 0d 00 	mov    %rax,0xd58(%rsp)
    641c:	00 
    641d:	48 8d 05 24 1b 01 00 	lea    0x11b24(%rip),%rax        # 17f48 <__pyx_mstate_global_static+0x2e8>
    6424:	48 89 84 24 78 0d 00 	mov    %rax,0xd78(%rsp)
    642b:	00 
    642c:	48 8d 05 4d d0 00 00 	lea    0xd04d(%rip),%rax        # 13480 <__pyx_k_set_value>
    6433:	48 89 84 24 80 0d 00 	mov    %rax,0xd80(%rsp)
    643a:	00 
    643b:	31 c0                	xor    %eax,%eax
    643d:	4c 89 8c 24 c8 0c 00 	mov    %r9,0xcc8(%rsp)
    6444:	00 
    6445:	4c 89 94 24 f0 0c 00 	mov    %r10,0xcf0(%rsp)
    644c:	00 
    644d:	4c 89 9c 24 18 0d 00 	mov    %r11,0xd18(%rsp)
    6454:	00 
    6455:	48 89 9c 24 40 0d 00 	mov    %rbx,0xd40(%rsp)
    645c:	00 
    645d:	48 89 ac 24 68 0d 00 	mov    %rbp,0xd68(%rsp)
    6464:	00 
    6465:	48 c7 84 24 c0 0c 00 	movq   $0x7,0xcc0(%rsp)
    646c:	00 07 00 00 00 
    6471:	66 c7 84 24 d0 0c 00 	movw   $0x100,0xcd0(%rsp)
    6478:	00 00 01 
    647b:	c6 84 24 d2 0c 00 00 	movb   $0x1,0xcd2(%rsp)
    6482:	01 
    6483:	48 c7 84 24 e8 0c 00 	movq   $0xc,0xce8(%rsp)
    648a:	00 0c 00 00 00 
    648f:	66 c7 84 24 f8 0c 00 	movw   $0x100,0xcf8(%rsp)
    6496:	00 00 01 
    6499:	c6 84 24 fa 0c 00 00 	movb   $0x1,0xcfa(%rsp)
    64a0:	01 
    64a1:	48 c7 84 24 10 0d 00 	movq   $0xd,0xd10(%rsp)
    64a8:	00 0d 00 00 00 
    64ad:	66 c7 84 24 20 0d 00 	movw   $0x100,0xd20(%rsp)
    64b4:	00 00 01 
    64b7:	c6 84 24 22 0d 00 00 	movb   $0x1,0xd22(%rsp)
    64be:	01 
    64bf:	48 c7 84 24 38 0d 00 	movq   $0x18,0xd38(%rsp)
    64c6:	00 18 00 00 00 
    64cb:	66 c7 84 24 48 0d 00 	movw   $0x100,0xd48(%rsp)
    64d2:	00 00 01 
    64d5:	c6 84 24 4a 0d 00 00 	movb   $0x1,0xd4a(%rsp)
    64dc:	01 
    64dd:	48 c7 84 24 60 0d 00 	movq   $0x13,0xd60(%rsp)
    64e4:	00 13 00 00 00 
    64e9:	66 c7 84 24 70 0d 00 	movw   $0x100,0xd70(%rsp)
    64f0:	00 00 01 
    64f3:	c6 84 24 72 0d 00 00 	movb   $0x1,0xd72(%rsp)
    64fa:	01 
    64fb:	48 c7 84 24 88 0d 00 	movq   $0xa,0xd88(%rsp)
    6502:	00 0a 00 00 00 
    6507:	48 89 84 24 90 0d 00 	mov    %rax,0xd90(%rsp)
    650e:	00 
    650f:	48 8d 05 3a 1a 01 00 	lea    0x11a3a(%rip),%rax        # 17f50 <__pyx_mstate_global_static+0x2f0>
    6516:	48 89 84 24 a0 0d 00 	mov    %rax,0xda0(%rsp)
    651d:	00 
    651e:	48 8d 05 ab cd 00 00 	lea    0xcdab(%rip),%rax        # 132d0 <__pyx_k_setup_dearpygui>
    6525:	48 89 84 24 a8 0d 00 	mov    %rax,0xda8(%rsp)
    652c:	00 
    652d:	31 c0                	xor    %eax,%eax
    652f:	48 89 84 24 b8 0d 00 	mov    %rax,0xdb8(%rsp)
    6536:	00 
    6537:	48 8d 05 1a 1a 01 00 	lea    0x11a1a(%rip),%rax        # 17f58 <__pyx_mstate_global_static+0x2f8>
    653e:	48 89 84 24 c8 0d 00 	mov    %rax,0xdc8(%rsp)
    6545:	00 
    6546:	48 8d 05 33 ce 00 00 	lea    0xce33(%rip),%rax        # 13380 <__pyx_k_show_viewport>
    654d:	48 89 84 24 d0 0d 00 	mov    %rax,0xdd0(%rsp)
    6554:	00 
    6555:	31 c0                	xor    %eax,%eax
    6557:	48 89 84 24 e0 0d 00 	mov    %rax,0xde0(%rsp)
    655e:	00 
    655f:	48 8d 05 fa 19 01 00 	lea    0x119fa(%rip),%rax        # 17f60 <__pyx_mstate_global_static+0x300>
    6566:	48 89 84 24 f0 0d 00 	mov    %rax,0xdf0(%rsp)
    656d:	00 
    656e:	48 8d 05 63 d0 00 00 	lea    0xd063(%rip),%rax        # 135d8 <__pyx_k_spec>
    6575:	48 89 84 24 f8 0d 00 	mov    %rax,0xdf8(%rsp)
    657c:	00 
    657d:	31 c0                	xor    %eax,%eax
    657f:	48 89 84 24 08 0e 00 	mov    %rax,0xe08(%rsp)
    6586:	00 
    6587:	48 8d 05 da 19 01 00 	lea    0x119da(%rip),%rax        # 17f68 <__pyx_mstate_global_static+0x308>
    658e:	48 89 84 24 18 0e 00 	mov    %rax,0xe18(%rsp)
    6595:	00 
    6596:	48 8d 05 94 d0 00 00 	lea    0xd094(%rip),%rax        # 13631 <__pyx_k_tag>
    659d:	48 89 84 24 20 0e 00 	mov    %rax,0xe20(%rsp)
    65a4:	00 
    65a5:	31 c0                	xor    %eax,%eax
    65a7:	45 31 c0             	xor    %r8d,%r8d
    65aa:	31 db                	xor    %ebx,%ebx
    65ac:	48 89 84 24 30 0e 00 	mov    %rax,0xe30(%rsp)
    65b3:	00 
    65b4:	45 31 c9             	xor    %r9d,%r9d
    65b7:	45 31 d2             	xor    %r10d,%r10d
    65ba:	31 ed                	xor    %ebp,%ebp
    65bc:	48 8d 05 ad 19 01 00 	lea    0x119ad(%rip),%rax        # 17f70 <__pyx_mstate_global_static+0x310>
    65c3:	45 31 db             	xor    %r11d,%r11d
    65c6:	66 c7 84 24 98 0d 00 	movw   $0x100,0xd98(%rsp)
    65cd:	00 00 01 
    65d0:	48 89 84 24 40 0e 00 	mov    %rax,0xe40(%rsp)
    65d7:	00 
    65d8:	48 8d 05 e9 cf 00 00 	lea    0xcfe9(%rip),%rax        # 135c8 <__pyx_k_test>
    65df:	48 89 84 24 48 0e 00 	mov    %rax,0xe48(%rsp)
    65e6:	00 
    65e7:	48 8d 05 8a 19 01 00 	lea    0x1198a(%rip),%rax        # 17f78 <__pyx_mstate_global_static+0x318>
    65ee:	c6 84 24 9a 0d 00 00 	movb   $0x1,0xd9a(%rsp)
    65f5:	01 
    65f6:	48 c7 84 24 b0 0d 00 	movq   $0x10,0xdb0(%rsp)
    65fd:	00 10 00 00 00 
    6602:	66 c7 84 24 c0 0d 00 	movw   $0x100,0xdc0(%rsp)
    6609:	00 00 01 
    660c:	c6 84 24 c2 0d 00 00 	movb   $0x1,0xdc2(%rsp)
    6613:	01 
    6614:	48 c7 84 24 d8 0d 00 	movq   $0xe,0xdd8(%rsp)
    661b:	00 0e 00 00 00 
    6620:	66 c7 84 24 e8 0d 00 	movw   $0x100,0xde8(%rsp)
    6627:	00 00 01 
    662a:	c6 84 24 ea 0d 00 00 	movb   $0x1,0xdea(%rsp)
    6631:	01 
    6632:	48 c7 84 24 00 0e 00 	movq   $0x9,0xe00(%rsp)
    6639:	00 09 00 00 00 
    663e:	c6 84 24 10 0e 00 00 	movb   $0x0,0xe10(%rsp)
    6645:	00 
    6646:	66 c7 84 24 11 0e 00 	movw   $0x101,0xe11(%rsp)
    664d:	00 01 01 
    6650:	48 c7 84 24 28 0e 00 	movq   $0x4,0xe28(%rsp)
    6657:	00 04 00 00 00 
    665c:	66 c7 84 24 38 0e 00 	movw   $0x100,0xe38(%rsp)
    6663:	00 00 01 
    6666:	c6 84 24 3a 0e 00 00 	movb   $0x1,0xe3a(%rsp)
    666d:	01 
    666e:	48 c7 84 24 50 0e 00 	movq   $0x9,0xe50(%rsp)
    6675:	00 09 00 00 00 
    667a:	48 89 94 24 58 0e 00 	mov    %rdx,0xe58(%rsp)
    6681:	00 
    6682:	66 c7 84 24 60 0e 00 	movw   $0x100,0xe60(%rsp)
    6689:	00 00 01 
    668c:	c6 84 24 62 0e 00 00 	movb   $0x1,0xe62(%rsp)
    6693:	01 
    6694:	48 89 84 24 68 0e 00 	mov    %rax,0xe68(%rsp)
    669b:	00 
    669c:	48 8d 05 1f cf 00 00 	lea    0xcf1f(%rip),%rax        # 135c2 <__pyx_k_time>
    66a3:	48 89 84 24 70 0e 00 	mov    %rax,0xe70(%rsp)
    66aa:	00 
    66ab:	48 8d 05 ce 18 01 00 	lea    0x118ce(%rip),%rax        # 17f80 <__pyx_mstate_global_static+0x320>
    66b2:	48 89 84 24 90 0e 00 	mov    %rax,0xe90(%rsp)
    66b9:	00 
    66ba:	48 8d 05 4f ce 00 00 	lea    0xce4f(%rip),%rax        # 13510 <__pyx_k_timeout>
    66c1:	48 89 84 24 98 0e 00 	mov    %rax,0xe98(%rsp)
    66c8:	00 
    66c9:	48 8d 05 b8 18 01 00 	lea    0x118b8(%rip),%rax        # 17f88 <__pyx_mstate_global_static+0x328>
    66d0:	48 89 84 24 b8 0e 00 	mov    %rax,0xeb8(%rsp)
    66d7:	00 
    66d8:	48 8d 05 ab ce 00 00 	lea    0xceab(%rip),%rax        # 1358a <__pyx_k_title>
    66df:	48 89 84 24 c0 0e 00 	mov    %rax,0xec0(%rsp)
    66e6:	00 
    66e7:	48 8d 05 a2 18 01 00 	lea    0x118a2(%rip),%rax        # 17f90 <__pyx_mstate_global_static+0x330>
    66ee:	48 89 84 24 e0 0e 00 	mov    %rax,0xee0(%rsp)
    66f5:	00 
    66f6:	48 8d 05 87 ce 00 00 	lea    0xce87(%rip),%rax        # 13584 <__pyx_k_tools>
    66fd:	48 89 84 24 e8 0e 00 	mov    %rax,0xee8(%rsp)
    6704:	00 
    6705:	48 8d 05 8c 18 01 00 	lea    0x1188c(%rip),%rax        # 17f98 <__pyx_mstate_global_static+0x338>
    670c:	48 89 84 24 08 0f 00 	mov    %rax,0xf08(%rsp)
    6713:	00 
    6714:	48 8d 05 35 cb 00 00 	lea    0xcb35(%rip),%rax        # 13250 <__pyx_k_val_to_calibrate>
    671b:	48 89 84 24 10 0f 00 	mov    %rax,0xf10(%rsp)
    6722:	00 
    6723:	48 8d 05 76 18 01 00 	lea    0x11876(%rip),%rax        # 17fa0 <__pyx_mstate_global_static+0x340>
    672a:	48 89 84 24 30 0f 00 	mov    %rax,0xf30(%rsp)
    6731:	00 
    6732:	48 8d 05 45 ce 00 00 	lea    0xce45(%rip),%rax        # 1357e <__pyx_k_width>
    6739:	48 89 84 24 38 0f 00 	mov    %rax,0xf38(%rsp)
    6740:	00 
    6741:	48 8d 05 60 18 01 00 	lea    0x11860(%rip),%rax        # 17fa8 <__pyx_mstate_global_static+0x348>
    6748:	48 c7 84 24 78 0e 00 	movq   $0x5,0xe78(%rsp)
    674f:	00 05 00 00 00 
    6754:	48 89 8c 24 80 0e 00 	mov    %rcx,0xe80(%rsp)
    675b:	00 
    675c:	66 c7 84 24 88 0e 00 	movw   $0x100,0xe88(%rsp)
    6763:	00 00 01 
    6766:	c6 84 24 8a 0e 00 00 	movb   $0x1,0xe8a(%rsp)
    676d:	01 
    676e:	48 c7 84 24 a0 0e 00 	movq   $0x8,0xea0(%rsp)
    6775:	00 08 00 00 00 
    677a:	48 89 b4 24 a8 0e 00 	mov    %rsi,0xea8(%rsp)
    6781:	00 
    6782:	66 c7 84 24 b0 0e 00 	movw   $0x100,0xeb0(%rsp)
    6789:	00 00 01 
    678c:	c6 84 24 b2 0e 00 00 	movb   $0x1,0xeb2(%rsp)
    6793:	01 
    6794:	48 c7 84 24 c8 0e 00 	movq   $0x6,0xec8(%rsp)
    679b:	00 06 00 00 00 
    67a0:	48 89 bc 24 d0 0e 00 	mov    %rdi,0xed0(%rsp)
    67a7:	00 
    67a8:	66 c7 84 24 d8 0e 00 	movw   $0x100,0xed8(%rsp)
    67af:	00 00 01 
    67b2:	c6 84 24 da 0e 00 00 	movb   $0x1,0xeda(%rsp)
    67b9:	01 
    67ba:	48 c7 84 24 f0 0e 00 	movq   $0x6,0xef0(%rsp)
    67c1:	00 06 00 00 00 
    67c6:	4c 89 84 24 f8 0e 00 	mov    %r8,0xef8(%rsp)
    67cd:	00 
    67ce:	66 c7 84 24 00 0f 00 	movw   $0x100,0xf00(%rsp)
    67d5:	00 00 01 
    67d8:	c6 84 24 02 0f 00 00 	movb   $0x1,0xf02(%rsp)
    67df:	01 
    67e0:	48 c7 84 24 18 0f 00 	movq   $0x11,0xf18(%rsp)
    67e7:	00 11 00 00 00 
    67ec:	4c 89 8c 24 20 0f 00 	mov    %r9,0xf20(%rsp)
    67f3:	00 
    67f4:	66 c7 84 24 28 0f 00 	movw   $0x100,0xf28(%rsp)
    67fb:	00 00 01 
    67fe:	c6 84 24 2a 0f 00 00 	movb   $0x1,0xf2a(%rsp)
    6805:	01 
    6806:	48 c7 84 24 40 0f 00 	movq   $0x6,0xf40(%rsp)
    680d:	00 06 00 00 00 
    6812:	4c 89 94 24 48 0f 00 	mov    %r10,0xf48(%rsp)
    6819:	00 
    681a:	48 89 84 24 58 0f 00 	mov    %rax,0xf58(%rsp)
    6821:	00 
    6822:	48 8d 05 17 cd 00 00 	lea    0xcd17(%rip),%rax        # 13540 <__pyx_k_window>
    6829:	48 89 84 24 60 0f 00 	mov    %rax,0xf60(%rsp)
    6830:	00 
    6831:	48 8d 05 78 17 01 00 	lea    0x11778(%rip),%rax        # 17fb0 <__pyx_mstate_global_static+0x350>
    6838:	48 89 84 24 80 0f 00 	mov    %rax,0xf80(%rsp)
    683f:	00 
    6840:	48 8d 05 f1 cc 00 00 	lea    0xccf1(%rip),%rax        # 13538 <__pyx_k_wrbtn1>
    6847:	48 89 84 24 88 0f 00 	mov    %rax,0xf88(%rsp)
    684e:	00 
    684f:	48 8d 05 62 17 01 00 	lea    0x11762(%rip),%rax        # 17fb8 <__pyx_mstate_global_static+0x358>
    6856:	48 89 84 24 a8 0f 00 	mov    %rax,0xfa8(%rsp)
    685d:	00 
    685e:	48 8d 05 13 cd 00 00 	lea    0xcd13(%rip),%rax        # 13578 <__pyx_k_write>
    6865:	48 89 84 24 b0 0f 00 	mov    %rax,0xfb0(%rsp)
    686c:	00 
    686d:	31 c0                	xor    %eax,%eax
    686f:	66 c7 84 24 50 0f 00 	movw   $0x100,0xf50(%rsp)
    6876:	00 00 01 
    6879:	c6 84 24 52 0f 00 00 	movb   $0x1,0xf52(%rsp)
    6880:	01 
    6881:	48 c7 84 24 68 0f 00 	movq   $0x7,0xf68(%rsp)
    6888:	00 07 00 00 00 
    688d:	4c 89 9c 24 70 0f 00 	mov    %r11,0xf70(%rsp)
    6894:	00 
    6895:	66 c7 84 24 78 0f 00 	movw   $0x100,0xf78(%rsp)
    689c:	00 00 01 
    689f:	c6 84 24 7a 0f 00 00 	movb   $0x1,0xf7a(%rsp)
    68a6:	01 
    68a7:	48 c7 84 24 90 0f 00 	movq   $0x8,0xf90(%rsp)
    68ae:	00 08 00 00 00 
    68b3:	48 89 9c 24 98 0f 00 	mov    %rbx,0xf98(%rsp)
    68ba:	00 
    68bb:	66 c7 84 24 a0 0f 00 	movw   $0x1,0xfa0(%rsp)
    68c2:	00 01 00 
    68c5:	c6 84 24 a2 0f 00 00 	movb   $0x0,0xfa2(%rsp)
    68cc:	00 
    68cd:	48 c7 84 24 b8 0f 00 	movq   $0x6,0xfb8(%rsp)
    68d4:	00 06 00 00 00 
    68d9:	66 c7 84 24 c8 0f 00 	movw   $0x100,0xfc8(%rsp)
    68e0:	00 00 01 
    68e3:	c6 84 24 ca 0f 00 00 	movb   $0x1,0xfca(%rsp)
    68ea:	01 
    68eb:	48 89 84 24 d0 0f 00 	mov    %rax,0xfd0(%rsp)
    68f2:	00 
    68f3:	48 89 84 24 d8 0f 00 	mov    %rax,0xfd8(%rsp)
    68fa:	00 
    68fb:	48 89 84 24 e0 0f 00 	mov    %rax,0xfe0(%rsp)
    6902:	00 
    6903:	48 89 84 24 e8 0f 00 	mov    %rax,0xfe8(%rsp)
    690a:	00 
    690b:	66 c7 84 24 f0 0f 00 	movw   $0x0,0xff0(%rsp)
    6912:	00 00 00 
    6915:	c6 84 24 f2 0f 00 00 	movb   $0x0,0xff2(%rsp)
    691c:	00 
    691d:	48 89 ac 24 c0 0f 00 	mov    %rbp,0xfc0(%rsp)
    6924:	00 
    6925:	48 8d 6c 24 08       	lea    0x8(%rsp),%rbp
    692a:	48 8b 5d 00          	mov    0x0(%rbp),%rbx
    692e:	48 85 db             	test   %rbx,%rbx
    6931:	74 57                	je     698a <__Pyx_CreateStringTabAndInitStrings.isra.0+0x1c37>
    6933:	8a 45 20             	mov    0x20(%rbp),%al
    6936:	0a 45 21             	or     0x21(%rbp),%al
    6939:	48 8b 7d 08          	mov    0x8(%rbp),%rdi
    693d:	48 8b 75 10          	mov    0x10(%rbp),%rsi
    6941:	74 29                	je     696c <__Pyx_CreateStringTabAndInitStrings.isra.0+0x1c19>
    6943:	80 7d 22 00          	cmpb   $0x0,0x22(%rbp)
    6947:	74 07                	je     6950 <__Pyx_CreateStringTabAndInitStrings.isra.0+0x1bfd>
    6949:	e8 22 da ff ff       	call   4370 <PyUnicode_InternFromString@plt>
    694e:	eb 24                	jmp    6974 <__Pyx_CreateStringTabAndInitStrings.isra.0+0x1c21>
    6950:	48 8b 55 18          	mov    0x18(%rbp),%rdx
    6954:	48 ff ce             	dec    %rsi
    6957:	48 85 d2             	test   %rdx,%rdx
    695a:	74 09                	je     6965 <__Pyx_CreateStringTabAndInitStrings.isra.0+0x1c12>
    695c:	31 c9                	xor    %ecx,%ecx
    695e:	e8 2d db ff ff       	call   4490 <PyUnicode_Decode@plt>
    6963:	eb 0f                	jmp    6974 <__Pyx_CreateStringTabAndInitStrings.isra.0+0x1c21>
    6965:	e8 d6 dd ff ff       	call   4740 <PyUnicode_FromStringAndSize@plt>
    696a:	eb 08                	jmp    6974 <__Pyx_CreateStringTabAndInitStrings.isra.0+0x1c21>
    696c:	48 ff ce             	dec    %rsi
    696f:	e8 2c dc ff ff       	call   45a0 <PyBytes_FromStringAndSize@plt>
    6974:	48 89 03             	mov    %rax,(%rbx)
    6977:	48 85 c0             	test   %rax,%rax
    697a:	74 08                	je     6984 <__Pyx_CreateStringTabAndInitStrings.isra.0+0x1c31>
    697c:	48 89 c7             	mov    %rax,%rdi
    697f:	e8 5c db ff ff       	call   44e0 <PyObject_Hash@plt>
    6984:	48 83 c5 28          	add    $0x28,%rbp
    6988:	eb a0                	jmp    692a <__Pyx_CreateStringTabAndInitStrings.isra.0+0x1bd7>
    698a:	48 8b 84 24 f8 0f 00 	mov    0xff8(%rsp),%rax
    6991:	00 
    6992:	64 48 2b 04 25 28 00 	sub    %fs:0x28,%rax
    6999:	00 00 
    699b:	74 05                	je     69a2 <__Pyx_CreateStringTabAndInitStrings.isra.0+0x1c4f>
    699d:	e8 8e db ff ff       	call   4530 <__stack_chk_fail@plt>
    69a2:	48 81 c4 08 10 00 00 	add    $0x1008,%rsp
    69a9:	5b                   	pop    %rbx
    69aa:	5d                   	pop    %rbp
    69ab:	c3                   	ret

00000000000069ac <__Pyx_Import.constprop.0>:
    69ac:	53                   	push   %rbx
    69ad:	48 83 ec 10          	sub    $0x10,%rsp
    69b1:	48 89 7c 24 08       	mov    %rdi,0x8(%rsp)
    69b6:	e8 15 de ff ff       	call   47d0 <PyDict_New@plt>
    69bb:	48 89 c3             	mov    %rax,%rbx
    69be:	31 c0                	xor    %eax,%eax
    69c0:	48 85 db             	test   %rbx,%rbx
    69c3:	74 19                	je     69de <__Pyx_Import.constprop.0+0x32>
    69c5:	48 8b 35 94 12 01 00 	mov    0x11294(%rip),%rsi        # 17c60 <__pyx_mstate_global_static>
    69cc:	45 31 c0             	xor    %r8d,%r8d
    69cf:	31 c9                	xor    %ecx,%ecx
    69d1:	48 89 da             	mov    %rbx,%rdx
    69d4:	48 8b 7c 24 08       	mov    0x8(%rsp),%rdi
    69d9:	e8 42 da ff ff       	call   4420 <PyImport_ImportModuleLevelObject@plt>
    69de:	48 89 df             	mov    %rbx,%rdi
    69e1:	48 89 44 24 08       	mov    %rax,0x8(%rsp)
    69e6:	e8 b3 4c 00 00       	call   b69e <Py_XDECREF>
    69eb:	48 8b 44 24 08       	mov    0x8(%rsp),%rax
    69f0:	48 83 c4 10          	add    $0x10,%rsp
    69f4:	5b                   	pop    %rbx
    69f5:	c3                   	ret

00000000000069f6 <__Pyx_CyFunction_New.constprop.0>:
    69f6:	41 57                	push   %r15
    69f8:	4d 89 c7             	mov    %r8,%r15
    69fb:	41 56                	push   %r14
    69fd:	49 89 d6             	mov    %rdx,%r14
    6a00:	41 55                	push   %r13
    6a02:	49 89 fd             	mov    %rdi,%r13
    6a05:	41 54                	push   %r12
    6a07:	49 89 f4             	mov    %rsi,%r12
    6a0a:	55                   	push   %rbp
    6a0b:	48 89 cd             	mov    %rcx,%rbp
    6a0e:	53                   	push   %rbx
    6a0f:	53                   	push   %rbx
    6a10:	48 8b 3d 79 12 01 00 	mov    0x11279(%rip),%rdi        # 17c90 <__pyx_mstate_global_static+0x30>
    6a17:	e8 84 d9 ff ff       	call   43a0 <_PyObject_GC_New@plt>
    6a1c:	48 85 c0             	test   %rax,%rax
    6a1f:	0f 84 2a 01 00 00    	je     6b4f <__Pyx_CyFunction_New.constprop.0+0x159>
    6a25:	45 31 c0             	xor    %r8d,%r8d
    6a28:	45 31 c9             	xor    %r9d,%r9d
    6a2b:	45 31 d2             	xor    %r10d,%r10d
    6a2e:	4c 89 68 10          	mov    %r13,0x10(%rax)
    6a32:	44 89 80 90 00 00 00 	mov    %r8d,0x90(%rax)
    6a39:	4c 89 f7             	mov    %r14,%rdi
    6a3c:	48 89 c3             	mov    %rax,%rbx
    6a3f:	45 31 db             	xor    %r11d,%r11d
    6a42:	4c 89 48 28          	mov    %r9,0x28(%rax)
    6a46:	48 89 40 18          	mov    %rax,0x18(%rax)
    6a4a:	4c 89 50 70          	mov    %r10,0x70(%rax)
    6a4e:	e8 46 47 00 00       	call   b199 <Py_XINCREF>
    6a53:	41 8b 04 24          	mov    (%r12),%eax
    6a57:	4c 89 73 20          	mov    %r14,0x20(%rbx)
    6a5b:	4c 89 5b 40          	mov    %r11,0x40(%rbx)
    6a5f:	4c 89 5b 48          	mov    %r11,0x48(%rbx)
    6a63:	ff c0                	inc    %eax
    6a65:	74 04                	je     6a6b <__Pyx_CyFunction_New.constprop.0+0x75>
    6a67:	41 89 04 24          	mov    %eax,(%r12)
    6a6b:	8b 45 00             	mov    0x0(%rbp),%eax
    6a6e:	31 ff                	xor    %edi,%edi
    6a70:	4c 89 63 50          	mov    %r12,0x50(%rbx)
    6a74:	48 89 7b 58          	mov    %rdi,0x58(%rbx)
    6a78:	48 89 7b 38          	mov    %rdi,0x38(%rbx)
    6a7c:	48 89 6b 60          	mov    %rbp,0x60(%rbx)
    6a80:	ff c0                	inc    %eax
    6a82:	74 03                	je     6a87 <__Pyx_CyFunction_New.constprop.0+0x91>
    6a84:	89 45 00             	mov    %eax,0x0(%rbp)
    6a87:	4c 89 ff             	mov    %r15,%rdi
    6a8a:	31 f6                	xor    %esi,%esi
    6a8c:	31 c9                	xor    %ecx,%ecx
    6a8e:	e8 06 47 00 00       	call   b199 <Py_XINCREF>
    6a93:	41 8b 45 10          	mov    0x10(%r13),%eax
    6a97:	4c 89 7b 68          	mov    %r15,0x68(%rbx)
    6a9b:	89 8b 80 00 00 00    	mov    %ecx,0x80(%rbx)
    6aa1:	25 8f 02 00 00       	and    $0x28f,%eax
    6aa6:	48 89 b3 88 00 00 00 	mov    %rsi,0x88(%rbx)
    6aad:	48 89 73 78          	mov    %rsi,0x78(%rbx)
    6ab1:	48 89 b3 98 00 00 00 	mov    %rsi,0x98(%rbx)
    6ab8:	48 89 b3 a0 00 00 00 	mov    %rsi,0xa0(%rbx)
    6abf:	48 89 b3 a8 00 00 00 	mov    %rsi,0xa8(%rbx)
    6ac6:	48 89 b3 b0 00 00 00 	mov    %rsi,0xb0(%rbx)
    6acd:	48 89 b3 b8 00 00 00 	mov    %rsi,0xb8(%rbx)
    6ad4:	83 f8 08             	cmp    $0x8,%eax
    6ad7:	74 54                	je     6b2d <__Pyx_CyFunction_New.constprop.0+0x137>
    6ad9:	7f 11                	jg     6aec <__Pyx_CyFunction_New.constprop.0+0xf6>
    6adb:	83 f8 03             	cmp    $0x3,%eax
    6ade:	74 56                	je     6b36 <__Pyx_CyFunction_New.constprop.0+0x140>
    6ae0:	48 8d 15 7e 54 00 00 	lea    0x547e(%rip),%rdx        # bf65 <__Pyx_CyFunction_Vectorcall_NOARGS>
    6ae7:	83 f8 04             	cmp    $0x4,%eax
    6aea:	eb 13                	jmp    6aff <__Pyx_CyFunction_New.constprop.0+0x109>
    6aec:	3d 82 00 00 00       	cmp    $0x82,%eax
    6af1:	74 47                	je     6b3a <__Pyx_CyFunction_New.constprop.0+0x144>
    6af3:	48 8d 15 74 53 00 00 	lea    0x5374(%rip),%rdx        # be6e <__Pyx_CyFunction_Vectorcall_FASTCALL_KEYWORDS_METHOD>
    6afa:	3d 82 02 00 00       	cmp    $0x282,%eax
    6aff:	74 40                	je     6b41 <__Pyx_CyFunction_New.constprop.0+0x14b>
    6b01:	48 8b 3d 58 01 01 00 	mov    0x10158(%rip),%rdi        # 16c60 <PyExc_SystemError@@Base>
    6b08:	48 8d 35 33 b9 00 00 	lea    0xb933(%rip),%rsi        # 12442 <_IO_stdin_used+0x442>
    6b0f:	e8 ec db ff ff       	call   4700 <PyErr_SetString@plt>
    6b14:	48 8b 03             	mov    (%rbx),%rax
    6b17:	85 c0                	test   %eax,%eax
    6b19:	78 34                	js     6b4f <__Pyx_CyFunction_New.constprop.0+0x159>
    6b1b:	48 ff c8             	dec    %rax
    6b1e:	48 89 03             	mov    %rax,(%rbx)
    6b21:	75 2c                	jne    6b4f <__Pyx_CyFunction_New.constprop.0+0x159>
    6b23:	48 89 df             	mov    %rbx,%rdi
    6b26:	e8 25 db ff ff       	call   4650 <_Py_Dealloc@plt>
    6b2b:	eb 22                	jmp    6b4f <__Pyx_CyFunction_New.constprop.0+0x159>
    6b2d:	48 8d 15 b3 53 00 00 	lea    0x53b3(%rip),%rdx        # bee7 <__Pyx_CyFunction_Vectorcall_O>
    6b34:	eb 0b                	jmp    6b41 <__Pyx_CyFunction_New.constprop.0+0x14b>
    6b36:	31 d2                	xor    %edx,%edx
    6b38:	eb 07                	jmp    6b41 <__Pyx_CyFunction_New.constprop.0+0x14b>
    6b3a:	48 8d 15 c1 52 00 00 	lea    0x52c1(%rip),%rdx        # be02 <__Pyx_CyFunction_Vectorcall_FASTCALL_KEYWORDS>
    6b41:	48 89 53 30          	mov    %rdx,0x30(%rbx)
    6b45:	48 89 df             	mov    %rbx,%rdi
    6b48:	e8 53 dc ff ff       	call   47a0 <PyObject_GC_Track@plt>
    6b4d:	eb 02                	jmp    6b51 <__Pyx_CyFunction_New.constprop.0+0x15b>
    6b4f:	31 db                	xor    %ebx,%ebx
    6b51:	5a                   	pop    %rdx
    6b52:	48 89 d8             	mov    %rbx,%rax
    6b55:	5b                   	pop    %rbx
    6b56:	5d                   	pop    %rbp
    6b57:	41 5c                	pop    %r12
    6b59:	41 5d                	pop    %r13
    6b5b:	41 5e                	pop    %r14
    6b5d:	41 5f                	pop    %r15
    6b5f:	c3                   	ret

0000000000006b60 <__Pyx_ImportDottedModule>:
    6b60:	41 57                	push   %r15
    6b62:	41 56                	push   %r14
    6b64:	41 55                	push   %r13
    6b66:	49 89 f5             	mov    %rsi,%r13
    6b69:	41 54                	push   %r12
    6b6b:	49 89 fc             	mov    %rdi,%r12
    6b6e:	55                   	push   %rbp
    6b6f:	53                   	push   %rbx
    6b70:	51                   	push   %rcx
    6b71:	e8 0a da ff ff       	call   4580 <PyImport_GetModule@plt>
    6b76:	48 85 c0             	test   %rax,%rax
    6b79:	0f 84 a5 00 00 00    	je     6c24 <__Pyx_ImportDottedModule+0xc4>
    6b7f:	48 8b 35 da 13 01 00 	mov    0x113da(%rip),%rsi        # 17f60 <__pyx_mstate_global_static+0x300>
    6b86:	48 89 c7             	mov    %rax,%rdi
    6b89:	48 89 c3             	mov    %rax,%rbx
    6b8c:	e8 a0 64 00 00       	call   d031 <__Pyx_PyObject_GetAttrStrNoError>
    6b91:	48 89 c5             	mov    %rax,%rbp
    6b94:	48 85 c0             	test   %rax,%rax
    6b97:	75 0a                	jne    6ba3 <__Pyx_ImportDottedModule+0x43>
    6b99:	e8 f2 da ff ff       	call   4690 <PyErr_Clear@plt>
    6b9e:	e9 01 02 00 00       	jmp    6da4 <__Pyx_ImportDottedModule+0x244>
    6ba3:	48 8b 35 66 12 01 00 	mov    0x11266(%rip),%rsi        # 17e10 <__pyx_mstate_global_static+0x1b0>
    6baa:	48 89 c7             	mov    %rax,%rdi
    6bad:	e8 7f 64 00 00       	call   d031 <__Pyx_PyObject_GetAttrStrNoError>
    6bb2:	49 89 c6             	mov    %rax,%r14
    6bb5:	48 85 c0             	test   %rax,%rax
    6bb8:	75 0a                	jne    6bc4 <__Pyx_ImportDottedModule+0x64>
    6bba:	48 8b 45 00          	mov    0x0(%rbp),%rax
    6bbe:	85 c0                	test   %eax,%eax
    6bc0:	79 10                	jns    6bd2 <__Pyx_ImportDottedModule+0x72>
    6bc2:	eb 1f                	jmp    6be3 <__Pyx_ImportDottedModule+0x83>
    6bc4:	48 89 c7             	mov    %rax,%rdi
    6bc7:	e8 7d 49 00 00       	call   b549 <__Pyx_PyObject_IsTrue>
    6bcc:	85 c0                	test   %eax,%eax
    6bce:	74 ea                	je     6bba <__Pyx_ImportDottedModule+0x5a>
    6bd0:	eb 13                	jmp    6be5 <__Pyx_ImportDottedModule+0x85>
    6bd2:	48 ff c8             	dec    %rax
    6bd5:	48 89 45 00          	mov    %rax,0x0(%rbp)
    6bd9:	75 08                	jne    6be3 <__Pyx_ImportDottedModule+0x83>
    6bdb:	48 89 ef             	mov    %rbp,%rdi
    6bde:	e8 6d da ff ff       	call   4650 <_Py_Dealloc@plt>
    6be3:	31 ed                	xor    %ebp,%ebp
    6be5:	4c 89 f7             	mov    %r14,%rdi
    6be8:	e8 b1 4a 00 00       	call   b69e <Py_XDECREF>
    6bed:	48 85 ed             	test   %rbp,%rbp
    6bf0:	74 a7                	je     6b99 <__Pyx_ImportDottedModule+0x39>
    6bf2:	48 8b 45 00          	mov    0x0(%rbp),%rax
    6bf6:	85 c0                	test   %eax,%eax
    6bf8:	78 11                	js     6c0b <__Pyx_ImportDottedModule+0xab>
    6bfa:	48 ff c8             	dec    %rax
    6bfd:	48 89 45 00          	mov    %rax,0x0(%rbp)
    6c01:	75 08                	jne    6c0b <__Pyx_ImportDottedModule+0xab>
    6c03:	48 89 ef             	mov    %rbp,%rdi
    6c06:	e8 45 da ff ff       	call   4650 <_Py_Dealloc@plt>
    6c0b:	48 8b 03             	mov    (%rbx),%rax
    6c0e:	85 c0                	test   %eax,%eax
    6c10:	78 21                	js     6c33 <__Pyx_ImportDottedModule+0xd3>
    6c12:	48 ff c8             	dec    %rax
    6c15:	48 89 03             	mov    %rax,(%rbx)
    6c18:	75 19                	jne    6c33 <__Pyx_ImportDottedModule+0xd3>
    6c1a:	48 89 df             	mov    %rbx,%rdi
    6c1d:	e8 2e da ff ff       	call   4650 <_Py_Dealloc@plt>
    6c22:	eb 0f                	jmp    6c33 <__Pyx_ImportDottedModule+0xd3>
    6c24:	e8 c7 d6 ff ff       	call   42f0 <PyErr_Occurred@plt>
    6c29:	48 85 c0             	test   %rax,%rax
    6c2c:	74 05                	je     6c33 <__Pyx_ImportDottedModule+0xd3>
    6c2e:	e8 5d da ff ff       	call   4690 <PyErr_Clear@plt>
    6c33:	4c 89 e7             	mov    %r12,%rdi
    6c36:	e8 71 fd ff ff       	call   69ac <__Pyx_Import.constprop.0>
    6c3b:	48 89 c3             	mov    %rax,%rbx
    6c3e:	4d 85 ed             	test   %r13,%r13
    6c41:	0f 84 5d 01 00 00    	je     6da4 <__Pyx_ImportDottedModule+0x244>
    6c47:	48 85 c0             	test   %rax,%rax
    6c4a:	75 07                	jne    6c53 <__Pyx_ImportDottedModule+0xf3>
    6c4c:	31 db                	xor    %ebx,%ebx
    6c4e:	e9 51 01 00 00       	jmp    6da4 <__Pyx_ImportDottedModule+0x244>
    6c53:	4c 89 e7             	mov    %r12,%rdi
    6c56:	e8 25 d9 ff ff       	call   4580 <PyImport_GetModule@plt>
    6c5b:	48 89 c5             	mov    %rax,%rbp
    6c5e:	48 85 c0             	test   %rax,%rax
    6c61:	74 24                	je     6c87 <__Pyx_ImportDottedModule+0x127>
    6c63:	48 8b 13             	mov    (%rbx),%rdx
    6c66:	85 d2                	test   %edx,%edx
    6c68:	0f 88 33 01 00 00    	js     6da1 <__Pyx_ImportDottedModule+0x241>
    6c6e:	48 ff ca             	dec    %rdx
    6c71:	48 89 13             	mov    %rdx,(%rbx)
    6c74:	0f 85 27 01 00 00    	jne    6da1 <__Pyx_ImportDottedModule+0x241>
    6c7a:	48 89 df             	mov    %rbx,%rdi
    6c7d:	e8 ce d9 ff ff       	call   4650 <_Py_Dealloc@plt>
    6c82:	e9 1a 01 00 00       	jmp    6da1 <__Pyx_ImportDottedModule+0x241>
    6c87:	e8 04 da ff ff       	call   4690 <PyErr_Clear@plt>
    6c8c:	4c 89 ef             	mov    %r13,%rdi
    6c8f:	41 be 01 00 00 00    	mov    $0x1,%r14d
    6c95:	e8 37 50 00 00       	call   bcd1 <PyTuple_GET_SIZE>
    6c9a:	48 89 c5             	mov    %rax,%rbp
    6c9d:	4c 39 f5             	cmp    %r14,%rbp
    6ca0:	7e 60                	jle    6d02 <__Pyx_ImportDottedModule+0x1a2>
    6ca2:	48 85 db             	test   %rbx,%rbx
    6ca5:	74 64                	je     6d0b <__Pyx_ImportDottedModule+0x1ab>
    6ca7:	49 8b 45 08          	mov    0x8(%r13),%rax
    6cab:	f6 80 ab 00 00 00 04 	testb  $0x4,0xab(%rax)
    6cb2:	75 1f                	jne    6cd3 <__Pyx_ImportDottedModule+0x173>
    6cb4:	48 8d 0d e5 c0 00 00 	lea    0xc0e5(%rip),%rcx        # 12da0 <__PRETTY_FUNCTION__.7>
    6cbb:	ba e0 1e 00 00       	mov    $0x1ee0,%edx
    6cc0:	48 8d 35 9d b3 00 00 	lea    0xb39d(%rip),%rsi        # 12064 <_IO_stdin_used+0x64>
    6cc7:	48 8d 3d b0 ba 00 00 	lea    0xbab0(%rip),%rdi        # 1277e <_IO_stdin_used+0x77e>
    6cce:	e8 4d d4 ff ff       	call   4120 <__assert_fail@plt>
    6cd3:	4b 8b 74 f5 18       	mov    0x18(%r13,%r14,8),%rsi
    6cd8:	48 89 df             	mov    %rbx,%rdi
    6cdb:	e8 51 63 00 00       	call   d031 <__Pyx_PyObject_GetAttrStrNoError>
    6ce0:	49 89 c7             	mov    %rax,%r15
    6ce3:	48 8b 03             	mov    (%rbx),%rax
    6ce6:	85 c0                	test   %eax,%eax
    6ce8:	78 10                	js     6cfa <__Pyx_ImportDottedModule+0x19a>
    6cea:	48 ff c8             	dec    %rax
    6ced:	48 89 03             	mov    %rax,(%rbx)
    6cf0:	75 08                	jne    6cfa <__Pyx_ImportDottedModule+0x19a>
    6cf2:	48 89 df             	mov    %rbx,%rdi
    6cf5:	e8 56 d9 ff ff       	call   4650 <_Py_Dealloc@plt>
    6cfa:	49 ff c6             	inc    %r14
    6cfd:	4c 89 fb             	mov    %r15,%rbx
    6d00:	eb 9b                	jmp    6c9d <__Pyx_ImportDottedModule+0x13d>
    6d02:	48 85 db             	test   %rbx,%rbx
    6d05:	0f 85 99 00 00 00    	jne    6da4 <__Pyx_ImportDottedModule+0x244>
    6d0b:	e8 e0 d5 ff ff       	call   42f0 <PyErr_Occurred@plt>
    6d10:	48 85 c0             	test   %rax,%rax
    6d13:	74 05                	je     6d1a <__Pyx_ImportDottedModule+0x1ba>
    6d15:	e8 76 d9 ff ff       	call   4690 <PyErr_Clear@plt>
    6d1a:	4c 89 ef             	mov    %r13,%rdi
    6d1d:	31 ed                	xor    %ebp,%ebp
    6d1f:	e8 ad 4f 00 00       	call   bcd1 <PyTuple_GET_SIZE>
    6d24:	49 39 c6             	cmp    %rax,%r14
    6d27:	74 40                	je     6d69 <__Pyx_ImportDottedModule+0x209>
    6d29:	4c 89 ef             	mov    %r13,%rdi
    6d2c:	4c 89 f2             	mov    %r14,%rdx
    6d2f:	31 f6                	xor    %esi,%esi
    6d31:	e8 3a d9 ff ff       	call   4670 <PySequence_GetSlice@plt>
    6d36:	31 ff                	xor    %edi,%edi
    6d38:	48 89 c3             	mov    %rax,%rbx
    6d3b:	48 85 c0             	test   %rax,%rax
    6d3e:	74 47                	je     6d87 <__Pyx_ImportDottedModule+0x227>
    6d40:	48 8d 3d 15 bd 00 00 	lea    0xbd15(%rip),%rdi        # 12a5c <_IO_stdin_used+0xa5c>
    6d47:	be 01 00 00 00       	mov    $0x1,%esi
    6d4c:	e8 ef d9 ff ff       	call   4740 <PyUnicode_FromStringAndSize@plt>
    6d51:	31 ff                	xor    %edi,%edi
    6d53:	48 89 c5             	mov    %rax,%rbp
    6d56:	48 85 c0             	test   %rax,%rax
    6d59:	74 2c                	je     6d87 <__Pyx_ImportDottedModule+0x227>
    6d5b:	48 89 de             	mov    %rbx,%rsi
    6d5e:	48 89 c7             	mov    %rax,%rdi
    6d61:	e8 aa d3 ff ff       	call   4110 <PyUnicode_Join@plt>
    6d66:	49 89 c4             	mov    %rax,%r12
    6d69:	48 8b 3d b8 00 01 00 	mov    0x100b8(%rip),%rdi        # 16e28 <PyExc_ModuleNotFoundError@@Base>
    6d70:	4c 89 e2             	mov    %r12,%rdx
    6d73:	48 8d 35 1f ba 00 00 	lea    0xba1f(%rip),%rsi        # 12799 <_IO_stdin_used+0x799>
    6d7a:	31 c0                	xor    %eax,%eax
    6d7c:	e8 0f d5 ff ff       	call   4290 <PyErr_Format@plt>
    6d81:	48 89 ef             	mov    %rbp,%rdi
    6d84:	4c 89 e5             	mov    %r12,%rbp
    6d87:	e8 12 49 00 00       	call   b69e <Py_XDECREF>
    6d8c:	48 89 df             	mov    %rbx,%rdi
    6d8f:	e8 0a 49 00 00       	call   b69e <Py_XDECREF>
    6d94:	48 89 ef             	mov    %rbp,%rdi
    6d97:	e8 02 49 00 00       	call   b69e <Py_XDECREF>
    6d9c:	e9 ab fe ff ff       	jmp    6c4c <__Pyx_ImportDottedModule+0xec>
    6da1:	48 89 eb             	mov    %rbp,%rbx
    6da4:	5a                   	pop    %rdx
    6da5:	48 89 d8             	mov    %rbx,%rax
    6da8:	5b                   	pop    %rbx
    6da9:	5d                   	pop    %rbp
    6daa:	41 5c                	pop    %r12
    6dac:	41 5d                	pop    %r13
    6dae:	41 5e                	pop    %r14
    6db0:	41 5f                	pop    %r15
    6db2:	c3                   	ret

0000000000006db3 <__Pyx_PyObject_CallNoArg>:
    6db3:	48 83 ec 28          	sub    $0x28,%rsp
    6db7:	ba 01 00 00 00       	mov    $0x1,%edx
    6dbc:	64 48 8b 04 25 28 00 	mov    %fs:0x28,%rax
    6dc3:	00 00 
    6dc5:	48 89 44 24 18       	mov    %rax,0x18(%rsp)
    6dca:	31 c0                	xor    %eax,%eax
    6dcc:	48 c1 e2 3f          	shl    $0x3f,%rdx
    6dd0:	31 c0                	xor    %eax,%eax
    6dd2:	48 8d 74 24 10       	lea    0x10(%rsp),%rsi
    6dd7:	48 89 44 24 08       	mov    %rax,0x8(%rsp)
    6ddc:	48 89 44 24 10       	mov    %rax,0x10(%rsp)
    6de1:	e8 b5 64 00 00       	call   d29b <__Pyx_PyObject_FastCallDict.constprop.0>
    6de6:	48 8b 54 24 18       	mov    0x18(%rsp),%rdx
    6deb:	64 48 2b 14 25 28 00 	sub    %fs:0x28,%rdx
    6df2:	00 00 
    6df4:	74 05                	je     6dfb <__Pyx_PyObject_CallNoArg+0x48>
    6df6:	e8 35 d7 ff ff       	call   4530 <__stack_chk_fail@plt>
    6dfb:	48 83 c4 28          	add    $0x28,%rsp
    6dff:	c3                   	ret

0000000000006e00 <__Pyx_PyUnicode_AsDouble>:
    6e00:	41 57                	push   %r15
    6e02:	41 56                	push   %r14
    6e04:	41 55                	push   %r13
    6e06:	41 54                	push   %r12
    6e08:	55                   	push   %rbp
    6e09:	53                   	push   %rbx
    6e0a:	48 83 ec 68          	sub    $0x68,%rsp
    6e0e:	64 48 8b 2c 25 28 00 	mov    %fs:0x28,%rbp
    6e15:	00 00 
    6e17:	48 89 6c 24 58       	mov    %rbp,0x58(%rsp)
    6e1c:	48 89 fd             	mov    %rdi,%rbp
    6e1f:	e8 c6 4d 00 00       	call   bbea <PyUnicode_IS_ASCII>
    6e24:	85 c0                	test   %eax,%eax
    6e26:	0f 84 29 02 00 00    	je     7055 <__Pyx_PyUnicode_AsDouble+0x255>
    6e2c:	48 8d 74 24 20       	lea    0x20(%rsp),%rsi
    6e31:	48 89 ef             	mov    %rbp,%rdi
    6e34:	e8 e7 d3 ff ff       	call   4220 <PyUnicode_AsUTF8AndSize@plt>
    6e39:	48 89 c3             	mov    %rax,%rbx
    6e3c:	48 8b 44 24 20       	mov    0x20(%rsp),%rax
    6e41:	48 01 d8             	add    %rbx,%rax
    6e44:	8a 0b                	mov    (%rbx),%cl
    6e46:	8d 51 f7             	lea    -0x9(%rcx),%edx
    6e49:	80 fa 04             	cmp    $0x4,%dl
    6e4c:	77 05                	ja     6e53 <__Pyx_PyUnicode_AsDouble+0x53>
    6e4e:	48 ff c3             	inc    %rbx
    6e51:	eb f1                	jmp    6e44 <__Pyx_PyUnicode_AsDouble+0x44>
    6e53:	80 f9 20             	cmp    $0x20,%cl
    6e56:	74 f6                	je     6e4e <__Pyx_PyUnicode_AsDouble+0x4e>
    6e58:	49 89 c4             	mov    %rax,%r12
    6e5b:	48 ff c8             	dec    %rax
    6e5e:	48 39 c3             	cmp    %rax,%rbx
    6e61:	73 10                	jae    6e73 <__Pyx_PyUnicode_AsDouble+0x73>
    6e63:	8a 10                	mov    (%rax),%dl
    6e65:	8d 72 f7             	lea    -0x9(%rdx),%esi
    6e68:	40 80 fe 04          	cmp    $0x4,%sil
    6e6c:	76 ea                	jbe    6e58 <__Pyx_PyUnicode_AsDouble+0x58>
    6e6e:	80 fa 20             	cmp    $0x20,%dl
    6e71:	74 e5                	je     6e58 <__Pyx_PyUnicode_AsDouble+0x58>
    6e73:	4d 89 e6             	mov    %r12,%r14
    6e76:	49 29 de             	sub    %rbx,%r14
    6e79:	4d 85 f6             	test   %r14,%r14
    6e7c:	0f 8e 7b 05 00 00    	jle    73fd <__Pyx_PyUnicode_AsDouble+0x5fd>
    6e82:	8d 41 d5             	lea    -0x2b(%rcx),%eax
    6e85:	31 d2                	xor    %edx,%edx
    6e87:	4c 89 f7             	mov    %r14,%rdi
    6e8a:	a8 fd                	test   $0xfd,%al
    6e8c:	0f 94 c2             	sete   %dl
    6e8f:	48 8d 04 13          	lea    (%rbx,%rdx,1),%rax
    6e93:	48 29 d7             	sub    %rdx,%rdi
    6e96:	8a 10                	mov    (%rax),%dl
    6e98:	80 fa 4e             	cmp    $0x4e,%dl
    6e9b:	74 36                	je     6ed3 <__Pyx_PyUnicode_AsDouble+0xd3>
    6e9d:	7f 26                	jg     6ec5 <__Pyx_PyUnicode_AsDouble+0xc5>
    6e9f:	80 fa 39             	cmp    $0x39,%dl
    6ea2:	7f 17                	jg     6ebb <__Pyx_PyUnicode_AsDouble+0xbb>
    6ea4:	80 fa 2f             	cmp    $0x2f,%dl
    6ea7:	0f 8f 02 01 00 00    	jg     6faf <__Pyx_PyUnicode_AsDouble+0x1af>
    6ead:	80 fa 2e             	cmp    $0x2e,%dl
    6eb0:	0f 84 f9 00 00 00    	je     6faf <__Pyx_PyUnicode_AsDouble+0x1af>
    6eb6:	e9 42 05 00 00       	jmp    73fd <__Pyx_PyUnicode_AsDouble+0x5fd>
    6ebb:	80 fa 49             	cmp    $0x49,%dl
    6ebe:	74 4a                	je     6f0a <__Pyx_PyUnicode_AsDouble+0x10a>
    6ec0:	e9 38 05 00 00       	jmp    73fd <__Pyx_PyUnicode_AsDouble+0x5fd>
    6ec5:	80 fa 69             	cmp    $0x69,%dl
    6ec8:	74 40                	je     6f0a <__Pyx_PyUnicode_AsDouble+0x10a>
    6eca:	80 fa 6e             	cmp    $0x6e,%dl
    6ecd:	0f 85 2a 05 00 00    	jne    73fd <__Pyx_PyUnicode_AsDouble+0x5fd>
    6ed3:	48 83 ff 03          	cmp    $0x3,%rdi
    6ed7:	0f 85 20 05 00 00    	jne    73fd <__Pyx_PyUnicode_AsDouble+0x5fd>
    6edd:	8a 50 01             	mov    0x1(%rax),%dl
    6ee0:	83 e2 df             	and    $0xffffffdf,%edx
    6ee3:	80 fa 41             	cmp    $0x41,%dl
    6ee6:	0f 85 11 05 00 00    	jne    73fd <__Pyx_PyUnicode_AsDouble+0x5fd>
    6eec:	8a 40 02             	mov    0x2(%rax),%al
    6eef:	83 e0 df             	and    $0xffffffdf,%eax
    6ef2:	3c 4e                	cmp    $0x4e,%al
    6ef4:	0f 85 03 05 00 00    	jne    73fd <__Pyx_PyUnicode_AsDouble+0x5fd>
    6efa:	f2 0f 10 05 76 c7 00 	movsd  0xc776(%rip),%xmm0        # 13678 <__pyx_k_1+0x2a>
    6f01:	00 
    6f02:	80 f9 2d             	cmp    $0x2d,%cl
    6f05:	e9 f2 02 00 00       	jmp    71fc <__Pyx_PyUnicode_AsDouble+0x3fc>
    6f0a:	48 83 ff 02          	cmp    $0x2,%rdi
    6f0e:	0f 8e e9 04 00 00    	jle    73fd <__Pyx_PyUnicode_AsDouble+0x5fd>
    6f14:	8a 50 02             	mov    0x2(%rax),%dl
    6f17:	83 e2 df             	and    $0xffffffdf,%edx
    6f1a:	80 fa 46             	cmp    $0x46,%dl
    6f1d:	8a 50 01             	mov    0x1(%rax),%dl
    6f20:	40 0f 94 c6          	sete   %sil
    6f24:	83 e2 df             	and    $0xffffffdf,%edx
    6f27:	80 fa 4e             	cmp    $0x4e,%dl
    6f2a:	0f 94 c2             	sete   %dl
    6f2d:	21 d6                	and    %edx,%esi
    6f2f:	48 83 ff 03          	cmp    $0x3,%rdi
    6f33:	75 05                	jne    6f3a <__Pyx_PyUnicode_AsDouble+0x13a>
    6f35:	40 84 f6             	test   %sil,%sil
    6f38:	75 65                	jne    6f9f <__Pyx_PyUnicode_AsDouble+0x19f>
    6f3a:	48 83 ff 08          	cmp    $0x8,%rdi
    6f3e:	0f 85 b9 04 00 00    	jne    73fd <__Pyx_PyUnicode_AsDouble+0x5fd>
    6f44:	8a 50 04             	mov    0x4(%rax),%dl
    6f47:	40 8a 78 03          	mov    0x3(%rax),%dil
    6f4b:	83 e2 df             	and    $0xffffffdf,%edx
    6f4e:	80 fa 4e             	cmp    $0x4e,%dl
    6f51:	0f 94 c2             	sete   %dl
    6f54:	83 e7 df             	and    $0xffffffdf,%edi
    6f57:	40 80 ff 49          	cmp    $0x49,%dil
    6f5b:	40 0f 94 c7          	sete   %dil
    6f5f:	21 fa                	and    %edi,%edx
    6f61:	40 8a 78 05          	mov    0x5(%rax),%dil
    6f65:	83 e7 df             	and    $0xffffffdf,%edi
    6f68:	40 80 ff 49          	cmp    $0x49,%dil
    6f6c:	40 0f 94 c7          	sete   %dil
    6f70:	21 fa                	and    %edi,%edx
    6f72:	40 8a 78 06          	mov    0x6(%rax),%dil
    6f76:	8a 40 07             	mov    0x7(%rax),%al
    6f79:	83 e7 df             	and    $0xffffffdf,%edi
    6f7c:	40 80 ff 54          	cmp    $0x54,%dil
    6f80:	40 0f 94 c7          	sete   %dil
    6f84:	83 e0 df             	and    $0xffffffdf,%eax
    6f87:	21 fa                	and    %edi,%edx
    6f89:	3c 59                	cmp    $0x59,%al
    6f8b:	0f 94 c0             	sete   %al
    6f8e:	84 c2                	test   %al,%dl
    6f90:	0f 84 67 04 00 00    	je     73fd <__Pyx_PyUnicode_AsDouble+0x5fd>
    6f96:	40 84 f6             	test   %sil,%sil
    6f99:	0f 84 5e 04 00 00    	je     73fd <__Pyx_PyUnicode_AsDouble+0x5fd>
    6f9f:	f2 0f 10 05 c1 c6 00 	movsd  0xc6c1(%rip),%xmm0        # 13668 <__pyx_k_1+0x1a>
    6fa6:	00 
    6fa7:	80 f9 2d             	cmp    $0x2d,%cl
    6faa:	e9 74 03 00 00       	jmp    7323 <__Pyx_PyUnicode_AsDouble+0x523>
    6faf:	31 ff                	xor    %edi,%edi
    6fb1:	31 c0                	xor    %eax,%eax
    6fb3:	48 ff c0             	inc    %rax
    6fb6:	31 d2                	xor    %edx,%edx
    6fb8:	80 7c 03 ff 5f       	cmpb   $0x5f,-0x1(%rbx,%rax,1)
    6fbd:	0f 95 c2             	setne  %dl
    6fc0:	48 01 d7             	add    %rdx,%rdi
    6fc3:	49 39 c6             	cmp    %rax,%r14
    6fc6:	75 eb                	jne    6fb3 <__Pyx_PyUnicode_AsDouble+0x1b3>
    6fc8:	49 39 fe             	cmp    %rdi,%r14
    6fcb:	0f 84 95 03 00 00    	je     7366 <__Pyx_PyUnicode_AsDouble+0x566>
    6fd1:	48 83 ff 27          	cmp    $0x27,%rdi
    6fd5:	7f 33                	jg     700a <__Pyx_PyUnicode_AsDouble+0x20a>
    6fd7:	4c 8d 6c 24 30       	lea    0x30(%rsp),%r13
    6fdc:	4c 89 f2             	mov    %r14,%rdx
    6fdf:	48 89 df             	mov    %rbx,%rdi
    6fe2:	4c 89 ee             	mov    %r13,%rsi
    6fe5:	e8 12 d8 ff ff       	call   47fc <__Pyx__PyBytes_AsDouble_Copy>
    6fea:	49 89 c4             	mov    %rax,%r12
    6fed:	48 85 c0             	test   %rax,%rax
    6ff0:	0f 84 07 04 00 00    	je     73fd <__Pyx_PyUnicode_AsDouble+0x5fd>
    6ff6:	48 8d 74 24 28       	lea    0x28(%rsp),%rsi
    6ffb:	31 d2                	xor    %edx,%edx
    6ffd:	4c 89 ef             	mov    %r13,%rdi
    7000:	e8 2b d0 ff ff       	call   4030 <PyOS_string_to_double@plt>
    7005:	e9 ca 03 00 00       	jmp    73d4 <__Pyx_PyUnicode_AsDouble+0x5d4>
    700a:	48 ff c7             	inc    %rdi
    700d:	e8 6e d7 ff ff       	call   4780 <PyMem_Malloc@plt>
    7012:	49 89 c5             	mov    %rax,%r13
    7015:	48 85 c0             	test   %rax,%rax
    7018:	0f 84 df 03 00 00    	je     73fd <__Pyx_PyUnicode_AsDouble+0x5fd>
    701e:	48 89 df             	mov    %rbx,%rdi
    7021:	4c 89 f2             	mov    %r14,%rdx
    7024:	48 89 c6             	mov    %rax,%rsi
    7027:	e8 d0 d7 ff ff       	call   47fc <__Pyx__PyBytes_AsDouble_Copy>
    702c:	4c 89 ef             	mov    %r13,%rdi
    702f:	49 89 c4             	mov    %rax,%r12
    7032:	48 85 c0             	test   %rax,%rax
    7035:	0f 84 6f 03 00 00    	je     73aa <__Pyx_PyUnicode_AsDouble+0x5aa>
    703b:	48 8d 74 24 28       	lea    0x28(%rsp),%rsi
    7040:	31 d2                	xor    %edx,%edx
    7042:	e8 e9 cf ff ff       	call   4030 <PyOS_string_to_double@plt>
    7047:	4c 89 ef             	mov    %r13,%rdi
    704a:	f2 0f 11 44 24 08    	movsd  %xmm0,0x8(%rsp)
    7050:	e9 74 03 00 00       	jmp    73c9 <__Pyx_PyUnicode_AsDouble+0x5c9>
    7055:	48 89 ef             	mov    %rbp,%rdi
    7058:	e8 c4 4b 00 00       	call   bc21 <PyUnicode_GET_LENGTH>
    705d:	48 89 c3             	mov    %rax,%rbx
    7060:	48 8b 45 08          	mov    0x8(%rbp),%rax
    7064:	f6 80 ab 00 00 00 10 	testb  $0x10,0xab(%rax)
    706b:	75 1f                	jne    708c <__Pyx_PyUnicode_AsDouble+0x28c>
    706d:	48 8d 0d ec bc 00 00 	lea    0xbcec(%rip),%rcx        # 12d60 <__PRETTY_FUNCTION__.6>
    7074:	ba fc 07 00 00       	mov    $0x7fc,%edx
    7079:	48 8d 35 e4 af 00 00 	lea    0xafe4(%rip),%rsi        # 12064 <_IO_stdin_used+0x64>
    7080:	48 8d 3d 75 b9 00 00 	lea    0xb975(%rip),%rdi        # 129fc <_IO_stdin_used+0x9fc>
    7087:	e8 94 d0 ff ff       	call   4120 <__assert_fail@plt>
    708c:	8a 45 20             	mov    0x20(%rbp),%al
    708f:	48 89 ef             	mov    %rbp,%rdi
    7092:	45 31 e4             	xor    %r12d,%r12d
    7095:	4c 8d 2d 84 ec 00 00 	lea    0xec84(%rip),%r13        # 15d20 <_Py_ascii_whitespace@@Base>
    709c:	c0 e8 02             	shr    $0x2,%al
    709f:	83 e0 07             	and    $0x7,%eax
    70a2:	89 44 24 08          	mov    %eax,0x8(%rsp)
    70a6:	e8 49 59 00 00       	call   c9f4 <PyUnicode_DATA>
    70ab:	48 89 44 24 10       	mov    %rax,0x10(%rsp)
    70b0:	8b 7c 24 08          	mov    0x8(%rsp),%edi
    70b4:	48 8b 74 24 10       	mov    0x10(%rsp),%rsi
    70b9:	4c 89 e2             	mov    %r12,%rdx
    70bc:	e8 82 50 00 00       	call   c143 <PyUnicode_READ>
    70c1:	89 c7                	mov    %eax,%edi
    70c3:	83 ff 7f             	cmp    $0x7f,%edi
    70c6:	77 08                	ja     70d0 <__Pyx_PyUnicode_AsDouble+0x2d0>
    70c8:	41 0f b6 44 3d 00    	movzbl 0x0(%r13,%rdi,1),%eax
    70ce:	eb 05                	jmp    70d5 <__Pyx_PyUnicode_AsDouble+0x2d5>
    70d0:	e8 fb d2 ff ff       	call   43d0 <_PyUnicode_IsWhitespace@plt>
    70d5:	85 c0                	test   %eax,%eax
    70d7:	74 05                	je     70de <__Pyx_PyUnicode_AsDouble+0x2de>
    70d9:	49 ff c4             	inc    %r12
    70dc:	eb d2                	jmp    70b0 <__Pyx_PyUnicode_AsDouble+0x2b0>
    70de:	4c 8d 2d 3b ec 00 00 	lea    0xec3b(%rip),%r13        # 15d20 <_Py_ascii_whitespace@@Base>
    70e5:	48 89 5c 24 18       	mov    %rbx,0x18(%rsp)
    70ea:	48 ff cb             	dec    %rbx
    70ed:	49 39 dc             	cmp    %rbx,%r12
    70f0:	7c 12                	jl     7104 <__Pyx_PyUnicode_AsDouble+0x304>
    70f2:	4c 8b 6c 24 18       	mov    0x18(%rsp),%r13
    70f7:	4d 29 e5             	sub    %r12,%r13
    70fa:	4d 85 ed             	test   %r13,%r13
    70fd:	7f 30                	jg     712f <__Pyx_PyUnicode_AsDouble+0x32f>
    70ff:	e9 f9 02 00 00       	jmp    73fd <__Pyx_PyUnicode_AsDouble+0x5fd>
    7104:	8b 7c 24 08          	mov    0x8(%rsp),%edi
    7108:	48 8b 74 24 10       	mov    0x10(%rsp),%rsi
    710d:	48 89 da             	mov    %rbx,%rdx
    7110:	e8 2e 50 00 00       	call   c143 <PyUnicode_READ>
    7115:	89 c7                	mov    %eax,%edi
    7117:	83 ff 7f             	cmp    $0x7f,%edi
    711a:	77 08                	ja     7124 <__Pyx_PyUnicode_AsDouble+0x324>
    711c:	41 0f b6 44 3d 00    	movzbl 0x0(%r13,%rdi,1),%eax
    7122:	eb 05                	jmp    7129 <__Pyx_PyUnicode_AsDouble+0x329>
    7124:	e8 a7 d2 ff ff       	call   43d0 <_PyUnicode_IsWhitespace@plt>
    7129:	85 c0                	test   %eax,%eax
    712b:	75 b8                	jne    70e5 <__Pyx_PyUnicode_AsDouble+0x2e5>
    712d:	eb c3                	jmp    70f2 <__Pyx_PyUnicode_AsDouble+0x2f2>
    712f:	48 8b 74 24 10       	mov    0x10(%rsp),%rsi
    7134:	8b 7c 24 08          	mov    0x8(%rsp),%edi
    7138:	4c 89 e2             	mov    %r12,%rdx
    713b:	4d 89 ef             	mov    %r13,%r15
    713e:	e8 00 50 00 00       	call   c143 <PyUnicode_READ>
    7143:	48 8b 74 24 10       	mov    0x10(%rsp),%rsi
    7148:	8b 7c 24 08          	mov    0x8(%rsp),%edi
    714c:	41 89 c6             	mov    %eax,%r14d
    714f:	8d 40 d5             	lea    -0x2b(%rax),%eax
    7152:	83 e0 fd             	and    $0xfffffffd,%eax
    7155:	0f 94 c0             	sete   %al
    7158:	0f b6 c0             	movzbl %al,%eax
    715b:	49 8d 1c 04          	lea    (%r12,%rax,1),%rbx
    715f:	49 29 c7             	sub    %rax,%r15
    7162:	48 89 da             	mov    %rbx,%rdx
    7165:	e8 d9 4f 00 00       	call   c143 <PyUnicode_READ>
    716a:	83 f8 4e             	cmp    $0x4e,%eax
    716d:	74 36                	je     71a5 <__Pyx_PyUnicode_AsDouble+0x3a5>
    716f:	77 26                	ja     7197 <__Pyx_PyUnicode_AsDouble+0x397>
    7171:	83 f8 39             	cmp    $0x39,%eax
    7174:	77 17                	ja     718d <__Pyx_PyUnicode_AsDouble+0x38d>
    7176:	83 f8 2f             	cmp    $0x2f,%eax
    7179:	0f 87 b7 01 00 00    	ja     7336 <__Pyx_PyUnicode_AsDouble+0x536>
    717f:	83 f8 2e             	cmp    $0x2e,%eax
    7182:	0f 84 ae 01 00 00    	je     7336 <__Pyx_PyUnicode_AsDouble+0x536>
    7188:	e9 70 02 00 00       	jmp    73fd <__Pyx_PyUnicode_AsDouble+0x5fd>
    718d:	83 f8 49             	cmp    $0x49,%eax
    7190:	74 7d                	je     720f <__Pyx_PyUnicode_AsDouble+0x40f>
    7192:	e9 66 02 00 00       	jmp    73fd <__Pyx_PyUnicode_AsDouble+0x5fd>
    7197:	83 f8 69             	cmp    $0x69,%eax
    719a:	74 73                	je     720f <__Pyx_PyUnicode_AsDouble+0x40f>
    719c:	83 f8 6e             	cmp    $0x6e,%eax
    719f:	0f 85 58 02 00 00    	jne    73fd <__Pyx_PyUnicode_AsDouble+0x5fd>
    71a5:	49 83 ff 03          	cmp    $0x3,%r15
    71a9:	0f 85 4e 02 00 00    	jne    73fd <__Pyx_PyUnicode_AsDouble+0x5fd>
    71af:	48 8b 74 24 10       	mov    0x10(%rsp),%rsi
    71b4:	8b 7c 24 08          	mov    0x8(%rsp),%edi
    71b8:	48 8d 53 01          	lea    0x1(%rbx),%rdx
    71bc:	e8 82 4f 00 00       	call   c143 <PyUnicode_READ>
    71c1:	48 8b 74 24 10       	mov    0x10(%rsp),%rsi
    71c6:	8b 7c 24 08          	mov    0x8(%rsp),%edi
    71ca:	48 8d 53 02          	lea    0x2(%rbx),%rdx
    71ce:	41 89 c4             	mov    %eax,%r12d
    71d1:	e8 6d 4f 00 00       	call   c143 <PyUnicode_READ>
    71d6:	83 e0 df             	and    $0xffffffdf,%eax
    71d9:	83 f8 4e             	cmp    $0x4e,%eax
    71dc:	0f 85 1b 02 00 00    	jne    73fd <__Pyx_PyUnicode_AsDouble+0x5fd>
    71e2:	41 83 e4 df          	and    $0xffffffdf,%r12d
    71e6:	41 83 fc 41          	cmp    $0x41,%r12d
    71ea:	0f 85 0d 02 00 00    	jne    73fd <__Pyx_PyUnicode_AsDouble+0x5fd>
    71f0:	f2 0f 10 05 80 c4 00 	movsd  0xc480(%rip),%xmm0        # 13678 <__pyx_k_1+0x2a>
    71f7:	00 
    71f8:	41 83 fe 2d          	cmp    $0x2d,%r14d
    71fc:	0f 84 03 02 00 00    	je     7405 <__Pyx_PyUnicode_AsDouble+0x605>
    7202:	f2 0f 10 05 66 c4 00 	movsd  0xc466(%rip),%xmm0        # 13670 <__pyx_k_1+0x22>
    7209:	00 
    720a:	e9 f6 01 00 00       	jmp    7405 <__Pyx_PyUnicode_AsDouble+0x605>
    720f:	49 83 ff 02          	cmp    $0x2,%r15
    7213:	0f 8e e4 01 00 00    	jle    73fd <__Pyx_PyUnicode_AsDouble+0x5fd>
    7219:	48 8b 74 24 10       	mov    0x10(%rsp),%rsi
    721e:	8b 7c 24 08          	mov    0x8(%rsp),%edi
    7222:	48 8d 53 01          	lea    0x1(%rbx),%rdx
    7226:	e8 18 4f 00 00       	call   c143 <PyUnicode_READ>
    722b:	48 8b 74 24 10       	mov    0x10(%rsp),%rsi
    7230:	8b 7c 24 08          	mov    0x8(%rsp),%edi
    7234:	48 8d 53 02          	lea    0x2(%rbx),%rdx
    7238:	41 89 c4             	mov    %eax,%r12d
    723b:	e8 03 4f 00 00       	call   c143 <PyUnicode_READ>
    7240:	83 e0 df             	and    $0xffffffdf,%eax
    7243:	83 f8 46             	cmp    $0x46,%eax
    7246:	44 89 e0             	mov    %r12d,%eax
    7249:	0f 94 c2             	sete   %dl
    724c:	83 e0 df             	and    $0xffffffdf,%eax
    724f:	83 f8 4e             	cmp    $0x4e,%eax
    7252:	0f 94 c0             	sete   %al
    7255:	21 c2                	and    %eax,%edx
    7257:	41 89 d4             	mov    %edx,%r12d
    725a:	49 83 ff 03          	cmp    $0x3,%r15
    725e:	75 08                	jne    7268 <__Pyx_PyUnicode_AsDouble+0x468>
    7260:	84 d2                	test   %dl,%dl
    7262:	0f 85 af 00 00 00    	jne    7317 <__Pyx_PyUnicode_AsDouble+0x517>
    7268:	49 83 ff 08          	cmp    $0x8,%r15
    726c:	0f 85 8b 01 00 00    	jne    73fd <__Pyx_PyUnicode_AsDouble+0x5fd>
    7272:	48 8b 74 24 10       	mov    0x10(%rsp),%rsi
    7277:	8b 7c 24 08          	mov    0x8(%rsp),%edi
    727b:	48 8d 53 03          	lea    0x3(%rbx),%rdx
    727f:	e8 bf 4e 00 00       	call   c143 <PyUnicode_READ>
    7284:	48 8b 74 24 10       	mov    0x10(%rsp),%rsi
    7289:	8b 7c 24 08          	mov    0x8(%rsp),%edi
    728d:	48 8d 53 04          	lea    0x4(%rbx),%rdx
    7291:	41 89 c5             	mov    %eax,%r13d
    7294:	e8 aa 4e 00 00       	call   c143 <PyUnicode_READ>
    7299:	48 8b 74 24 10       	mov    0x10(%rsp),%rsi
    729e:	8b 7c 24 08          	mov    0x8(%rsp),%edi
    72a2:	83 e0 df             	and    $0xffffffdf,%eax
    72a5:	83 f8 4e             	cmp    $0x4e,%eax
    72a8:	0f 94 c0             	sete   %al
    72ab:	41 83 e5 df          	and    $0xffffffdf,%r13d
    72af:	41 83 fd 49          	cmp    $0x49,%r13d
    72b3:	0f 94 c2             	sete   %dl
    72b6:	21 d0                	and    %edx,%eax
    72b8:	48 8d 53 05          	lea    0x5(%rbx),%rdx
    72bc:	41 21 c4             	and    %eax,%r12d
    72bf:	e8 7f 4e 00 00       	call   c143 <PyUnicode_READ>
    72c4:	48 8b 74 24 10       	mov    0x10(%rsp),%rsi
    72c9:	8b 7c 24 08          	mov    0x8(%rsp),%edi
    72cd:	48 8d 53 06          	lea    0x6(%rbx),%rdx
    72d1:	83 e0 df             	and    $0xffffffdf,%eax
    72d4:	83 f8 49             	cmp    $0x49,%eax
    72d7:	41 0f 94 c5          	sete   %r13b
    72db:	e8 63 4e 00 00       	call   c143 <PyUnicode_READ>
    72e0:	8b 7c 24 08          	mov    0x8(%rsp),%edi
    72e4:	45 21 e5             	and    %r12d,%r13d
    72e7:	48 8d 53 07          	lea    0x7(%rbx),%rdx
    72eb:	83 e0 df             	and    $0xffffffdf,%eax
    72ee:	48 8b 74 24 10       	mov    0x10(%rsp),%rsi
    72f3:	83 f8 54             	cmp    $0x54,%eax
    72f6:	41 0f 94 c4          	sete   %r12b
    72fa:	e8 44 4e 00 00       	call   c143 <PyUnicode_READ>
    72ff:	45 21 ec             	and    %r13d,%r12d
    7302:	83 e0 df             	and    $0xffffffdf,%eax
    7305:	83 f8 59             	cmp    $0x59,%eax
    7308:	0f 85 ef 00 00 00    	jne    73fd <__Pyx_PyUnicode_AsDouble+0x5fd>
    730e:	45 84 e4             	test   %r12b,%r12b
    7311:	0f 84 e6 00 00 00    	je     73fd <__Pyx_PyUnicode_AsDouble+0x5fd>
    7317:	f2 0f 10 05 49 c3 00 	movsd  0xc349(%rip),%xmm0        # 13668 <__pyx_k_1+0x1a>
    731e:	00 
    731f:	41 83 fe 2d          	cmp    $0x2d,%r14d
    7323:	0f 84 dc 00 00 00    	je     7405 <__Pyx_PyUnicode_AsDouble+0x605>
    7329:	f2 0f 10 05 4f c3 00 	movsd  0xc34f(%rip),%xmm0        # 13680 <__pyx_k_1+0x32>
    7330:	00 
    7331:	e9 cf 00 00 00       	jmp    7405 <__Pyx_PyUnicode_AsDouble+0x605>
    7336:	49 83 fd 27          	cmp    $0x27,%r13
    733a:	7f 39                	jg     7375 <__Pyx_PyUnicode_AsDouble+0x575>
    733c:	4c 8b 44 24 18       	mov    0x18(%rsp),%r8
    7341:	8b 74 24 08          	mov    0x8(%rsp),%esi
    7345:	48 8d 5c 24 30       	lea    0x30(%rsp),%rbx
    734a:	4c 89 e1             	mov    %r12,%rcx
    734d:	48 8b 7c 24 10       	mov    0x10(%rsp),%rdi
    7352:	48 89 da             	mov    %rbx,%rdx
    7355:	e8 f8 d6 ff ff       	call   4a52 <__Pyx__PyUnicode_AsDouble_Copy>
    735a:	49 89 c4             	mov    %rax,%r12
    735d:	48 85 c0             	test   %rax,%rax
    7360:	0f 84 97 00 00 00    	je     73fd <__Pyx_PyUnicode_AsDouble+0x5fd>
    7366:	48 8d 74 24 28       	lea    0x28(%rsp),%rsi
    736b:	31 d2                	xor    %edx,%edx
    736d:	48 89 df             	mov    %rbx,%rdi
    7370:	e9 8b fc ff ff       	jmp    7000 <__Pyx_PyUnicode_AsDouble+0x200>
    7375:	49 8d 7d 01          	lea    0x1(%r13),%rdi
    7379:	e8 02 d4 ff ff       	call   4780 <PyMem_Malloc@plt>
    737e:	48 89 c3             	mov    %rax,%rbx
    7381:	48 85 c0             	test   %rax,%rax
    7384:	74 77                	je     73fd <__Pyx_PyUnicode_AsDouble+0x5fd>
    7386:	4c 8b 44 24 18       	mov    0x18(%rsp),%r8
    738b:	8b 74 24 08          	mov    0x8(%rsp),%esi
    738f:	4c 89 e1             	mov    %r12,%rcx
    7392:	48 89 c2             	mov    %rax,%rdx
    7395:	48 8b 7c 24 10       	mov    0x10(%rsp),%rdi
    739a:	e8 b3 d6 ff ff       	call   4a52 <__Pyx__PyUnicode_AsDouble_Copy>
    739f:	49 89 c4             	mov    %rax,%r12
    73a2:	48 85 c0             	test   %rax,%rax
    73a5:	75 0a                	jne    73b1 <__Pyx_PyUnicode_AsDouble+0x5b1>
    73a7:	48 89 df             	mov    %rbx,%rdi
    73aa:	e8 41 cd ff ff       	call   40f0 <PyMem_Free@plt>
    73af:	eb 4c                	jmp    73fd <__Pyx_PyUnicode_AsDouble+0x5fd>
    73b1:	48 89 df             	mov    %rbx,%rdi
    73b4:	48 8d 74 24 28       	lea    0x28(%rsp),%rsi
    73b9:	31 d2                	xor    %edx,%edx
    73bb:	e8 70 cc ff ff       	call   4030 <PyOS_string_to_double@plt>
    73c0:	48 89 df             	mov    %rbx,%rdi
    73c3:	f2 0f 11 44 24 08    	movsd  %xmm0,0x8(%rsp)
    73c9:	e8 22 cd ff ff       	call   40f0 <PyMem_Free@plt>
    73ce:	f2 0f 10 44 24 08    	movsd  0x8(%rsp),%xmm0
    73d4:	4c 39 64 24 28       	cmp    %r12,0x28(%rsp)
    73d9:	74 2a                	je     7405 <__Pyx_PyUnicode_AsDouble+0x605>
    73db:	66 0f 2e 05 6d c2 00 	ucomisd 0xc26d(%rip),%xmm0        # 13650 <__pyx_k_1+0x2>
    73e2:	00 
    73e3:	7a 18                	jp     73fd <__Pyx_PyUnicode_AsDouble+0x5fd>
    73e5:	75 16                	jne    73fd <__Pyx_PyUnicode_AsDouble+0x5fd>
    73e7:	f2 0f 11 44 24 08    	movsd  %xmm0,0x8(%rsp)
    73ed:	e8 fe ce ff ff       	call   42f0 <PyErr_Occurred@plt>
    73f2:	f2 0f 10 44 24 08    	movsd  0x8(%rsp),%xmm0
    73f8:	48 85 c0             	test   %rax,%rax
    73fb:	75 08                	jne    7405 <__Pyx_PyUnicode_AsDouble+0x605>
    73fd:	48 89 ef             	mov    %rbp,%rdi
    7400:	e8 03 d8 ff ff       	call   4c08 <__Pyx_SlowPyString_AsDouble>
    7405:	48 8b 44 24 58       	mov    0x58(%rsp),%rax
    740a:	64 48 2b 04 25 28 00 	sub    %fs:0x28,%rax
    7411:	00 00 
    7413:	74 05                	je     741a <__Pyx_PyUnicode_AsDouble+0x61a>
    7415:	e8 16 d1 ff ff       	call   4530 <__stack_chk_fail@plt>
    741a:	48 83 c4 68          	add    $0x68,%rsp
    741e:	5b                   	pop    %rbx
    741f:	5d                   	pop    %rbp
    7420:	41 5c                	pop    %r12
    7422:	41 5d                	pop    %r13
    7424:	41 5e                	pop    %r14
    7426:	41 5f                	pop    %r15
    7428:	c3                   	ret

0000000000007429 <__pyx_pymod_exec_main>:
    7429:	41 57                	push   %r15
    742b:	31 d2                	xor    %edx,%edx
    742d:	41 56                	push   %r14
    742f:	41 55                	push   %r13
    7431:	41 54                	push   %r12
    7433:	55                   	push   %rbp
    7434:	53                   	push   %rbx
    7435:	48 81 ec 48 01 00 00 	sub    $0x148,%rsp
    743c:	48 8b 1d 5d 0c 01 00 	mov    0x10c5d(%rip),%rbx        # 180a0 <__pyx_m>
    7443:	64 48 8b 04 25 28 00 	mov    %fs:0x28,%rax
    744a:	00 00 
    744c:	48 89 84 24 38 01 00 	mov    %rax,0x138(%rsp)
    7453:	00 
    7454:	31 c0                	xor    %eax,%eax
    7456:	48 89 54 24 28       	mov    %rdx,0x28(%rsp)
    745b:	48 89 54 24 30       	mov    %rdx,0x30(%rsp)
    7460:	48 89 54 24 38       	mov    %rdx,0x38(%rsp)
    7465:	48 89 54 24 40       	mov    %rdx,0x40(%rsp)
    746a:	48 89 54 24 48       	mov    %rdx,0x48(%rsp)
    746f:	48 89 54 24 50       	mov    %rdx,0x50(%rsp)
    7474:	48 85 db             	test   %rbx,%rbx
    7477:	74 24                	je     749d <__pyx_pymod_exec_main+0x74>
    7479:	48 39 fb             	cmp    %rdi,%rbx
    747c:	0f 84 a0 3a 00 00    	je     af22 <__pyx_pymod_exec_main+0x3af9>
    7482:	48 8b 3d 37 02 01 00 	mov    0x10237(%rip),%rdi        # 176c0 <PyExc_RuntimeError@@Base>
    7489:	48 8d 35 81 b5 00 00 	lea    0xb581(%rip),%rsi        # 12a11 <_IO_stdin_used+0xa11>
    7490:	e8 6b d2 ff ff       	call   4700 <PyErr_SetString@plt>
    7495:	83 c8 ff             	or     $0xffffffff,%eax
    7498:	e9 85 3a 00 00       	jmp    af22 <__pyx_pymod_exec_main+0x3af9>
    749d:	8b 07                	mov    (%rdi),%eax
    749f:	48 89 3d fa 0b 01 00 	mov    %rdi,0x10bfa(%rip)        # 180a0 <__pyx_m>
    74a6:	ff c0                	inc    %eax
    74a8:	74 02                	je     74ac <__pyx_pymod_exec_main+0x83>
    74aa:	89 07                	mov    %eax,(%rdi)
    74ac:	e8 4f cf ff ff       	call   4400 <PyModule_GetDict@plt>
    74b1:	48 89 05 a8 07 01 00 	mov    %rax,0x107a8(%rip)        # 17c60 <__pyx_mstate_global_static>
    74b8:	48 85 c0             	test   %rax,%rax
    74bb:	0f 84 13 30 00 00    	je     a4d4 <__pyx_pymod_exec_main+0x30ab>
    74c1:	8b 10                	mov    (%rax),%edx
    74c3:	ff c2                	inc    %edx
    74c5:	74 02                	je     74c9 <__pyx_pymod_exec_main+0xa0>
    74c7:	89 10                	mov    %edx,(%rax)
    74c9:	48 8d 3d 8e b5 00 00 	lea    0xb58e(%rip),%rdi        # 12a5e <_IO_stdin_used+0xa5e>
    74d0:	e8 8b cd ff ff       	call   4260 <PyImport_AddModule@plt>
    74d5:	48 89 c2             	mov    %rax,%rdx
    74d8:	48 89 c7             	mov    %rax,%rdi
    74db:	e8 b9 3c 00 00       	call   b199 <Py_XINCREF>
    74e0:	48 89 15 81 07 01 00 	mov    %rdx,0x10781(%rip)        # 17c68 <__pyx_mstate_global_static+0x8>
    74e7:	48 85 d2             	test   %rdx,%rdx
    74ea:	0f 84 f9 2f 00 00    	je     a4e9 <__pyx_pymod_exec_main+0x30c0>
    74f0:	48 8d 3d 70 b5 00 00 	lea    0xb570(%rip),%rdi        # 12a67 <_IO_stdin_used+0xa67>
    74f7:	e8 64 cd ff ff       	call   4260 <PyImport_AddModule@plt>
    74fc:	48 89 c2             	mov    %rax,%rdx
    74ff:	48 89 c7             	mov    %rax,%rdi
    7502:	e8 92 3c 00 00       	call   b199 <Py_XINCREF>
    7507:	48 89 15 62 07 01 00 	mov    %rdx,0x10762(%rip)        # 17c70 <__pyx_mstate_global_static+0x10>
    750e:	48 85 d2             	test   %rdx,%rdx
    7511:	0f 84 e7 2f 00 00    	je     a4fe <__pyx_pymod_exec_main+0x30d5>
    7517:	48 8b 15 4a 07 01 00 	mov    0x1074a(%rip),%rdx        # 17c68 <__pyx_mstate_global_static+0x8>
    751e:	48 8b 3d 7b 0b 01 00 	mov    0x10b7b(%rip),%rdi        # 180a0 <__pyx_m>
    7525:	48 8d 35 4a b5 00 00 	lea    0xb54a(%rip),%rsi        # 12a76 <_IO_stdin_used+0xa76>
    752c:	e8 0f d0 ff ff       	call   4540 <PyObject_SetAttrString@plt>
    7531:	85 c0                	test   %eax,%eax
    7533:	0f 88 da 2f 00 00    	js     a513 <__pyx_pymod_exec_main+0x30ea>
    7539:	48 8b 05 c0 e7 00 00 	mov    0xe7c0(%rip),%rax        # 15d00 <Py_Version@@Base>
    7540:	30 c0                	xor    %al,%al
    7542:	48 89 c2             	mov    %rax,%rdx
    7545:	48 81 f2 f0 04 0c 03 	xor    $0x30c04f0,%rdx
    754c:	f7 c2 00 00 ff ff    	test   $0xffff0000,%edx
    7552:	75 18                	jne    756c <__pyx_pymod_exec_main+0x143>
    7554:	31 ff                	xor    %edi,%edi
    7556:	e8 45 d1 ff ff       	call   46a0 <PyTuple_New@plt>
    755b:	48 89 05 16 07 01 00 	mov    %rax,0x10716(%rip)        # 17c78 <__pyx_mstate_global_static+0x18>
    7562:	48 85 c0             	test   %rax,%rax
    7565:	75 76                	jne    75dd <__pyx_pymod_exec_main+0x1b4>
    7567:	e9 ba 2f 00 00       	jmp    a526 <__pyx_pymod_exec_main+0x30fd>
    756c:	48 89 c2             	mov    %rax,%rdx
    756f:	48 c1 e8 18          	shr    $0x18,%rax
    7573:	48 8d 6c 24 70       	lea    0x70(%rsp),%rbp
    7578:	41 57                	push   %r15
    757a:	48 c1 ea 10          	shr    $0x10,%rdx
    757e:	be c8 00 00 00       	mov    $0xc8,%esi
    7583:	48 89 ef             	mov    %rbp,%rdi
    7586:	41 b8 0c 00 00 00    	mov    $0xc,%r8d
    758c:	0f b6 d2             	movzbl %dl,%edx
    758f:	4c 8d 0d ec b5 00 00 	lea    0xb5ec(%rip),%r9        # 12b82 <_IO_stdin_used+0xb82>
    7596:	b9 03 00 00 00       	mov    $0x3,%ecx
    759b:	52                   	push   %rdx
    759c:	48 8d 15 e0 b4 00 00 	lea    0xb4e0(%rip),%rdx        # 12a83 <_IO_stdin_used+0xa83>
    75a3:	50                   	push   %rax
    75a4:	48 8d 05 26 b5 00 00 	lea    0xb526(%rip),%rax        # 12ad1 <_IO_stdin_used+0xad1>
    75ab:	50                   	push   %rax
    75ac:	31 c0                	xor    %eax,%eax
    75ae:	e8 5d cc ff ff       	call   4210 <PyOS_snprintf@plt>
    75b3:	48 83 c4 20          	add    $0x20,%rsp
    75b7:	31 ff                	xor    %edi,%edi
    75b9:	ba 01 00 00 00       	mov    $0x1,%edx
    75be:	48 89 ee             	mov    %rbp,%rsi
    75c1:	e8 ea ce ff ff       	call   44b0 <PyErr_WarnEx@plt>
    75c6:	85 c0                	test   %eax,%eax
    75c8:	79 8a                	jns    7554 <__pyx_pymod_exec_main+0x12b>
    75ca:	41 bc 74 14 00 00    	mov    $0x1474,%r12d
    75d0:	41 bd 01 00 00 00    	mov    $0x1,%r13d
    75d6:	31 ed                	xor    %ebp,%ebp
    75d8:	e9 50 38 00 00       	jmp    ae2d <__pyx_pymod_exec_main+0x3a04>
    75dd:	48 8d 2d c9 b1 00 00 	lea    0xb1c9(%rip),%rbp        # 127ad <_IO_stdin_used+0x7ad>
    75e4:	31 f6                	xor    %esi,%esi
    75e6:	48 89 ef             	mov    %rbp,%rdi
    75e9:	e8 b2 cf ff ff       	call   45a0 <PyBytes_FromStringAndSize@plt>
    75ee:	48 89 05 8b 06 01 00 	mov    %rax,0x1068b(%rip)        # 17c80 <__pyx_mstate_global_static+0x20>
    75f5:	48 85 c0             	test   %rax,%rax
    75f8:	0f 84 3d 2f 00 00    	je     a53b <__pyx_pymod_exec_main+0x3112>
    75fe:	31 f6                	xor    %esi,%esi
    7600:	48 89 ef             	mov    %rbp,%rdi
    7603:	e8 38 d1 ff ff       	call   4740 <PyUnicode_FromStringAndSize@plt>
    7608:	48 89 05 79 06 01 00 	mov    %rax,0x10679(%rip)        # 17c88 <__pyx_mstate_global_static+0x28>
    760f:	48 85 c0             	test   %rax,%rax
    7612:	0f 84 38 2f 00 00    	je     a550 <__pyx_pymod_exec_main+0x3127>
    7618:	48 8d 3d c1 b4 00 00 	lea    0xb4c1(%rip),%rdi        # 12ae0 <_IO_stdin_used+0xae0>
    761f:	e8 3c cc ff ff       	call   4260 <PyImport_AddModule@plt>
    7624:	48 89 c5             	mov    %rax,%rbp
    7627:	48 89 c7             	mov    %rax,%rdi
    762a:	e8 6a 3b 00 00       	call   b199 <Py_XINCREF>
    762f:	48 85 ed             	test   %rbp,%rbp
    7632:	0f 84 f4 00 00 00    	je     772c <__pyx_pymod_exec_main+0x303>
    7638:	4c 8b 2d d9 ed 00 00 	mov    0xedd9(%rip),%r13        # 16418 <__pyx_CyFunctionType_type+0x18>
    763f:	be 2e 00 00 00       	mov    $0x2e,%esi
    7644:	4c 89 ef             	mov    %r13,%rdi
    7647:	e8 44 cd ff ff       	call   4390 <strrchr@plt>
    764c:	48 85 c0             	test   %rax,%rax
    764f:	74 04                	je     7655 <__pyx_pymod_exec_main+0x22c>
    7651:	4c 8d 68 01          	lea    0x1(%rax),%r13
    7655:	4c 89 ee             	mov    %r13,%rsi
    7658:	48 89 ef             	mov    %rbp,%rdi
    765b:	e8 b0 ce ff ff       	call   4510 <PyObject_GetAttrString@plt>
    7660:	49 89 c4             	mov    %rax,%r12
    7663:	48 85 c0             	test   %rax,%rax
    7666:	74 47                	je     76af <__pyx_pymod_exec_main+0x286>
    7668:	49 8b 4c 24 08       	mov    0x8(%r12),%rcx
    766d:	48 8b 15 ac ed 00 00 	mov    0xedac(%rip),%rdx        # 16420 <__pyx_CyFunctionType_type+0x20>
    7674:	48 8b 40 20          	mov    0x20(%rax),%rax
    7678:	f6 81 ab 00 00 00 80 	testb  $0x80,0xab(%rcx)
    767f:	75 0c                	jne    768d <__pyx_pymod_exec_main+0x264>
    7681:	4c 89 ea             	mov    %r13,%rdx
    7684:	48 8d 35 64 b4 00 00 	lea    0xb464(%rip),%rsi        # 12aef <_IO_stdin_used+0xaef>
    768b:	eb 0f                	jmp    769c <__pyx_pymod_exec_main+0x273>
    768d:	48 39 c2             	cmp    %rax,%rdx
    7690:	74 7a                	je     770c <__pyx_pymod_exec_main+0x2e3>
    7692:	4c 89 ea             	mov    %r13,%rdx
    7695:	48 8d 35 82 b4 00 00 	lea    0xb482(%rip),%rsi        # 12b1e <_IO_stdin_used+0xb1e>
    769c:	48 8b 3d 7d f7 00 00 	mov    0xf77d(%rip),%rdi        # 16e20 <PyExc_TypeError@@Base>
    76a3:	31 c0                	xor    %eax,%eax
    76a5:	e8 e6 cb ff ff       	call   4290 <PyErr_Format@plt>
    76aa:	e9 63 38 00 00       	jmp    af12 <__pyx_pymod_exec_main+0x3ae9>
    76af:	48 8b 3d 82 03 01 00 	mov    0x10382(%rip),%rdi        # 17a38 <PyExc_AttributeError@@Base>
    76b6:	e8 25 cc ff ff       	call   42e0 <PyErr_ExceptionMatches@plt>
    76bb:	85 c0                	test   %eax,%eax
    76bd:	0f 84 4f 38 00 00    	je     af12 <__pyx_pymod_exec_main+0x3ae9>
    76c3:	e8 c8 cf ff ff       	call   4690 <PyErr_Clear@plt>
    76c8:	4c 8d 35 31 ed 00 00 	lea    0xed31(%rip),%r14        # 16400 <__pyx_CyFunctionType_type>
    76cf:	4c 89 f7             	mov    %r14,%rdi
    76d2:	e8 e9 c9 ff ff       	call   40c0 <PyType_Ready@plt>
    76d7:	85 c0                	test   %eax,%eax
    76d9:	0f 88 33 38 00 00    	js     af12 <__pyx_pymod_exec_main+0x3ae9>
    76df:	4c 89 f2             	mov    %r14,%rdx
    76e2:	4c 89 ee             	mov    %r13,%rsi
    76e5:	48 89 ef             	mov    %rbp,%rdi
    76e8:	e8 53 ce ff ff       	call   4540 <PyObject_SetAttrString@plt>
    76ed:	85 c0                	test   %eax,%eax
    76ef:	0f 88 1d 38 00 00    	js     af12 <__pyx_pymod_exec_main+0x3ae9>
    76f5:	8b 05 05 ed 00 00    	mov    0xed05(%rip),%eax        # 16400 <__pyx_CyFunctionType_type>
    76fb:	ff c0                	inc    %eax
    76fd:	74 06                	je     7705 <__pyx_pymod_exec_main+0x2dc>
    76ff:	89 05 fb ec 00 00    	mov    %eax,0xecfb(%rip)        # 16400 <__pyx_CyFunctionType_type>
    7705:	4c 8d 25 f4 ec 00 00 	lea    0xecf4(%rip),%r12        # 16400 <__pyx_CyFunctionType_type>
    770c:	48 8b 45 00          	mov    0x0(%rbp),%rax
    7710:	85 c0                	test   %eax,%eax
    7712:	78 09                	js     771d <__pyx_pymod_exec_main+0x2f4>
    7714:	48 ff c8             	dec    %rax
    7717:	48 89 45 00          	mov    %rax,0x0(%rbp)
    771b:	74 05                	je     7722 <__pyx_pymod_exec_main+0x2f9>
    771d:	4c 89 e5             	mov    %r12,%rbp
    7720:	eb 0a                	jmp    772c <__pyx_pymod_exec_main+0x303>
    7722:	48 89 ef             	mov    %rbp,%rdi
    7725:	e8 26 cf ff ff       	call   4650 <_Py_Dealloc@plt>
    772a:	eb f1                	jmp    771d <__pyx_pymod_exec_main+0x2f4>
    772c:	48 89 2d 5d 05 01 00 	mov    %rbp,0x1055d(%rip)        # 17c90 <__pyx_mstate_global_static+0x30>
    7733:	48 85 ed             	test   %rbp,%rbp
    7736:	0f 84 29 2e 00 00    	je     a565 <__pyx_pymod_exec_main+0x313c>
    773c:	e8 12 d6 ff ff       	call   4d53 <__Pyx_CreateStringTabAndInitStrings.isra.0>
    7741:	f2 0f 10 05 3f bf 00 	movsd  0xbf3f(%rip),%xmm0        # 13688 <__pyx_k_1+0x3a>
    7748:	00 
    7749:	e8 52 cb ff ff       	call   42a0 <PyFloat_FromDouble@plt>
    774e:	48 89 05 6b 08 01 00 	mov    %rax,0x1086b(%rip)        # 17fc0 <__pyx_mstate_global_static+0x360>
    7755:	48 85 c0             	test   %rax,%rax
    7758:	0f 84 a1 37 00 00    	je     aeff <__pyx_pymod_exec_main+0x3ad6>
    775e:	f2 0f 10 05 fa be 00 	movsd  0xbefa(%rip),%xmm0        # 13660 <__pyx_k_1+0x12>
    7765:	00 
    7766:	e8 35 cb ff ff       	call   42a0 <PyFloat_FromDouble@plt>
    776b:	48 89 05 56 08 01 00 	mov    %rax,0x10856(%rip)        # 17fc8 <__pyx_mstate_global_static+0x368>
    7772:	48 85 c0             	test   %rax,%rax
    7775:	0f 84 84 37 00 00    	je     aeff <__pyx_pymod_exec_main+0x3ad6>
    777b:	31 ff                	xor    %edi,%edi
    777d:	e8 6e ce ff ff       	call   45f0 <PyLong_FromLong@plt>
    7782:	48 89 05 47 08 01 00 	mov    %rax,0x10847(%rip)        # 17fd0 <__pyx_mstate_global_static+0x370>
    7789:	48 85 c0             	test   %rax,%rax
    778c:	0f 84 6d 37 00 00    	je     aeff <__pyx_pymod_exec_main+0x3ad6>
    7792:	bf 01 00 00 00       	mov    $0x1,%edi
    7797:	e8 54 ce ff ff       	call   45f0 <PyLong_FromLong@plt>
    779c:	48 89 05 35 08 01 00 	mov    %rax,0x10835(%rip)        # 17fd8 <__pyx_mstate_global_static+0x378>
    77a3:	48 85 c0             	test   %rax,%rax
    77a6:	0f 84 53 37 00 00    	je     aeff <__pyx_pymod_exec_main+0x3ad6>
    77ac:	bf 64 00 00 00       	mov    $0x64,%edi
    77b1:	e8 3a ce ff ff       	call   45f0 <PyLong_FromLong@plt>
    77b6:	48 89 05 23 08 01 00 	mov    %rax,0x10823(%rip)        # 17fe0 <__pyx_mstate_global_static+0x380>
    77bd:	48 85 c0             	test   %rax,%rax
    77c0:	0f 84 39 37 00 00    	je     aeff <__pyx_pymod_exec_main+0x3ad6>
    77c6:	bf c8 00 00 00       	mov    $0xc8,%edi
    77cb:	e8 20 ce ff ff       	call   45f0 <PyLong_FromLong@plt>
    77d0:	48 89 05 11 08 01 00 	mov    %rax,0x10811(%rip)        # 17fe8 <__pyx_mstate_global_static+0x388>
    77d7:	48 85 c0             	test   %rax,%rax
    77da:	0f 84 1f 37 00 00    	je     aeff <__pyx_pymod_exec_main+0x3ad6>
    77e0:	bf 90 01 00 00       	mov    $0x190,%edi
    77e5:	e8 06 ce ff ff       	call   45f0 <PyLong_FromLong@plt>
    77ea:	48 89 05 ff 07 01 00 	mov    %rax,0x107ff(%rip)        # 17ff0 <__pyx_mstate_global_static+0x390>
    77f1:	48 85 c0             	test   %rax,%rax
    77f4:	0f 84 05 37 00 00    	je     aeff <__pyx_pymod_exec_main+0x3ad6>
    77fa:	bf 00 c2 01 00       	mov    $0x1c200,%edi
    77ff:	e8 ec cd ff ff       	call   45f0 <PyLong_FromLong@plt>
    7804:	48 89 05 ed 07 01 00 	mov    %rax,0x107ed(%rip)        # 17ff8 <__pyx_mstate_global_static+0x398>
    780b:	48 85 c0             	test   %rax,%rax
    780e:	0f 84 eb 36 00 00    	je     aeff <__pyx_pymod_exec_main+0x3ad6>
    7814:	83 3d 05 04 01 00 00 	cmpl   $0x0,0x10405(%rip)        # 17c20 <__pyx_module_is_main_main>
    781b:	75 13                	jne    7830 <__pyx_pymod_exec_main+0x407>
    781d:	e8 9e ce ff ff       	call   46c0 <PyImport_GetModuleDict@plt>
    7822:	48 89 c5             	mov    %rax,%rbp
    7825:	48 85 c0             	test   %rax,%rax
    7828:	0f 84 4c 2d 00 00    	je     a57a <__pyx_pymod_exec_main+0x3151>
    782e:	eb 34                	jmp    7864 <__pyx_pymod_exec_main+0x43b>
    7830:	48 8b 15 31 06 01 00 	mov    0x10631(%rip),%rdx        # 17e68 <__pyx_mstate_global_static+0x208>
    7837:	48 8b 35 72 06 01 00 	mov    0x10672(%rip),%rsi        # 17eb0 <__pyx_mstate_global_static+0x250>
    783e:	48 8b 3d 5b 08 01 00 	mov    0x1085b(%rip),%rdi        # 180a0 <__pyx_m>
    7845:	e8 16 cd ff ff       	call   4560 <PyObject_SetAttr@plt>
    784a:	85 c0                	test   %eax,%eax
    784c:	79 cf                	jns    781d <__pyx_pymod_exec_main+0x3f4>
    784e:	41 bc 9a 14 00 00    	mov    $0x149a,%r12d
    7854:	41 bd 01 00 00 00    	mov    $0x1,%r13d
    785a:	bd 01 00 00 00       	mov    $0x1,%ebp
    785f:	e9 c9 35 00 00       	jmp    ae2d <__pyx_pymod_exec_main+0x3a04>
    7864:	4c 8d 25 17 b3 00 00 	lea    0xb317(%rip),%r12        # 12b82 <_IO_stdin_used+0xb82>
    786b:	48 89 c7             	mov    %rax,%rdi
    786e:	4c 89 e6             	mov    %r12,%rsi
    7871:	e8 3a cd ff ff       	call   45b0 <PyDict_GetItemString@plt>
    7876:	48 85 c0             	test   %rax,%rax
    7879:	74 1e                	je     7899 <__pyx_pymod_exec_main+0x470>
    787b:	48 8b 3d 46 06 01 00 	mov    0x10646(%rip),%rdi        # 17ec8 <__pyx_mstate_global_static+0x268>
    7882:	e8 b9 58 00 00       	call   d140 <__Pyx_GetBuiltinName>
    7887:	48 89 05 fa 07 01 00 	mov    %rax,0x107fa(%rip)        # 18088 <__pyx_builtin_print>
    788e:	48 85 c0             	test   %rax,%rax
    7891:	0f 84 fb 2c 00 00    	je     a592 <__pyx_pymod_exec_main+0x3169>
    7897:	eb 2e                	jmp    78c7 <__pyx_pymod_exec_main+0x49e>
    7899:	48 8b 15 00 08 01 00 	mov    0x10800(%rip),%rdx        # 180a0 <__pyx_m>
    78a0:	4c 89 e6             	mov    %r12,%rsi
    78a3:	48 89 ef             	mov    %rbp,%rdi
    78a6:	e8 a5 c7 ff ff       	call   4050 <PyDict_SetItemString@plt>
    78ab:	85 c0                	test   %eax,%eax
    78ad:	79 cc                	jns    787b <__pyx_pymod_exec_main+0x452>
    78af:	31 db                	xor    %ebx,%ebx
    78b1:	41 bc a0 14 00 00    	mov    $0x14a0,%r12d
    78b7:	41 bd 01 00 00 00    	mov    $0x1,%r13d
    78bd:	bd 01 00 00 00       	mov    $0x1,%ebp
    78c2:	e9 66 35 00 00       	jmp    ae2d <__pyx_pymod_exec_main+0x3a04>
    78c7:	48 8b 15 e2 03 01 00 	mov    0x103e2(%rip),%rdx        # 17cb0 <__pyx_mstate_global_static+0x50>
    78ce:	48 8b 35 a3 04 01 00 	mov    0x104a3(%rip),%rsi        # 17d78 <__pyx_mstate_global_static+0x118>
    78d5:	bf 02 00 00 00       	mov    $0x2,%edi
    78da:	31 c0                	xor    %eax,%eax
    78dc:	e8 cf ca ff ff       	call   43b0 <PyTuple_Pack@plt>
    78e1:	48 89 05 18 07 01 00 	mov    %rax,0x10718(%rip)        # 18000 <__pyx_mstate_global_static+0x3a0>
    78e8:	48 85 c0             	test   %rax,%rax
    78eb:	0f 84 f8 35 00 00    	je     aee9 <__pyx_pymod_exec_main+0x3ac0>
    78f1:	48 8b 35 30 06 01 00 	mov    0x10630(%rip),%rsi        # 17f28 <__pyx_mstate_global_static+0x2c8>
    78f8:	bf 01 00 00 00       	mov    $0x1,%edi
    78fd:	31 c0                	xor    %eax,%eax
    78ff:	e8 ac ca ff ff       	call   43b0 <PyTuple_Pack@plt>
    7904:	48 89 05 fd 06 01 00 	mov    %rax,0x106fd(%rip)        # 18008 <__pyx_mstate_global_static+0x3a8>
    790b:	48 85 c0             	test   %rax,%rax
    790e:	0f 84 d5 35 00 00    	je     aee9 <__pyx_pymod_exec_main+0x3ac0>
    7914:	48 8b 35 7d 04 01 00 	mov    0x1047d(%rip),%rsi        # 17d98 <__pyx_mstate_global_static+0x138>
    791b:	bf 02 00 00 00       	mov    $0x2,%edi
    7920:	31 c0                	xor    %eax,%eax
    7922:	48 89 f2             	mov    %rsi,%rdx
    7925:	e8 86 ca ff ff       	call   43b0 <PyTuple_Pack@plt>
    792a:	48 89 05 df 06 01 00 	mov    %rax,0x106df(%rip)        # 18010 <__pyx_mstate_global_static+0x3b0>
    7931:	48 85 c0             	test   %rax,%rax
    7934:	0f 84 af 35 00 00    	je     aee9 <__pyx_pymod_exec_main+0x3ac0>
    793a:	48 8b 0d 17 05 01 00 	mov    0x10517(%rip),%rcx        # 17e58 <__pyx_mstate_global_static+0x1f8>
    7941:	48 8b 15 48 06 01 00 	mov    0x10648(%rip),%rdx        # 17f90 <__pyx_mstate_global_static+0x330>
    7948:	bf 03 00 00 00       	mov    $0x3,%edi
    794d:	31 c0                	xor    %eax,%eax
    794f:	48 8b 35 ca 05 01 00 	mov    0x105ca(%rip),%rsi        # 17f20 <__pyx_mstate_global_static+0x2c0>
    7956:	e8 55 ca ff ff       	call   43b0 <PyTuple_Pack@plt>
    795b:	48 89 05 b6 06 01 00 	mov    %rax,0x106b6(%rip)        # 18018 <__pyx_mstate_global_static+0x3b8>
    7962:	48 85 c0             	test   %rax,%rax
    7965:	0f 84 7e 35 00 00    	je     aee9 <__pyx_pymod_exec_main+0x3ac0>
    796b:	48 8b 15 46 05 01 00 	mov    0x10546(%rip),%rdx        # 17eb8 <__pyx_mstate_global_static+0x258>
    7972:	48 8b 35 47 05 01 00 	mov    0x10547(%rip),%rsi        # 17ec0 <__pyx_mstate_global_static+0x260>
    7979:	bf 02 00 00 00       	mov    $0x2,%edi
    797e:	31 c0                	xor    %eax,%eax
    7980:	e8 2b ca ff ff       	call   43b0 <PyTuple_Pack@plt>
    7985:	48 89 05 94 06 01 00 	mov    %rax,0x10694(%rip)        # 18020 <__pyx_mstate_global_static+0x3c0>
    798c:	49 89 c1             	mov    %rax,%r9
    798f:	48 85 c0             	test   %rax,%rax
    7992:	0f 84 51 35 00 00    	je     aee9 <__pyx_pymod_exec_main+0x3ac0>
    7998:	48 8b 0d d9 02 01 00 	mov    0x102d9(%rip),%rcx        # 17c78 <__pyx_mstate_global_static+0x18>
    799f:	48 8b 15 da 02 01 00 	mov    0x102da(%rip),%rdx        # 17c80 <__pyx_mstate_global_static+0x20>
    79a6:	be 02 00 00 00       	mov    $0x2,%esi
    79ab:	31 ff                	xor    %edi,%edi
    79ad:	52                   	push   %rdx
    79ae:	49 89 c8             	mov    %rcx,%r8
    79b1:	6a 12                	push   $0x12
    79b3:	ff 35 27 04 01 00    	push   0x10427(%rip)        # 17de0 <__pyx_mstate_global_static+0x180>
    79b9:	ff 35 b9 04 01 00    	push   0x104b9(%rip)        # 17e78 <__pyx_mstate_global_static+0x218>
    79bf:	51                   	push   %rcx
    79c0:	51                   	push   %rcx
    79c1:	e8 7c d1 ff ff       	call   4b42 <__Pyx_PyCode_New.constprop.0>
    79c6:	48 83 c4 30          	add    $0x30,%rsp
    79ca:	48 89 05 8f 06 01 00 	mov    %rax,0x1068f(%rip)        # 18060 <__pyx_mstate_global_static+0x400>
    79d1:	48 85 c0             	test   %rax,%rax
    79d4:	0f 84 0f 35 00 00    	je     aee9 <__pyx_pymod_exec_main+0x3ac0>
    79da:	48 8b 35 d7 04 01 00 	mov    0x104d7(%rip),%rsi        # 17eb8 <__pyx_mstate_global_static+0x258>
    79e1:	bf 01 00 00 00       	mov    $0x1,%edi
    79e6:	31 c0                	xor    %eax,%eax
    79e8:	e8 c3 c9 ff ff       	call   43b0 <PyTuple_Pack@plt>
    79ed:	48 89 05 34 06 01 00 	mov    %rax,0x10634(%rip)        # 18028 <__pyx_mstate_global_static+0x3c8>
    79f4:	49 89 c1             	mov    %rax,%r9
    79f7:	48 85 c0             	test   %rax,%rax
    79fa:	0f 84 e9 34 00 00    	je     aee9 <__pyx_pymod_exec_main+0x3ac0>
    7a00:	48 8b 0d 71 02 01 00 	mov    0x10271(%rip),%rcx        # 17c78 <__pyx_mstate_global_static+0x18>
    7a07:	48 8b 15 72 02 01 00 	mov    0x10272(%rip),%rdx        # 17c80 <__pyx_mstate_global_static+0x20>
    7a0e:	be 01 00 00 00       	mov    $0x1,%esi
    7a13:	31 ff                	xor    %edi,%edi
    7a15:	52                   	push   %rdx
    7a16:	49 89 c8             	mov    %rcx,%r8
    7a19:	6a 17                	push   $0x17
    7a1b:	ff 35 4f 03 01 00    	push   0x1034f(%rip)        # 17d70 <__pyx_mstate_global_static+0x110>
    7a21:	ff 35 51 04 01 00    	push   0x10451(%rip)        # 17e78 <__pyx_mstate_global_static+0x218>
    7a27:	51                   	push   %rcx
    7a28:	51                   	push   %rcx
    7a29:	e8 14 d1 ff ff       	call   4b42 <__Pyx_PyCode_New.constprop.0>
    7a2e:	48 83 c4 30          	add    $0x30,%rsp
    7a32:	48 89 05 2f 06 01 00 	mov    %rax,0x1062f(%rip)        # 18068 <__pyx_mstate_global_static+0x408>
    7a39:	48 85 c0             	test   %rax,%rax
    7a3c:	0f 84 a7 34 00 00    	je     aee9 <__pyx_pymod_exec_main+0x3ac0>
    7a42:	48 8b 0d 2f 02 01 00 	mov    0x1022f(%rip),%rcx        # 17c78 <__pyx_mstate_global_static+0x18>
    7a49:	48 8b 15 30 02 01 00 	mov    0x10230(%rip),%rdx        # 17c80 <__pyx_mstate_global_static+0x20>
    7a50:	31 f6                	xor    %esi,%esi
    7a52:	31 ff                	xor    %edi,%edi
    7a54:	52                   	push   %rdx
    7a55:	49 89 c9             	mov    %rcx,%r9
    7a58:	49 89 c8             	mov    %rcx,%r8
    7a5b:	6a 21                	push   $0x21
    7a5d:	ff 35 a5 04 01 00    	push   0x104a5(%rip)        # 17f08 <__pyx_mstate_global_static+0x2a8>
    7a63:	ff 35 0f 04 01 00    	push   0x1040f(%rip)        # 17e78 <__pyx_mstate_global_static+0x218>
    7a69:	51                   	push   %rcx
    7a6a:	51                   	push   %rcx
    7a6b:	e8 d2 d0 ff ff       	call   4b42 <__Pyx_PyCode_New.constprop.0>
    7a70:	48 83 c4 30          	add    $0x30,%rsp
    7a74:	48 89 05 f5 05 01 00 	mov    %rax,0x105f5(%rip)        # 18070 <__pyx_mstate_global_static+0x410>
    7a7b:	48 85 c0             	test   %rax,%rax
    7a7e:	0f 84 65 34 00 00    	je     aee9 <__pyx_pymod_exec_main+0x3ac0>
    7a84:	48 8b 35 1d 04 01 00 	mov    0x1041d(%rip),%rsi        # 17ea8 <__pyx_mstate_global_static+0x248>
    7a8b:	bf 01 00 00 00       	mov    $0x1,%edi
    7a90:	31 c0                	xor    %eax,%eax
    7a92:	e8 19 c9 ff ff       	call   43b0 <PyTuple_Pack@plt>
    7a97:	48 89 05 92 05 01 00 	mov    %rax,0x10592(%rip)        # 18030 <__pyx_mstate_global_static+0x3d0>
    7a9e:	49 89 c1             	mov    %rax,%r9
    7aa1:	48 85 c0             	test   %rax,%rax
    7aa4:	0f 84 3f 34 00 00    	je     aee9 <__pyx_pymod_exec_main+0x3ac0>
    7aaa:	48 8b 0d c7 01 01 00 	mov    0x101c7(%rip),%rcx        # 17c78 <__pyx_mstate_global_static+0x18>
    7ab1:	be 01 00 00 00       	mov    $0x1,%esi
    7ab6:	bf 01 00 00 00       	mov    $0x1,%edi
    7abb:	48 8b 15 be 01 01 00 	mov    0x101be(%rip),%rdx        # 17c80 <__pyx_mstate_global_static+0x20>
    7ac2:	52                   	push   %rdx
    7ac3:	49 89 c8             	mov    %rcx,%r8
    7ac6:	6a 25                	push   $0x25
    7ac8:	ff 35 22 04 01 00    	push   0x10422(%rip)        # 17ef0 <__pyx_mstate_global_static+0x290>
    7ace:	ff 35 a4 03 01 00    	push   0x103a4(%rip)        # 17e78 <__pyx_mstate_global_static+0x218>
    7ad4:	51                   	push   %rcx
    7ad5:	51                   	push   %rcx
    7ad6:	e8 67 d0 ff ff       	call   4b42 <__Pyx_PyCode_New.constprop.0>
    7adb:	48 83 c4 30          	add    $0x30,%rsp
    7adf:	48 89 05 92 05 01 00 	mov    %rax,0x10592(%rip)        # 18078 <__pyx_mstate_global_static+0x418>
    7ae6:	48 85 c0             	test   %rax,%rax
    7ae9:	0f 84 fa 33 00 00    	je     aee9 <__pyx_pymod_exec_main+0x3ac0>
    7aef:	48 8b 35 e2 01 01 00 	mov    0x101e2(%rip),%rsi        # 17cd8 <__pyx_mstate_global_static+0x78>
    7af6:	bf 01 00 00 00       	mov    $0x1,%edi
    7afb:	31 c0                	xor    %eax,%eax
    7afd:	e8 ae c8 ff ff       	call   43b0 <PyTuple_Pack@plt>
    7b02:	48 89 05 2f 05 01 00 	mov    %rax,0x1052f(%rip)        # 18038 <__pyx_mstate_global_static+0x3d8>
    7b09:	48 85 c0             	test   %rax,%rax
    7b0c:	0f 84 d7 33 00 00    	je     aee9 <__pyx_pymod_exec_main+0x3ac0>
    7b12:	48 8b 15 7f 04 01 00 	mov    0x1047f(%rip),%rdx        # 17f98 <__pyx_mstate_global_static+0x338>
    7b19:	48 8b 35 20 03 01 00 	mov    0x10320(%rip),%rsi        # 17e40 <__pyx_mstate_global_static+0x1e0>
    7b20:	bf 02 00 00 00       	mov    $0x2,%edi
    7b25:	31 c0                	xor    %eax,%eax
    7b27:	e8 84 c8 ff ff       	call   43b0 <PyTuple_Pack@plt>
    7b2c:	48 89 05 0d 05 01 00 	mov    %rax,0x1050d(%rip)        # 18040 <__pyx_mstate_global_static+0x3e0>
    7b33:	49 89 c1             	mov    %rax,%r9
    7b36:	48 85 c0             	test   %rax,%rax
    7b39:	0f 84 aa 33 00 00    	je     aee9 <__pyx_pymod_exec_main+0x3ac0>
    7b3f:	48 8b 0d 32 01 01 00 	mov    0x10132(%rip),%rcx        # 17c78 <__pyx_mstate_global_static+0x18>
    7b46:	48 8b 15 33 01 01 00 	mov    0x10133(%rip),%rdx        # 17c80 <__pyx_mstate_global_static+0x20>
    7b4d:	be 02 00 00 00       	mov    $0x2,%esi
    7b52:	31 ff                	xor    %edi,%edi
    7b54:	52                   	push   %rdx
    7b55:	49 89 c8             	mov    %rcx,%r8
    7b58:	6a 4b                	push   $0x4b
    7b5a:	ff 35 e0 01 01 00    	push   0x101e0(%rip)        # 17d40 <__pyx_mstate_global_static+0xe0>
    7b60:	ff 35 12 03 01 00    	push   0x10312(%rip)        # 17e78 <__pyx_mstate_global_static+0x218>
    7b66:	51                   	push   %rcx
    7b67:	51                   	push   %rcx
    7b68:	e8 d5 cf ff ff       	call   4b42 <__Pyx_PyCode_New.constprop.0>
    7b6d:	48 83 c4 30          	add    $0x30,%rsp
    7b71:	48 89 05 08 05 01 00 	mov    %rax,0x10508(%rip)        # 18080 <__pyx_mstate_global_static+0x420>
    7b78:	48 85 c0             	test   %rax,%rax
    7b7b:	0f 84 68 33 00 00    	je     aee9 <__pyx_pymod_exec_main+0x3ac0>
    7b81:	48 8b 35 08 02 01 00 	mov    0x10208(%rip),%rsi        # 17d90 <__pyx_mstate_global_static+0x130>
    7b88:	bf 01 00 00 00       	mov    $0x1,%edi
    7b8d:	31 c0                	xor    %eax,%eax
    7b8f:	e8 1c c8 ff ff       	call   43b0 <PyTuple_Pack@plt>
    7b94:	48 89 05 ad 04 01 00 	mov    %rax,0x104ad(%rip)        # 18048 <__pyx_mstate_global_static+0x3e8>
    7b9b:	48 85 c0             	test   %rax,%rax
    7b9e:	0f 84 45 33 00 00    	je     aee9 <__pyx_pymod_exec_main+0x3ac0>
    7ba4:	4c 8d 25 75 fe 00 00 	lea    0xfe75(%rip),%r12        # 17a20 <_Py_NoneStruct@@Base>
    7bab:	bf 03 00 00 00       	mov    $0x3,%edi
    7bb0:	31 c0                	xor    %eax,%eax
    7bb2:	4c 89 e1             	mov    %r12,%rcx
    7bb5:	4c 89 e2             	mov    %r12,%rdx
    7bb8:	4c 89 e6             	mov    %r12,%rsi
    7bbb:	e8 f0 c7 ff ff       	call   43b0 <PyTuple_Pack@plt>
    7bc0:	48 89 05 89 04 01 00 	mov    %rax,0x10489(%rip)        # 18050 <__pyx_mstate_global_static+0x3f0>
    7bc7:	48 85 c0             	test   %rax,%rax
    7bca:	0f 84 19 33 00 00    	je     aee9 <__pyx_pymod_exec_main+0x3ac0>
    7bd0:	48 8b 35 a9 02 01 00 	mov    0x102a9(%rip),%rsi        # 17e80 <__pyx_mstate_global_static+0x220>
    7bd7:	48 8d 15 22 f9 00 00 	lea    0xf922(%rip),%rdx        # 17500 <_Py_TrueStruct@@Base>
    7bde:	bf 02 00 00 00       	mov    $0x2,%edi
    7be3:	31 c0                	xor    %eax,%eax
    7be5:	e8 c6 c7 ff ff       	call   43b0 <PyTuple_Pack@plt>
    7bea:	48 89 05 67 04 01 00 	mov    %rax,0x10467(%rip)        # 18058 <__pyx_mstate_global_static+0x3f8>
    7bf1:	48 85 c0             	test   %rax,%rax
    7bf4:	0f 84 b0 29 00 00    	je     a5aa <__pyx_pymod_exec_main+0x3181>
    7bfa:	48 8b 35 0f 04 01 00 	mov    0x1040f(%rip),%rsi        # 18010 <__pyx_mstate_global_static+0x3b0>
    7c01:	48 8b 3d 98 01 01 00 	mov    0x10198(%rip),%rdi        # 17da0 <__pyx_mstate_global_static+0x140>
    7c08:	e8 53 ef ff ff       	call   6b60 <__Pyx_ImportDottedModule>
    7c0d:	48 89 c5             	mov    %rax,%rbp
    7c10:	48 85 c0             	test   %rax,%rax
    7c13:	0f 84 a9 29 00 00    	je     a5c2 <__pyx_pymod_exec_main+0x3199>
    7c19:	48 8b 35 a8 01 01 00 	mov    0x101a8(%rip),%rsi        # 17dc8 <__pyx_mstate_global_static+0x168>
    7c20:	48 8b 3d 39 00 01 00 	mov    0x10039(%rip),%rdi        # 17c60 <__pyx_mstate_global_static>
    7c27:	48 89 c2             	mov    %rax,%rdx
    7c2a:	e8 81 cb ff ff       	call   47b0 <PyDict_SetItem@plt>
    7c2f:	85 c0                	test   %eax,%eax
    7c31:	0f 88 a3 29 00 00    	js     a5da <__pyx_pymod_exec_main+0x31b1>
    7c37:	48 8b 45 00          	mov    0x0(%rbp),%rax
    7c3b:	85 c0                	test   %eax,%eax
    7c3d:	78 11                	js     7c50 <__pyx_pymod_exec_main+0x827>
    7c3f:	48 ff c8             	dec    %rax
    7c42:	48 89 45 00          	mov    %rax,0x0(%rbp)
    7c46:	75 08                	jne    7c50 <__pyx_pymod_exec_main+0x827>
    7c48:	48 89 ef             	mov    %rbp,%rdi
    7c4b:	e8 00 ca ff ff       	call   4650 <_Py_Dealloc@plt>
    7c50:	48 8b 3d c9 02 01 00 	mov    0x102c9(%rip),%rdi        # 17f20 <__pyx_mstate_global_static+0x2c0>
    7c57:	31 f6                	xor    %esi,%esi
    7c59:	e8 02 ef ff ff       	call   6b60 <__Pyx_ImportDottedModule>
    7c5e:	48 89 c5             	mov    %rax,%rbp
    7c61:	48 85 c0             	test   %rax,%rax
    7c64:	0f 84 89 29 00 00    	je     a5f3 <__pyx_pymod_exec_main+0x31ca>
    7c6a:	48 8b 35 af 02 01 00 	mov    0x102af(%rip),%rsi        # 17f20 <__pyx_mstate_global_static+0x2c0>
    7c71:	48 8b 3d e8 ff 00 00 	mov    0xffe8(%rip),%rdi        # 17c60 <__pyx_mstate_global_static>
    7c78:	48 89 c2             	mov    %rax,%rdx
    7c7b:	e8 30 cb ff ff       	call   47b0 <PyDict_SetItem@plt>
    7c80:	85 c0                	test   %eax,%eax
    7c82:	0f 88 83 29 00 00    	js     a60b <__pyx_pymod_exec_main+0x31e2>
    7c88:	48 8b 45 00          	mov    0x0(%rbp),%rax
    7c8c:	85 c0                	test   %eax,%eax
    7c8e:	78 11                	js     7ca1 <__pyx_pymod_exec_main+0x878>
    7c90:	48 ff c8             	dec    %rax
    7c93:	48 89 45 00          	mov    %rax,0x0(%rbp)
    7c97:	75 08                	jne    7ca1 <__pyx_pymod_exec_main+0x878>
    7c99:	48 89 ef             	mov    %rbp,%rdi
    7c9c:	e8 af c9 ff ff       	call   4650 <_Py_Dealloc@plt>
    7ca1:	48 8b 3d 90 02 01 00 	mov    0x10290(%rip),%rdi        # 17f38 <__pyx_mstate_global_static+0x2d8>
    7ca8:	e8 ff ec ff ff       	call   69ac <__Pyx_Import.constprop.0>
    7cad:	48 89 c5             	mov    %rax,%rbp
    7cb0:	48 85 c0             	test   %rax,%rax
    7cb3:	0f 84 6b 29 00 00    	je     a624 <__pyx_pymod_exec_main+0x31fb>
    7cb9:	48 8b 35 60 02 01 00 	mov    0x10260(%rip),%rsi        # 17f20 <__pyx_mstate_global_static+0x2c0>
    7cc0:	48 8b 3d 99 ff 00 00 	mov    0xff99(%rip),%rdi        # 17c60 <__pyx_mstate_global_static>
    7cc7:	48 89 c2             	mov    %rax,%rdx
    7cca:	e8 e1 ca ff ff       	call   47b0 <PyDict_SetItem@plt>
    7ccf:	85 c0                	test   %eax,%eax
    7cd1:	0f 88 65 29 00 00    	js     a63c <__pyx_pymod_exec_main+0x3213>
    7cd7:	48 8b 45 00          	mov    0x0(%rbp),%rax
    7cdb:	85 c0                	test   %eax,%eax
    7cdd:	78 11                	js     7cf0 <__pyx_pymod_exec_main+0x8c7>
    7cdf:	48 ff c8             	dec    %rax
    7ce2:	48 89 45 00          	mov    %rax,0x0(%rbp)
    7ce6:	75 08                	jne    7cf0 <__pyx_pymod_exec_main+0x8c7>
    7ce8:	48 89 ef             	mov    %rbp,%rdi
    7ceb:	e8 60 c9 ff ff       	call   4650 <_Py_Dealloc@plt>
    7cf0:	48 8b 3d 81 02 01 00 	mov    0x10281(%rip),%rdi        # 17f78 <__pyx_mstate_global_static+0x318>
    7cf7:	31 f6                	xor    %esi,%esi
    7cf9:	e8 62 ee ff ff       	call   6b60 <__Pyx_ImportDottedModule>
    7cfe:	48 89 c5             	mov    %rax,%rbp
    7d01:	48 85 c0             	test   %rax,%rax
    7d04:	0f 84 4b 29 00 00    	je     a655 <__pyx_pymod_exec_main+0x322c>
    7d0a:	48 8b 35 67 02 01 00 	mov    0x10267(%rip),%rsi        # 17f78 <__pyx_mstate_global_static+0x318>
    7d11:	48 8b 3d 48 ff 00 00 	mov    0xff48(%rip),%rdi        # 17c60 <__pyx_mstate_global_static>
    7d18:	48 89 c2             	mov    %rax,%rdx
    7d1b:	e8 90 ca ff ff       	call   47b0 <PyDict_SetItem@plt>
    7d20:	85 c0                	test   %eax,%eax
    7d22:	0f 88 45 29 00 00    	js     a66d <__pyx_pymod_exec_main+0x3244>
    7d28:	48 8b 45 00          	mov    0x0(%rbp),%rax
    7d2c:	85 c0                	test   %eax,%eax
    7d2e:	78 11                	js     7d41 <__pyx_pymod_exec_main+0x918>
    7d30:	48 ff c8             	dec    %rax
    7d33:	48 89 45 00          	mov    %rax,0x0(%rbp)
    7d37:	75 08                	jne    7d41 <__pyx_pymod_exec_main+0x918>
    7d39:	48 89 ef             	mov    %rbp,%rdi
    7d3c:	e8 0f c9 ff ff       	call   4650 <_Py_Dealloc@plt>
    7d41:	48 8b 3d e8 00 01 00 	mov    0x100e8(%rip),%rdi        # 17e30 <__pyx_mstate_global_static+0x1d0>
    7d48:	31 f6                	xor    %esi,%esi
    7d4a:	e8 11 ee ff ff       	call   6b60 <__Pyx_ImportDottedModule>
    7d4f:	48 89 c5             	mov    %rax,%rbp
    7d52:	48 85 c0             	test   %rax,%rax
    7d55:	0f 84 2b 29 00 00    	je     a686 <__pyx_pymod_exec_main+0x325d>
    7d5b:	48 8b 35 ce 00 01 00 	mov    0x100ce(%rip),%rsi        # 17e30 <__pyx_mstate_global_static+0x1d0>
    7d62:	48 8b 3d f7 fe 00 00 	mov    0xfef7(%rip),%rdi        # 17c60 <__pyx_mstate_global_static>
    7d69:	48 89 c2             	mov    %rax,%rdx
    7d6c:	e8 3f ca ff ff       	call   47b0 <PyDict_SetItem@plt>
    7d71:	85 c0                	test   %eax,%eax
    7d73:	0f 88 25 29 00 00    	js     a69e <__pyx_pymod_exec_main+0x3275>
    7d79:	48 8b 45 00          	mov    0x0(%rbp),%rax
    7d7d:	85 c0                	test   %eax,%eax
    7d7f:	78 11                	js     7d92 <__pyx_pymod_exec_main+0x969>
    7d81:	48 ff c8             	dec    %rax
    7d84:	48 89 45 00          	mov    %rax,0x0(%rbp)
    7d88:	75 08                	jne    7d92 <__pyx_pymod_exec_main+0x969>
    7d8a:	48 89 ef             	mov    %rbp,%rdi
    7d8d:	e8 be c8 ff ff       	call   4650 <_Py_Dealloc@plt>
    7d92:	48 8b 35 7f 01 01 00 	mov    0x1017f(%rip),%rsi        # 17f18 <__pyx_mstate_global_static+0x2b8>
    7d99:	48 8b 3d c0 fe 00 00 	mov    0xfec0(%rip),%rdi        # 17c60 <__pyx_mstate_global_static>
    7da0:	4c 89 e2             	mov    %r12,%rdx
    7da3:	e8 08 ca ff ff       	call   47b0 <PyDict_SetItem@plt>
    7da8:	85 c0                	test   %eax,%eax
    7daa:	0f 88 07 29 00 00    	js     a6b7 <__pyx_pymod_exec_main+0x328e>
    7db0:	48 8b 3d c1 01 01 00 	mov    0x101c1(%rip),%rdi        # 17f78 <__pyx_mstate_global_static+0x318>
    7db7:	e8 c8 53 00 00       	call   d184 <__Pyx__GetModuleGlobalName>
    7dbc:	48 89 c5             	mov    %rax,%rbp
    7dbf:	48 85 c0             	test   %rax,%rax
    7dc2:	0f 84 05 29 00 00    	je     a6cd <__pyx_pymod_exec_main+0x32a4>
    7dc8:	48 8b 35 a9 01 01 00 	mov    0x101a9(%rip),%rsi        # 17f78 <__pyx_mstate_global_static+0x318>
    7dcf:	48 89 c7             	mov    %rax,%rdi
    7dd2:	e8 a5 37 00 00       	call   b57c <__Pyx_PyObject_GetAttrStr>
    7dd7:	48 89 44 24 28       	mov    %rax,0x28(%rsp)
    7ddc:	49 89 c4             	mov    %rax,%r12
    7ddf:	48 85 c0             	test   %rax,%rax
    7de2:	0f 84 fd 28 00 00    	je     a6e5 <__pyx_pymod_exec_main+0x32bc>
    7de8:	48 8b 45 00          	mov    0x0(%rbp),%rax
    7dec:	85 c0                	test   %eax,%eax
    7dee:	78 11                	js     7e01 <__pyx_pymod_exec_main+0x9d8>
    7df0:	48 ff c8             	dec    %rax
    7df3:	48 89 45 00          	mov    %rax,0x0(%rbp)
    7df7:	75 08                	jne    7e01 <__pyx_pymod_exec_main+0x9d8>
    7df9:	48 89 ef             	mov    %rbp,%rdi
    7dfc:	e8 4f c8 ff ff       	call   4650 <_Py_Dealloc@plt>
    7e01:	4c 89 e7             	mov    %r12,%rdi
    7e04:	e8 aa ef ff ff       	call   6db3 <__Pyx_PyObject_CallNoArg>
    7e09:	48 89 c5             	mov    %rax,%rbp
    7e0c:	48 85 c0             	test   %rax,%rax
    7e0f:	0f 84 e9 28 00 00    	je     a6fe <__pyx_pymod_exec_main+0x32d5>
    7e15:	49 8b 04 24          	mov    (%r12),%rax
    7e19:	85 c0                	test   %eax,%eax
    7e1b:	78 11                	js     7e2e <__pyx_pymod_exec_main+0xa05>
    7e1d:	48 ff c8             	dec    %rax
    7e20:	49 89 04 24          	mov    %rax,(%r12)
    7e24:	75 08                	jne    7e2e <__pyx_pymod_exec_main+0xa05>
    7e26:	4c 89 e7             	mov    %r12,%rdi
    7e29:	e8 22 c8 ff ff       	call   4650 <_Py_Dealloc@plt>
    7e2e:	48 8b 35 1b 00 01 00 	mov    0x1001b(%rip),%rsi        # 17e50 <__pyx_mstate_global_static+0x1f0>
    7e35:	48 8b 3d 24 fe 00 00 	mov    0xfe24(%rip),%rdi        # 17c60 <__pyx_mstate_global_static>
    7e3c:	45 31 f6             	xor    %r14d,%r14d
    7e3f:	48 89 ea             	mov    %rbp,%rdx
    7e42:	4c 89 74 24 28       	mov    %r14,0x28(%rsp)
    7e47:	e8 64 c9 ff ff       	call   47b0 <PyDict_SetItem@plt>
    7e4c:	85 c0                	test   %eax,%eax
    7e4e:	0f 88 c2 28 00 00    	js     a716 <__pyx_pymod_exec_main+0x32ed>
    7e54:	48 8b 45 00          	mov    0x0(%rbp),%rax
    7e58:	85 c0                	test   %eax,%eax
    7e5a:	78 11                	js     7e6d <__pyx_pymod_exec_main+0xa44>
    7e5c:	48 ff c8             	dec    %rax
    7e5f:	48 89 45 00          	mov    %rax,0x0(%rbp)
    7e63:	75 08                	jne    7e6d <__pyx_pymod_exec_main+0xa44>
    7e65:	48 89 ef             	mov    %rbp,%rdi
    7e68:	e8 e3 c7 ff ff       	call   4650 <_Py_Dealloc@plt>
    7e6d:	e8 5e c9 ff ff       	call   47d0 <PyDict_New@plt>
    7e72:	48 89 c5             	mov    %rax,%rbp
    7e75:	48 85 c0             	test   %rax,%rax
    7e78:	0f 84 b1 28 00 00    	je     a72f <__pyx_pymod_exec_main+0x3306>
    7e7e:	48 8b 15 4b 01 01 00 	mov    0x1014b(%rip),%rdx        # 17fd0 <__pyx_mstate_global_static+0x370>
    7e85:	48 8b 35 94 fe 00 00 	mov    0xfe94(%rip),%rsi        # 17d20 <__pyx_mstate_global_static+0xc0>
    7e8c:	48 89 c7             	mov    %rax,%rdi
    7e8f:	e8 1c c9 ff ff       	call   47b0 <PyDict_SetItem@plt>
    7e94:	85 c0                	test   %eax,%eax
    7e96:	0f 88 ab 28 00 00    	js     a747 <__pyx_pymod_exec_main+0x331e>
    7e9c:	48 8b 15 2d 01 01 00 	mov    0x1012d(%rip),%rdx        # 17fd0 <__pyx_mstate_global_static+0x370>
    7ea3:	48 8b 35 86 fe 00 00 	mov    0xfe86(%rip),%rsi        # 17d30 <__pyx_mstate_global_static+0xd0>
    7eaa:	48 89 ef             	mov    %rbp,%rdi
    7ead:	e8 fe c8 ff ff       	call   47b0 <PyDict_SetItem@plt>
    7eb2:	85 c0                	test   %eax,%eax
    7eb4:	0f 88 a6 28 00 00    	js     a760 <__pyx_pymod_exec_main+0x3337>
    7eba:	48 8b 15 0f 01 01 00 	mov    0x1010f(%rip),%rdx        # 17fd0 <__pyx_mstate_global_static+0x370>
    7ec1:	48 8b 35 50 fe 00 00 	mov    0xfe50(%rip),%rsi        # 17d18 <__pyx_mstate_global_static+0xb8>
    7ec8:	48 89 ef             	mov    %rbp,%rdi
    7ecb:	e8 e0 c8 ff ff       	call   47b0 <PyDict_SetItem@plt>
    7ed0:	85 c0                	test   %eax,%eax
    7ed2:	0f 88 a1 28 00 00    	js     a779 <__pyx_pymod_exec_main+0x3350>
    7ed8:	48 8b 15 f1 00 01 00 	mov    0x100f1(%rip),%rdx        # 17fd0 <__pyx_mstate_global_static+0x370>
    7edf:	48 8b 35 42 fe 00 00 	mov    0xfe42(%rip),%rsi        # 17d28 <__pyx_mstate_global_static+0xc8>
    7ee6:	48 89 ef             	mov    %rbp,%rdi
    7ee9:	e8 c2 c8 ff ff       	call   47b0 <PyDict_SetItem@plt>
    7eee:	85 c0                	test   %eax,%eax
    7ef0:	0f 88 9c 28 00 00    	js     a792 <__pyx_pymod_exec_main+0x3369>
    7ef6:	48 8b 35 3b ff 00 00 	mov    0xff3b(%rip),%rsi        # 17e38 <__pyx_mstate_global_static+0x1d8>
    7efd:	48 8b 3d 5c fd 00 00 	mov    0xfd5c(%rip),%rdi        # 17c60 <__pyx_mstate_global_static>
    7f04:	48 89 ea             	mov    %rbp,%rdx
    7f07:	e8 a4 c8 ff ff       	call   47b0 <PyDict_SetItem@plt>
    7f0c:	85 c0                	test   %eax,%eax
    7f0e:	0f 88 97 28 00 00    	js     a7ab <__pyx_pymod_exec_main+0x3382>
    7f14:	48 8b 45 00          	mov    0x0(%rbp),%rax
    7f18:	85 c0                	test   %eax,%eax
    7f1a:	78 11                	js     7f2d <__pyx_pymod_exec_main+0xb04>
    7f1c:	48 ff c8             	dec    %rax
    7f1f:	48 89 45 00          	mov    %rax,0x0(%rbp)
    7f23:	75 08                	jne    7f2d <__pyx_pymod_exec_main+0xb04>
    7f25:	48 89 ef             	mov    %rbp,%rdi
    7f28:	e8 23 c7 ff ff       	call   4650 <_Py_Dealloc@plt>
    7f2d:	48 8b 3d 04 ff 00 00 	mov    0xff04(%rip),%rdi        # 17e38 <__pyx_mstate_global_static+0x1d8>
    7f34:	e8 4b 52 00 00       	call   d184 <__Pyx__GetModuleGlobalName>
    7f39:	48 89 c5             	mov    %rax,%rbp
    7f3c:	48 85 c0             	test   %rax,%rax
    7f3f:	0f 84 7f 28 00 00    	je     a7c4 <__pyx_pymod_exec_main+0x339b>
    7f45:	48 8b 35 f4 fe 00 00 	mov    0xfef4(%rip),%rsi        # 17e40 <__pyx_mstate_global_static+0x1e0>
    7f4c:	48 8b 3d 0d fd 00 00 	mov    0xfd0d(%rip),%rdi        # 17c60 <__pyx_mstate_global_static>
    7f53:	48 89 c2             	mov    %rax,%rdx
    7f56:	e8 55 c8 ff ff       	call   47b0 <PyDict_SetItem@plt>
    7f5b:	85 c0                	test   %eax,%eax
    7f5d:	0f 88 79 28 00 00    	js     a7dc <__pyx_pymod_exec_main+0x33b3>
    7f63:	48 8b 45 00          	mov    0x0(%rbp),%rax
    7f67:	85 c0                	test   %eax,%eax
    7f69:	78 11                	js     7f7c <__pyx_pymod_exec_main+0xb53>
    7f6b:	48 ff c8             	dec    %rax
    7f6e:	48 89 45 00          	mov    %rax,0x0(%rbp)
    7f72:	75 08                	jne    7f7c <__pyx_pymod_exec_main+0xb53>
    7f74:	48 89 ef             	mov    %rbp,%rdi
    7f77:	e8 d4 c6 ff ff       	call   4650 <_Py_Dealloc@plt>
    7f7c:	48 8b 3d 7d fe 00 00 	mov    0xfe7d(%rip),%rdi        # 17e00 <__pyx_mstate_global_static+0x1a0>
    7f83:	e8 78 ee ff ff       	call   6e00 <__Pyx_PyUnicode_AsDouble>
    7f88:	66 0f 2e 05 c0 b6 00 	ucomisd 0xb6c0(%rip),%xmm0        # 13650 <__pyx_k_1+0x2>
    7f8f:	00 
    7f90:	7a 02                	jp     7f94 <__pyx_pymod_exec_main+0xb6b>
    7f92:	74 13                	je     7fa7 <__pyx_pymod_exec_main+0xb7e>
    7f94:	e8 07 c3 ff ff       	call   42a0 <PyFloat_FromDouble@plt>
    7f99:	48 89 c5             	mov    %rax,%rbp
    7f9c:	48 85 c0             	test   %rax,%rax
    7f9f:	0f 84 50 28 00 00    	je     a7f5 <__pyx_pymod_exec_main+0x33cc>
    7fa5:	eb 2c                	jmp    7fd3 <__pyx_pymod_exec_main+0xbaa>
    7fa7:	f2 0f 11 44 24 08    	movsd  %xmm0,0x8(%rsp)
    7fad:	e8 3e c3 ff ff       	call   42f0 <PyErr_Occurred@plt>
    7fb2:	f2 0f 10 44 24 08    	movsd  0x8(%rsp),%xmm0
    7fb8:	48 85 c0             	test   %rax,%rax
    7fbb:	74 d7                	je     7f94 <__pyx_pymod_exec_main+0xb6b>
    7fbd:	41 bc 2c 15 00 00    	mov    $0x152c,%r12d
    7fc3:	41 bd 0c 00 00 00    	mov    $0xc,%r13d
    7fc9:	bd 01 00 00 00       	mov    $0x1,%ebp
    7fce:	e9 5a 2e 00 00       	jmp    ae2d <__pyx_pymod_exec_main+0x3a04>
    7fd3:	48 8b 35 be fe 00 00 	mov    0xfebe(%rip),%rsi        # 17e98 <__pyx_mstate_global_static+0x238>
    7fda:	48 8b 3d 7f fc 00 00 	mov    0xfc7f(%rip),%rdi        # 17c60 <__pyx_mstate_global_static>
    7fe1:	48 89 c2             	mov    %rax,%rdx
    7fe4:	e8 c7 c7 ff ff       	call   47b0 <PyDict_SetItem@plt>
    7fe9:	85 c0                	test   %eax,%eax
    7feb:	0f 88 1c 28 00 00    	js     a80d <__pyx_pymod_exec_main+0x33e4>
    7ff1:	48 8b 45 00          	mov    0x0(%rbp),%rax
    7ff5:	85 c0                	test   %eax,%eax
    7ff7:	78 11                	js     800a <__pyx_pymod_exec_main+0xbe1>
    7ff9:	48 ff c8             	dec    %rax
    7ffc:	48 89 45 00          	mov    %rax,0x0(%rbp)
    8000:	75 08                	jne    800a <__pyx_pymod_exec_main+0xbe1>
    8002:	48 89 ef             	mov    %rbp,%rdi
    8005:	e8 46 c6 ff ff       	call   4650 <_Py_Dealloc@plt>
    800a:	48 8b 3d ef fd 00 00 	mov    0xfdef(%rip),%rdi        # 17e00 <__pyx_mstate_global_static+0x1a0>
    8011:	e8 ea ed ff ff       	call   6e00 <__Pyx_PyUnicode_AsDouble>
    8016:	66 0f 2e 05 32 b6 00 	ucomisd 0xb632(%rip),%xmm0        # 13650 <__pyx_k_1+0x2>
    801d:	00 
    801e:	7a 02                	jp     8022 <__pyx_pymod_exec_main+0xbf9>
    8020:	74 13                	je     8035 <__pyx_pymod_exec_main+0xc0c>
    8022:	e8 79 c2 ff ff       	call   42a0 <PyFloat_FromDouble@plt>
    8027:	48 89 c5             	mov    %rax,%rbp
    802a:	48 85 c0             	test   %rax,%rax
    802d:	0f 84 f3 27 00 00    	je     a826 <__pyx_pymod_exec_main+0x33fd>
    8033:	eb 2c                	jmp    8061 <__pyx_pymod_exec_main+0xc38>
    8035:	f2 0f 11 44 24 08    	movsd  %xmm0,0x8(%rsp)
    803b:	e8 b0 c2 ff ff       	call   42f0 <PyErr_Occurred@plt>
    8040:	f2 0f 10 44 24 08    	movsd  0x8(%rsp),%xmm0
    8046:	48 85 c0             	test   %rax,%rax
    8049:	74 d7                	je     8022 <__pyx_pymod_exec_main+0xbf9>
    804b:	41 bc 39 15 00 00    	mov    $0x1539,%r12d
    8051:	41 bd 0d 00 00 00    	mov    $0xd,%r13d
    8057:	bd 01 00 00 00       	mov    $0x1,%ebp
    805c:	e9 cc 2d 00 00       	jmp    ae2d <__pyx_pymod_exec_main+0x3a04>
    8061:	48 8b 35 38 fe 00 00 	mov    0xfe38(%rip),%rsi        # 17ea0 <__pyx_mstate_global_static+0x240>
    8068:	48 8b 3d f1 fb 00 00 	mov    0xfbf1(%rip),%rdi        # 17c60 <__pyx_mstate_global_static>
    806f:	48 89 c2             	mov    %rax,%rdx
    8072:	e8 39 c7 ff ff       	call   47b0 <PyDict_SetItem@plt>
    8077:	85 c0                	test   %eax,%eax
    8079:	0f 88 bf 27 00 00    	js     a83e <__pyx_pymod_exec_main+0x3415>
    807f:	48 8b 45 00          	mov    0x0(%rbp),%rax
    8083:	85 c0                	test   %eax,%eax
    8085:	78 11                	js     8098 <__pyx_pymod_exec_main+0xc6f>
    8087:	48 ff c8             	dec    %rax
    808a:	48 89 45 00          	mov    %rax,0x0(%rbp)
    808e:	75 08                	jne    8098 <__pyx_pymod_exec_main+0xc6f>
    8090:	48 89 ef             	mov    %rbp,%rdi
    8093:	e8 b8 c5 ff ff       	call   4650 <_Py_Dealloc@plt>
    8098:	48 8b 3d 69 fd 00 00 	mov    0xfd69(%rip),%rdi        # 17e08 <__pyx_mstate_global_static+0x1a8>
    809f:	e8 5c ed ff ff       	call   6e00 <__Pyx_PyUnicode_AsDouble>
    80a4:	66 0f 2e 05 a4 b5 00 	ucomisd 0xb5a4(%rip),%xmm0        # 13650 <__pyx_k_1+0x2>
    80ab:	00 
    80ac:	7a 02                	jp     80b0 <__pyx_pymod_exec_main+0xc87>
    80ae:	74 13                	je     80c3 <__pyx_pymod_exec_main+0xc9a>
    80b0:	e8 eb c1 ff ff       	call   42a0 <PyFloat_FromDouble@plt>
    80b5:	48 89 c5             	mov    %rax,%rbp
    80b8:	48 85 c0             	test   %rax,%rax
    80bb:	0f 84 96 27 00 00    	je     a857 <__pyx_pymod_exec_main+0x342e>
    80c1:	eb 2c                	jmp    80ef <__pyx_pymod_exec_main+0xcc6>
    80c3:	f2 0f 11 44 24 08    	movsd  %xmm0,0x8(%rsp)
    80c9:	e8 22 c2 ff ff       	call   42f0 <PyErr_Occurred@plt>
    80ce:	f2 0f 10 44 24 08    	movsd  0x8(%rsp),%xmm0
    80d4:	48 85 c0             	test   %rax,%rax
    80d7:	74 d7                	je     80b0 <__pyx_pymod_exec_main+0xc87>
    80d9:	41 bc 46 15 00 00    	mov    $0x1546,%r12d
    80df:	41 bd 0e 00 00 00    	mov    $0xe,%r13d
    80e5:	bd 01 00 00 00       	mov    $0x1,%ebp
    80ea:	e9 3e 2d 00 00       	jmp    ae2d <__pyx_pymod_exec_main+0x3a04>
    80ef:	48 8b 35 92 fd 00 00 	mov    0xfd92(%rip),%rsi        # 17e88 <__pyx_mstate_global_static+0x228>
    80f6:	48 8b 3d 63 fb 00 00 	mov    0xfb63(%rip),%rdi        # 17c60 <__pyx_mstate_global_static>
    80fd:	48 89 c2             	mov    %rax,%rdx
    8100:	e8 ab c6 ff ff       	call   47b0 <PyDict_SetItem@plt>
    8105:	85 c0                	test   %eax,%eax
    8107:	0f 88 62 27 00 00    	js     a86f <__pyx_pymod_exec_main+0x3446>
    810d:	48 8b 45 00          	mov    0x0(%rbp),%rax
    8111:	85 c0                	test   %eax,%eax
    8113:	78 11                	js     8126 <__pyx_pymod_exec_main+0xcfd>
    8115:	48 ff c8             	dec    %rax
    8118:	48 89 45 00          	mov    %rax,0x0(%rbp)
    811c:	75 08                	jne    8126 <__pyx_pymod_exec_main+0xcfd>
    811e:	48 89 ef             	mov    %rbp,%rdi
    8121:	e8 2a c5 ff ff       	call   4650 <_Py_Dealloc@plt>
    8126:	48 8b 3d db fc 00 00 	mov    0xfcdb(%rip),%rdi        # 17e08 <__pyx_mstate_global_static+0x1a8>
    812d:	e8 ce ec ff ff       	call   6e00 <__Pyx_PyUnicode_AsDouble>
    8132:	66 0f 2e 05 16 b5 00 	ucomisd 0xb516(%rip),%xmm0        # 13650 <__pyx_k_1+0x2>
    8139:	00 
    813a:	7a 02                	jp     813e <__pyx_pymod_exec_main+0xd15>
    813c:	74 13                	je     8151 <__pyx_pymod_exec_main+0xd28>
    813e:	e8 5d c1 ff ff       	call   42a0 <PyFloat_FromDouble@plt>
    8143:	48 89 c5             	mov    %rax,%rbp
    8146:	48 85 c0             	test   %rax,%rax
    8149:	0f 84 39 27 00 00    	je     a888 <__pyx_pymod_exec_main+0x345f>
    814f:	eb 2c                	jmp    817d <__pyx_pymod_exec_main+0xd54>
    8151:	f2 0f 11 44 24 08    	movsd  %xmm0,0x8(%rsp)
    8157:	e8 94 c1 ff ff       	call   42f0 <PyErr_Occurred@plt>
    815c:	f2 0f 10 44 24 08    	movsd  0x8(%rsp),%xmm0
    8162:	48 85 c0             	test   %rax,%rax
    8165:	74 d7                	je     813e <__pyx_pymod_exec_main+0xd15>
    8167:	41 bc 53 15 00 00    	mov    $0x1553,%r12d
    816d:	41 bd 0f 00 00 00    	mov    $0xf,%r13d
    8173:	bd 01 00 00 00       	mov    $0x1,%ebp
    8178:	e9 b0 2c 00 00       	jmp    ae2d <__pyx_pymod_exec_main+0x3a04>
    817d:	48 8b 35 0c fd 00 00 	mov    0xfd0c(%rip),%rsi        # 17e90 <__pyx_mstate_global_static+0x230>
    8184:	48 8b 3d d5 fa 00 00 	mov    0xfad5(%rip),%rdi        # 17c60 <__pyx_mstate_global_static>
    818b:	48 89 c2             	mov    %rax,%rdx
    818e:	e8 1d c6 ff ff       	call   47b0 <PyDict_SetItem@plt>
    8193:	85 c0                	test   %eax,%eax
    8195:	0f 88 05 27 00 00    	js     a8a0 <__pyx_pymod_exec_main+0x3477>
    819b:	48 8b 45 00          	mov    0x0(%rbp),%rax
    819f:	85 c0                	test   %eax,%eax
    81a1:	78 11                	js     81b4 <__pyx_pymod_exec_main+0xd8b>
    81a3:	48 ff c8             	dec    %rax
    81a6:	48 89 45 00          	mov    %rax,0x0(%rbp)
    81aa:	75 08                	jne    81b4 <__pyx_pymod_exec_main+0xd8b>
    81ac:	48 89 ef             	mov    %rbp,%rdi
    81af:	e8 9c c4 ff ff       	call   4650 <_Py_Dealloc@plt>
    81b4:	48 8b 15 05 fe 00 00 	mov    0xfe05(%rip),%rdx        # 17fc0 <__pyx_mstate_global_static+0x360>
    81bb:	48 8b 35 ee fb 00 00 	mov    0xfbee(%rip),%rsi        # 17db0 <__pyx_mstate_global_static+0x150>
    81c2:	48 8b 3d 97 fa 00 00 	mov    0xfa97(%rip),%rdi        # 17c60 <__pyx_mstate_global_static>
    81c9:	e8 e2 c5 ff ff       	call   47b0 <PyDict_SetItem@plt>
    81ce:	85 c0                	test   %eax,%eax
    81d0:	0f 88 e3 26 00 00    	js     a8b9 <__pyx_pymod_exec_main+0x3490>
    81d6:	4c 8b 05 83 fe 00 00 	mov    0xfe83(%rip),%r8        # 18060 <__pyx_mstate_global_static+0x400>
    81dd:	48 8b 0d 7c fa 00 00 	mov    0xfa7c(%rip),%rcx        # 17c60 <__pyx_mstate_global_static>
    81e4:	48 8d 3d 95 e8 00 00 	lea    0xe895(%rip),%rdi        # 16a80 <__pyx_mdef_4main_1get_serial_ports>
    81eb:	48 8b 15 7e fc 00 00 	mov    0xfc7e(%rip),%rdx        # 17e70 <__pyx_mstate_global_static+0x210>
    81f2:	48 8b 35 e7 fb 00 00 	mov    0xfbe7(%rip),%rsi        # 17de0 <__pyx_mstate_global_static+0x180>
    81f9:	e8 f8 e7 ff ff       	call   69f6 <__Pyx_CyFunction_New.constprop.0>
    81fe:	48 89 c5             	mov    %rax,%rbp
    8201:	48 85 c0             	test   %rax,%rax
    8204:	0f 84 c5 26 00 00    	je     a8cf <__pyx_pymod_exec_main+0x34a6>
    820a:	48 8b 35 cf fb 00 00 	mov    0xfbcf(%rip),%rsi        # 17de0 <__pyx_mstate_global_static+0x180>
    8211:	48 8b 3d 48 fa 00 00 	mov    0xfa48(%rip),%rdi        # 17c60 <__pyx_mstate_global_static>
    8218:	48 89 c2             	mov    %rax,%rdx
    821b:	e8 90 c5 ff ff       	call   47b0 <PyDict_SetItem@plt>
    8220:	85 c0                	test   %eax,%eax
    8222:	0f 88 bf 26 00 00    	js     a8e7 <__pyx_pymod_exec_main+0x34be>
    8228:	48 8b 45 00          	mov    0x0(%rbp),%rax
    822c:	85 c0                	test   %eax,%eax
    822e:	78 11                	js     8241 <__pyx_pymod_exec_main+0xe18>
    8230:	48 ff c8             	dec    %rax
    8233:	48 89 45 00          	mov    %rax,0x0(%rbp)
    8237:	75 08                	jne    8241 <__pyx_pymod_exec_main+0xe18>
    8239:	48 89 ef             	mov    %rbp,%rdi
    823c:	e8 0f c4 ff ff       	call   4650 <_Py_Dealloc@plt>
    8241:	4c 8b 05 20 fe 00 00 	mov    0xfe20(%rip),%r8        # 18068 <__pyx_mstate_global_static+0x408>
    8248:	48 8b 0d 11 fa 00 00 	mov    0xfa11(%rip),%rcx        # 17c60 <__pyx_mstate_global_static>
    824f:	48 8d 3d 0a e8 00 00 	lea    0xe80a(%rip),%rdi        # 16a60 <__pyx_mdef_4main_3connect_serial>
    8256:	48 8b 15 13 fc 00 00 	mov    0xfc13(%rip),%rdx        # 17e70 <__pyx_mstate_global_static+0x210>
    825d:	48 8b 35 0c fb 00 00 	mov    0xfb0c(%rip),%rsi        # 17d70 <__pyx_mstate_global_static+0x110>
    8264:	e8 8d e7 ff ff       	call   69f6 <__Pyx_CyFunction_New.constprop.0>
    8269:	48 89 c5             	mov    %rax,%rbp
    826c:	48 85 c0             	test   %rax,%rax
    826f:	0f 84 8b 26 00 00    	je     a900 <__pyx_pymod_exec_main+0x34d7>
    8275:	48 8b 35 f4 fa 00 00 	mov    0xfaf4(%rip),%rsi        # 17d70 <__pyx_mstate_global_static+0x110>
    827c:	48 8b 3d dd f9 00 00 	mov    0xf9dd(%rip),%rdi        # 17c60 <__pyx_mstate_global_static>
    8283:	48 89 c2             	mov    %rax,%rdx
    8286:	e8 25 c5 ff ff       	call   47b0 <PyDict_SetItem@plt>
    828b:	85 c0                	test   %eax,%eax
    828d:	0f 88 85 26 00 00    	js     a918 <__pyx_pymod_exec_main+0x34ef>
    8293:	48 8b 45 00          	mov    0x0(%rbp),%rax
    8297:	85 c0                	test   %eax,%eax
    8299:	78 11                	js     82ac <__pyx_pymod_exec_main+0xe83>
    829b:	48 ff c8             	dec    %rax
    829e:	48 89 45 00          	mov    %rax,0x0(%rbp)
    82a2:	75 08                	jne    82ac <__pyx_pymod_exec_main+0xe83>
    82a4:	48 89 ef             	mov    %rbp,%rdi
    82a7:	e8 a4 c3 ff ff       	call   4650 <_Py_Dealloc@plt>
    82ac:	4c 8b 05 bd fd 00 00 	mov    0xfdbd(%rip),%r8        # 18070 <__pyx_mstate_global_static+0x410>
    82b3:	48 8b 0d a6 f9 00 00 	mov    0xf9a6(%rip),%rcx        # 17c60 <__pyx_mstate_global_static>
    82ba:	48 8d 3d 7f e7 00 00 	lea    0xe77f(%rip),%rdi        # 16a40 <__pyx_mdef_4main_5refresh_serial>
    82c1:	48 8b 15 a8 fb 00 00 	mov    0xfba8(%rip),%rdx        # 17e70 <__pyx_mstate_global_static+0x210>
    82c8:	48 8b 35 39 fc 00 00 	mov    0xfc39(%rip),%rsi        # 17f08 <__pyx_mstate_global_static+0x2a8>
    82cf:	e8 22 e7 ff ff       	call   69f6 <__Pyx_CyFunction_New.constprop.0>
    82d4:	48 89 c5             	mov    %rax,%rbp
    82d7:	48 85 c0             	test   %rax,%rax
    82da:	0f 84 51 26 00 00    	je     a931 <__pyx_pymod_exec_main+0x3508>
    82e0:	48 8b 35 21 fc 00 00 	mov    0xfc21(%rip),%rsi        # 17f08 <__pyx_mstate_global_static+0x2a8>
    82e7:	48 8b 3d 72 f9 00 00 	mov    0xf972(%rip),%rdi        # 17c60 <__pyx_mstate_global_static>
    82ee:	48 89 c2             	mov    %rax,%rdx
    82f1:	e8 ba c4 ff ff       	call   47b0 <PyDict_SetItem@plt>
    82f6:	85 c0                	test   %eax,%eax
    82f8:	0f 88 4b 26 00 00    	js     a949 <__pyx_pymod_exec_main+0x3520>
    82fe:	48 8b 45 00          	mov    0x0(%rbp),%rax
    8302:	85 c0                	test   %eax,%eax
    8304:	78 11                	js     8317 <__pyx_pymod_exec_main+0xeee>
    8306:	48 ff c8             	dec    %rax
    8309:	48 89 45 00          	mov    %rax,0x0(%rbp)
    830d:	75 08                	jne    8317 <__pyx_pymod_exec_main+0xeee>
    830f:	48 89 ef             	mov    %rbp,%rdi
    8312:	e8 39 c3 ff ff       	call   4650 <_Py_Dealloc@plt>
    8317:	4c 8b 05 5a fd 00 00 	mov    0xfd5a(%rip),%r8        # 18078 <__pyx_mstate_global_static+0x418>
    831e:	48 8b 0d 3b f9 00 00 	mov    0xf93b(%rip),%rcx        # 17c60 <__pyx_mstate_global_static>
    8325:	48 8d 3d f4 e6 00 00 	lea    0xe6f4(%rip),%rdi        # 16a20 <__pyx_mdef_4main_7readbuttonvalues>
    832c:	48 8b 15 3d fb 00 00 	mov    0xfb3d(%rip),%rdx        # 17e70 <__pyx_mstate_global_static+0x210>
    8333:	48 8b 35 b6 fb 00 00 	mov    0xfbb6(%rip),%rsi        # 17ef0 <__pyx_mstate_global_static+0x290>
    833a:	e8 b7 e6 ff ff       	call   69f6 <__Pyx_CyFunction_New.constprop.0>
    833f:	48 89 c5             	mov    %rax,%rbp
    8342:	48 85 c0             	test   %rax,%rax
    8345:	0f 84 17 26 00 00    	je     a962 <__pyx_pymod_exec_main+0x3539>
    834b:	48 8b 15 e6 fc 00 00 	mov    0xfce6(%rip),%rdx        # 18038 <__pyx_mstate_global_static+0x3d8>
    8352:	48 89 90 98 00 00 00 	mov    %rdx,0x98(%rax)
    8359:	8b 02                	mov    (%rdx),%eax
    835b:	ff c0                	inc    %eax
    835d:	74 02                	je     8361 <__pyx_pymod_exec_main+0xf38>
    835f:	89 02                	mov    %eax,(%rdx)
    8361:	48 8b 35 88 fb 00 00 	mov    0xfb88(%rip),%rsi        # 17ef0 <__pyx_mstate_global_static+0x290>
    8368:	48 8b 3d f1 f8 00 00 	mov    0xf8f1(%rip),%rdi        # 17c60 <__pyx_mstate_global_static>
    836f:	48 89 ea             	mov    %rbp,%rdx
    8372:	e8 39 c4 ff ff       	call   47b0 <PyDict_SetItem@plt>
    8377:	85 c0                	test   %eax,%eax
    8379:	0f 88 fb 25 00 00    	js     a97a <__pyx_pymod_exec_main+0x3551>
    837f:	48 8b 45 00          	mov    0x0(%rbp),%rax
    8383:	85 c0                	test   %eax,%eax
    8385:	78 11                	js     8398 <__pyx_pymod_exec_main+0xf6f>
    8387:	48 ff c8             	dec    %rax
    838a:	48 89 45 00          	mov    %rax,0x0(%rbp)
    838e:	75 08                	jne    8398 <__pyx_pymod_exec_main+0xf6f>
    8390:	48 89 ef             	mov    %rbp,%rdi
    8393:	e8 b8 c2 ff ff       	call   4650 <_Py_Dealloc@plt>
    8398:	4c 8b 05 e1 fc 00 00 	mov    0xfce1(%rip),%r8        # 18080 <__pyx_mstate_global_static+0x420>
    839f:	48 8b 0d ba f8 00 00 	mov    0xf8ba(%rip),%rcx        # 17c60 <__pyx_mstate_global_static>
    83a6:	48 8d 3d 53 e6 00 00 	lea    0xe653(%rip),%rdi        # 16a00 <__pyx_mdef_4main_9calibrate_btn_1>
    83ad:	48 8b 15 bc fa 00 00 	mov    0xfabc(%rip),%rdx        # 17e70 <__pyx_mstate_global_static+0x210>
    83b4:	48 8b 35 85 f9 00 00 	mov    0xf985(%rip),%rsi        # 17d40 <__pyx_mstate_global_static+0xe0>
    83bb:	e8 36 e6 ff ff       	call   69f6 <__Pyx_CyFunction_New.constprop.0>
    83c0:	48 89 c5             	mov    %rax,%rbp
    83c3:	48 85 c0             	test   %rax,%rax
    83c6:	0f 84 c7 25 00 00    	je     a993 <__pyx_pymod_exec_main+0x356a>
    83cc:	48 8b 35 6d f9 00 00 	mov    0xf96d(%rip),%rsi        # 17d40 <__pyx_mstate_global_static+0xe0>
    83d3:	48 8b 3d 86 f8 00 00 	mov    0xf886(%rip),%rdi        # 17c60 <__pyx_mstate_global_static>
    83da:	48 89 c2             	mov    %rax,%rdx
    83dd:	e8 ce c3 ff ff       	call   47b0 <PyDict_SetItem@plt>
    83e2:	85 c0                	test   %eax,%eax
    83e4:	0f 88 c1 25 00 00    	js     a9ab <__pyx_pymod_exec_main+0x3582>
    83ea:	48 8b 45 00          	mov    0x0(%rbp),%rax
    83ee:	85 c0                	test   %eax,%eax
    83f0:	78 11                	js     8403 <__pyx_pymod_exec_main+0xfda>
    83f2:	48 ff c8             	dec    %rax
    83f5:	48 89 45 00          	mov    %rax,0x0(%rbp)
    83f9:	75 08                	jne    8403 <__pyx_pymod_exec_main+0xfda>
    83fb:	48 89 ef             	mov    %rbp,%rdi
    83fe:	e8 4d c2 ff ff       	call   4650 <_Py_Dealloc@plt>
    8403:	48 8b 3d be f9 00 00 	mov    0xf9be(%rip),%rdi        # 17dc8 <__pyx_mstate_global_static+0x168>
    840a:	e8 75 4d 00 00       	call   d184 <__Pyx__GetModuleGlobalName>
    840f:	48 89 c5             	mov    %rax,%rbp
    8412:	48 85 c0             	test   %rax,%rax
    8415:	0f 84 a9 25 00 00    	je     a9c4 <__pyx_pymod_exec_main+0x359b>
    841b:	48 8b 35 5e f9 00 00 	mov    0xf95e(%rip),%rsi        # 17d80 <__pyx_mstate_global_static+0x120>
    8422:	48 89 c7             	mov    %rax,%rdi
    8425:	e8 52 31 00 00       	call   b57c <__Pyx_PyObject_GetAttrStr>
    842a:	48 89 44 24 28       	mov    %rax,0x28(%rsp)
    842f:	49 89 c4             	mov    %rax,%r12
    8432:	48 85 c0             	test   %rax,%rax
    8435:	0f 84 a1 25 00 00    	je     a9dc <__pyx_pymod_exec_main+0x35b3>
    843b:	48 8b 45 00          	mov    0x0(%rbp),%rax
    843f:	85 c0                	test   %eax,%eax
    8441:	78 11                	js     8454 <__pyx_pymod_exec_main+0x102b>
    8443:	48 ff c8             	dec    %rax
    8446:	48 89 45 00          	mov    %rax,0x0(%rbp)
    844a:	75 08                	jne    8454 <__pyx_pymod_exec_main+0x102b>
    844c:	48 89 ef             	mov    %rbp,%rdi
    844f:	e8 fc c1 ff ff       	call   4650 <_Py_Dealloc@plt>
    8454:	4c 89 e7             	mov    %r12,%rdi
    8457:	e8 57 e9 ff ff       	call   6db3 <__Pyx_PyObject_CallNoArg>
    845c:	48 89 c5             	mov    %rax,%rbp
    845f:	48 85 c0             	test   %rax,%rax
    8462:	0f 84 8d 25 00 00    	je     a9f5 <__pyx_pymod_exec_main+0x35cc>
    8468:	49 8b 04 24          	mov    (%r12),%rax
    846c:	85 c0                	test   %eax,%eax
    846e:	78 11                	js     8481 <__pyx_pymod_exec_main+0x1058>
    8470:	48 ff c8             	dec    %rax
    8473:	49 89 04 24          	mov    %rax,(%r12)
    8477:	75 08                	jne    8481 <__pyx_pymod_exec_main+0x1058>
    8479:	4c 89 e7             	mov    %r12,%rdi
    847c:	e8 cf c1 ff ff       	call   4650 <_Py_Dealloc@plt>
    8481:	48 8b 45 00          	mov    0x0(%rbp),%rax
    8485:	45 31 ed             	xor    %r13d,%r13d
    8488:	4c 89 6c 24 28       	mov    %r13,0x28(%rsp)
    848d:	85 c0                	test   %eax,%eax
    848f:	78 11                	js     84a2 <__pyx_pymod_exec_main+0x1079>
    8491:	48 ff c8             	dec    %rax
    8494:	48 89 45 00          	mov    %rax,0x0(%rbp)
    8498:	75 08                	jne    84a2 <__pyx_pymod_exec_main+0x1079>
    849a:	48 89 ef             	mov    %rbp,%rdi
    849d:	e8 ae c1 ff ff       	call   4650 <_Py_Dealloc@plt>
    84a2:	48 8b 3d 1f f9 00 00 	mov    0xf91f(%rip),%rdi        # 17dc8 <__pyx_mstate_global_static+0x168>
    84a9:	e8 d6 4c 00 00       	call   d184 <__Pyx__GetModuleGlobalName>
    84ae:	48 89 c5             	mov    %rax,%rbp
    84b1:	48 85 c0             	test   %rax,%rax
    84b4:	0f 84 53 25 00 00    	je     aa0d <__pyx_pymod_exec_main+0x35e4>
    84ba:	48 8b 35 c7 f8 00 00 	mov    0xf8c7(%rip),%rsi        # 17d88 <__pyx_mstate_global_static+0x128>
    84c1:	48 89 c7             	mov    %rax,%rdi
    84c4:	e8 b3 30 00 00       	call   b57c <__Pyx_PyObject_GetAttrStr>
    84c9:	48 89 44 24 28       	mov    %rax,0x28(%rsp)
    84ce:	49 89 c4             	mov    %rax,%r12
    84d1:	48 85 c0             	test   %rax,%rax
    84d4:	0f 84 4b 25 00 00    	je     aa25 <__pyx_pymod_exec_main+0x35fc>
    84da:	48 8b 45 00          	mov    0x0(%rbp),%rax
    84de:	85 c0                	test   %eax,%eax
    84e0:	78 11                	js     84f3 <__pyx_pymod_exec_main+0x10ca>
    84e2:	48 ff c8             	dec    %rax
    84e5:	48 89 45 00          	mov    %rax,0x0(%rbp)
    84e9:	75 08                	jne    84f3 <__pyx_pymod_exec_main+0x10ca>
    84eb:	48 89 ef             	mov    %rbp,%rdi
    84ee:	e8 5d c1 ff ff       	call   4650 <_Py_Dealloc@plt>
    84f3:	e8 d8 c2 ff ff       	call   47d0 <PyDict_New@plt>
    84f8:	48 89 c5             	mov    %rax,%rbp
    84fb:	48 85 c0             	test   %rax,%rax
    84fe:	0f 84 3a 25 00 00    	je     aa3e <__pyx_pymod_exec_main+0x3615>
    8504:	48 8b 15 bd f7 00 00 	mov    0xf7bd(%rip),%rdx        # 17cc8 <__pyx_mstate_global_static+0x68>
    850b:	48 8b 35 76 fa 00 00 	mov    0xfa76(%rip),%rsi        # 17f88 <__pyx_mstate_global_static+0x328>
    8512:	48 89 c7             	mov    %rax,%rdi
    8515:	e8 96 c2 ff ff       	call   47b0 <PyDict_SetItem@plt>
    851a:	85 c0                	test   %eax,%eax
    851c:	0f 88 34 25 00 00    	js     aa56 <__pyx_pymod_exec_main+0x362d>
    8522:	48 8b 15 bf fa 00 00 	mov    0xfabf(%rip),%rdx        # 17fe8 <__pyx_mstate_global_static+0x388>
    8529:	48 8b 35 70 fa 00 00 	mov    0xfa70(%rip),%rsi        # 17fa0 <__pyx_mstate_global_static+0x340>
    8530:	48 89 ef             	mov    %rbp,%rdi
    8533:	e8 78 c2 ff ff       	call   47b0 <PyDict_SetItem@plt>
    8538:	85 c0                	test   %eax,%eax
    853a:	0f 88 2f 25 00 00    	js     aa6f <__pyx_pymod_exec_main+0x3646>
    8540:	48 8b 15 a9 fa 00 00 	mov    0xfaa9(%rip),%rdx        # 17ff0 <__pyx_mstate_global_static+0x390>
    8547:	48 8b 35 a2 f8 00 00 	mov    0xf8a2(%rip),%rsi        # 17df0 <__pyx_mstate_global_static+0x190>
    854e:	48 89 ef             	mov    %rbp,%rdi
    8551:	e8 5a c2 ff ff       	call   47b0 <PyDict_SetItem@plt>
    8556:	85 c0                	test   %eax,%eax
    8558:	0f 88 2a 25 00 00    	js     aa88 <__pyx_pymod_exec_main+0x365f>
    855e:	48 8b 35 13 f7 00 00 	mov    0xf713(%rip),%rsi        # 17c78 <__pyx_mstate_global_static+0x18>
    8565:	48 89 ea             	mov    %rbp,%rdx
    8568:	4c 89 e7             	mov    %r12,%rdi
    856b:	e8 d8 2e 00 00       	call   b448 <__Pyx_PyObject_Call>
    8570:	48 89 44 24 30       	mov    %rax,0x30(%rsp)
    8575:	49 89 c5             	mov    %rax,%r13
    8578:	48 85 c0             	test   %rax,%rax
    857b:	0f 84 20 25 00 00    	je     aaa1 <__pyx_pymod_exec_main+0x3678>
    8581:	49 8b 04 24          	mov    (%r12),%rax
    8585:	85 c0                	test   %eax,%eax
    8587:	78 11                	js     859a <__pyx_pymod_exec_main+0x1171>
    8589:	48 ff c8             	dec    %rax
    858c:	49 89 04 24          	mov    %rax,(%r12)
    8590:	75 08                	jne    859a <__pyx_pymod_exec_main+0x1171>
    8592:	4c 89 e7             	mov    %r12,%rdi
    8595:	e8 b6 c0 ff ff       	call   4650 <_Py_Dealloc@plt>
    859a:	48 8b 45 00          	mov    0x0(%rbp),%rax
    859e:	45 31 e4             	xor    %r12d,%r12d
    85a1:	4c 89 64 24 28       	mov    %r12,0x28(%rsp)
    85a6:	85 c0                	test   %eax,%eax
    85a8:	78 11                	js     85bb <__pyx_pymod_exec_main+0x1192>
    85aa:	48 ff c8             	dec    %rax
    85ad:	48 89 45 00          	mov    %rax,0x0(%rbp)
    85b1:	75 08                	jne    85bb <__pyx_pymod_exec_main+0x1192>
    85b3:	48 89 ef             	mov    %rbp,%rdi
    85b6:	e8 95 c0 ff ff       	call   4650 <_Py_Dealloc@plt>
    85bb:	49 8b 45 00          	mov    0x0(%r13),%rax
    85bf:	85 c0                	test   %eax,%eax
    85c1:	78 11                	js     85d4 <__pyx_pymod_exec_main+0x11ab>
    85c3:	48 ff c8             	dec    %rax
    85c6:	49 89 45 00          	mov    %rax,0x0(%r13)
    85ca:	75 08                	jne    85d4 <__pyx_pymod_exec_main+0x11ab>
    85cc:	4c 89 ef             	mov    %r13,%rdi
    85cf:	e8 7c c0 ff ff       	call   4650 <_Py_Dealloc@plt>
    85d4:	48 8b 3d ed f7 00 00 	mov    0xf7ed(%rip),%rdi        # 17dc8 <__pyx_mstate_global_static+0x168>
    85db:	e8 a4 4b 00 00       	call   d184 <__Pyx__GetModuleGlobalName>
    85e0:	48 89 44 24 30       	mov    %rax,0x30(%rsp)
    85e5:	49 89 c4             	mov    %rax,%r12
    85e8:	48 85 c0             	test   %rax,%rax
    85eb:	0f 84 c9 24 00 00    	je     aaba <__pyx_pymod_exec_main+0x3691>
    85f1:	48 8b 35 58 f9 00 00 	mov    0xf958(%rip),%rsi        # 17f50 <__pyx_mstate_global_static+0x2f0>
    85f8:	48 89 c7             	mov    %rax,%rdi
    85fb:	e8 7c 2f 00 00       	call   b57c <__Pyx_PyObject_GetAttrStr>
    8600:	48 89 c5             	mov    %rax,%rbp
    8603:	48 85 c0             	test   %rax,%rax
    8606:	0f 84 c6 24 00 00    	je     aad2 <__pyx_pymod_exec_main+0x36a9>
    860c:	49 8b 04 24          	mov    (%r12),%rax
    8610:	85 c0                	test   %eax,%eax
    8612:	78 11                	js     8625 <__pyx_pymod_exec_main+0x11fc>
    8614:	48 ff c8             	dec    %rax
    8617:	49 89 04 24          	mov    %rax,(%r12)
    861b:	75 08                	jne    8625 <__pyx_pymod_exec_main+0x11fc>
    861d:	4c 89 e7             	mov    %r12,%rdi
    8620:	e8 2b c0 ff ff       	call   4650 <_Py_Dealloc@plt>
    8625:	48 89 ef             	mov    %rbp,%rdi
    8628:	e8 86 e7 ff ff       	call   6db3 <__Pyx_PyObject_CallNoArg>
    862d:	48 89 44 24 30       	mov    %rax,0x30(%rsp)
    8632:	49 89 c4             	mov    %rax,%r12
    8635:	48 85 c0             	test   %rax,%rax
    8638:	0f 84 ac 24 00 00    	je     aaea <__pyx_pymod_exec_main+0x36c1>
    863e:	48 8b 45 00          	mov    0x0(%rbp),%rax
    8642:	85 c0                	test   %eax,%eax
    8644:	78 11                	js     8657 <__pyx_pymod_exec_main+0x122e>
    8646:	48 ff c8             	dec    %rax
    8649:	48 89 45 00          	mov    %rax,0x0(%rbp)
    864d:	75 08                	jne    8657 <__pyx_pymod_exec_main+0x122e>
    864f:	48 89 ef             	mov    %rbp,%rdi
    8652:	e8 f9 bf ff ff       	call   4650 <_Py_Dealloc@plt>
    8657:	49 8b 04 24          	mov    (%r12),%rax
    865b:	85 c0                	test   %eax,%eax
    865d:	78 11                	js     8670 <__pyx_pymod_exec_main+0x1247>
    865f:	48 ff c8             	dec    %rax
    8662:	49 89 04 24          	mov    %rax,(%r12)
    8666:	75 08                	jne    8670 <__pyx_pymod_exec_main+0x1247>
    8668:	4c 89 e7             	mov    %r12,%rdi
    866b:	e8 e0 bf ff ff       	call   4650 <_Py_Dealloc@plt>
    8670:	48 8b 3d 51 f7 00 00 	mov    0xf751(%rip),%rdi        # 17dc8 <__pyx_mstate_global_static+0x168>
    8677:	e8 08 4b 00 00       	call   d184 <__Pyx__GetModuleGlobalName>
    867c:	48 89 44 24 30       	mov    %rax,0x30(%rsp)
    8681:	49 89 c4             	mov    %rax,%r12
    8684:	48 85 c0             	test   %rax,%rax
    8687:	0f 84 76 24 00 00    	je     ab03 <__pyx_pymod_exec_main+0x36da>
    868d:	48 8b 35 14 f9 00 00 	mov    0xf914(%rip),%rsi        # 17fa8 <__pyx_mstate_global_static+0x348>
    8694:	48 89 c7             	mov    %rax,%rdi
    8697:	e8 e0 2e 00 00       	call   b57c <__Pyx_PyObject_GetAttrStr>
    869c:	48 89 c5             	mov    %rax,%rbp
    869f:	48 85 c0             	test   %rax,%rax
    86a2:	0f 84 73 24 00 00    	je     ab1b <__pyx_pymod_exec_main+0x36f2>
    86a8:	49 8b 04 24          	mov    (%r12),%rax
    86ac:	85 c0                	test   %eax,%eax
    86ae:	78 11                	js     86c1 <__pyx_pymod_exec_main+0x1298>
    86b0:	48 ff c8             	dec    %rax
    86b3:	49 89 04 24          	mov    %rax,(%r12)
    86b7:	75 08                	jne    86c1 <__pyx_pymod_exec_main+0x1298>
    86b9:	4c 89 e7             	mov    %r12,%rdi
    86bc:	e8 8f bf ff ff       	call   4650 <_Py_Dealloc@plt>
    86c1:	e8 0a c1 ff ff       	call   47d0 <PyDict_New@plt>
    86c6:	48 89 44 24 30       	mov    %rax,0x30(%rsp)
    86cb:	49 89 c5             	mov    %rax,%r13
    86ce:	48 85 c0             	test   %rax,%rax
    86d1:	0f 84 5c 24 00 00    	je     ab33 <__pyx_pymod_exec_main+0x370a>
    86d7:	48 8b 15 a2 f7 00 00 	mov    0xf7a2(%rip),%rdx        # 17e80 <__pyx_mstate_global_static+0x220>
    86de:	48 8b 35 83 f8 00 00 	mov    0xf883(%rip),%rsi        # 17f68 <__pyx_mstate_global_static+0x308>
    86e5:	48 89 c7             	mov    %rax,%rdi
    86e8:	e8 c3 c0 ff ff       	call   47b0 <PyDict_SetItem@plt>
    86ed:	85 c0                	test   %eax,%eax
    86ef:	0f 88 57 24 00 00    	js     ab4c <__pyx_pymod_exec_main+0x3723>
    86f5:	48 8b 35 7c f5 00 00 	mov    0xf57c(%rip),%rsi        # 17c78 <__pyx_mstate_global_static+0x18>
    86fc:	4c 89 ea             	mov    %r13,%rdx
    86ff:	48 89 ef             	mov    %rbp,%rdi
    8702:	e8 41 2d 00 00       	call   b448 <__Pyx_PyObject_Call>
    8707:	48 89 44 24 28       	mov    %rax,0x28(%rsp)
    870c:	49 89 c4             	mov    %rax,%r12
    870f:	48 85 c0             	test   %rax,%rax
    8712:	0f 84 4d 24 00 00    	je     ab65 <__pyx_pymod_exec_main+0x373c>
    8718:	48 8b 45 00          	mov    0x0(%rbp),%rax
    871c:	85 c0                	test   %eax,%eax
    871e:	78 11                	js     8731 <__pyx_pymod_exec_main+0x1308>
    8720:	48 ff c8             	dec    %rax
    8723:	48 89 45 00          	mov    %rax,0x0(%rbp)
    8727:	75 08                	jne    8731 <__pyx_pymod_exec_main+0x1308>
    8729:	48 89 ef             	mov    %rbp,%rdi
    872c:	e8 1f bf ff ff       	call   4650 <_Py_Dealloc@plt>
    8731:	49 8b 45 00          	mov    0x0(%r13),%rax
    8735:	85 c0                	test   %eax,%eax
    8737:	78 11                	js     874a <__pyx_pymod_exec_main+0x1321>
    8739:	48 ff c8             	dec    %rax
    873c:	49 89 45 00          	mov    %rax,0x0(%r13)
    8740:	75 08                	jne    874a <__pyx_pymod_exec_main+0x1321>
    8742:	4c 89 ef             	mov    %r13,%rdi
    8745:	e8 06 bf ff ff       	call   4650 <_Py_Dealloc@plt>
    874a:	48 8b 35 87 f6 00 00 	mov    0xf687(%rip),%rsi        # 17dd8 <__pyx_mstate_global_static+0x178>
    8751:	45 31 db             	xor    %r11d,%r11d
    8754:	4c 89 e7             	mov    %r12,%rdi
    8757:	4c 89 5c 24 30       	mov    %r11,0x30(%rsp)
    875c:	e8 70 c3 ff ff       	call   4ad1 <__Pyx__PyObject_LookupSpecial.constprop.0>
    8761:	48 89 c5             	mov    %rax,%rbp
    8764:	48 85 c0             	test   %rax,%rax
    8767:	0f 84 11 24 00 00    	je     ab7e <__pyx_pymod_exec_main+0x3755>
    876d:	48 8b 35 5c f6 00 00 	mov    0xf65c(%rip),%rsi        # 17dd0 <__pyx_mstate_global_static+0x170>
    8774:	4c 89 e7             	mov    %r12,%rdi
    8777:	e8 55 c3 ff ff       	call   4ad1 <__Pyx__PyObject_LookupSpecial.constprop.0>
    877c:	48 89 44 24 30       	mov    %rax,0x30(%rsp)
    8781:	49 89 c5             	mov    %rax,%r13
    8784:	48 85 c0             	test   %rax,%rax
    8787:	0f 84 9a 12 00 00    	je     9a27 <__pyx_pymod_exec_main+0x25fe>
    878d:	48 89 c7             	mov    %rax,%rdi
    8790:	e8 1e e6 ff ff       	call   6db3 <__Pyx_PyObject_CallNoArg>
    8795:	49 89 c6             	mov    %rax,%r14
    8798:	48 85 c0             	test   %rax,%rax
    879b:	0f 84 8e 12 00 00    	je     9a2f <__pyx_pymod_exec_main+0x2606>
    87a1:	49 8b 45 00          	mov    0x0(%r13),%rax
    87a5:	85 c0                	test   %eax,%eax
    87a7:	78 11                	js     87ba <__pyx_pymod_exec_main+0x1391>
    87a9:	48 ff c8             	dec    %rax
    87ac:	49 89 45 00          	mov    %rax,0x0(%r13)
    87b0:	75 08                	jne    87ba <__pyx_pymod_exec_main+0x1391>
    87b2:	4c 89 ef             	mov    %r13,%rdi
    87b5:	e8 96 be ff ff       	call   4650 <_Py_Dealloc@plt>
    87ba:	49 8b 06             	mov    (%r14),%rax
    87bd:	45 31 d2             	xor    %r10d,%r10d
    87c0:	4c 89 54 24 30       	mov    %r10,0x30(%rsp)
    87c5:	85 c0                	test   %eax,%eax
    87c7:	78 10                	js     87d9 <__pyx_pymod_exec_main+0x13b0>
    87c9:	48 ff c8             	dec    %rax
    87cc:	49 89 06             	mov    %rax,(%r14)
    87cf:	75 08                	jne    87d9 <__pyx_pymod_exec_main+0x13b0>
    87d1:	4c 89 f7             	mov    %r14,%rdi
    87d4:	e8 77 be ff ff       	call   4650 <_Py_Dealloc@plt>
    87d9:	49 8b 04 24          	mov    (%r12),%rax
    87dd:	85 c0                	test   %eax,%eax
    87df:	78 11                	js     87f2 <__pyx_pymod_exec_main+0x13c9>
    87e1:	48 ff c8             	dec    %rax
